
/home/zbn/Simulator/kuilongNN/test/software/app/build/firmware.elf:     file format elf32-littleriscv
/home/zbn/Simulator/kuilongNN/test/software/app/build/firmware.elf


Disassembly of section .text:

00000000 <__text_start__>:
       0:	10030137          	lui	sp,0x10030
       4:	ff010113          	addi	sp,sp,-16 # 1002fff0 <linker_stack_start>
       8:	00c000ef          	jal	14 <main>
       c:	a001                	j	c <__text_start__+0xc>

0000000e <_Z4insnv>:
       e:	c0202573          	rdinstret	a0
      12:	8082                	ret

00000014 <main>:
      14:	7179                	addi	sp,sp,-48
      16:	d04a                	sw	s2,32(sp)
      18:	ce4e                	sw	s3,28(sp)
      1a:	cc52                	sw	s4,24(sp)
      1c:	100009b7          	lui	s3,0x10000
      20:	10000a37          	lui	s4,0x10000
      24:	10000937          	lui	s2,0x10000
      28:	0b600693          	li	a3,182
      2c:	000a0613          	mv	a2,s4
      30:	00898593          	addi	a1,s3,8 # 10000008 <__rodata_start__+0xfff69c8>
      34:	01490513          	addi	a0,s2,20 # 10000014 <__rodata_start__+0xfff69d4>
      38:	d606                	sw	ra,44(sp)
      3a:	d226                	sw	s1,36(sp)
      3c:	d422                	sw	s0,40(sp)
      3e:	ca56                	sw	s5,20(sp)
      40:	1ef060ef          	jal	6a2e <_Z7printf_PKcz>
      44:	10000537          	lui	a0,0x10000
      48:	02850513          	addi	a0,a0,40 # 10000028 <__rodata_start__+0xfff69e8>
      4c:	1e3060ef          	jal	6a2e <_Z7printf_PKcz>
      50:	100004b7          	lui	s1,0x10000
      54:	03048513          	addi	a0,s1,48 # 10000030 <__rodata_start__+0xfff69f0>
      58:	1d7060ef          	jal	6a2e <_Z7printf_PKcz>
      5c:	c0202af3          	rdinstret	s5
      60:	6f8050ef          	jal	5758 <_Z14malloc_initialv>
      64:	40000513          	li	a0,1024
      68:	602050ef          	jal	566a <_Z6mallocj>
      6c:	842a                	mv	s0,a0
      6e:	40000513          	li	a0,1024
      72:	5f8050ef          	jal	566a <_Z6mallocj>
      76:	c62a                	sw	a0,12(sp)
      78:	40000513          	li	a0,1024
      7c:	5ee050ef          	jal	566a <_Z6mallocj>
      80:	c42a                	sw	a0,8(sp)
      82:	40000513          	li	a0,1024
      86:	5e4050ef          	jal	566a <_Z6mallocj>
      8a:	4622                	lw	a2,8(sp)
      8c:	45b2                	lw	a1,12(sp)
      8e:	86aa                	mv	a3,a0
      90:	8522                	mv	a0,s0
      92:	465000ef          	jal	cf6 <_Z13sau_benchmarkPaS_S_S_>
      96:	c0202473          	rdinstret	s0
      9a:	0cb00693          	li	a3,203
      9e:	000a0613          	mv	a2,s4
      a2:	00898593          	addi	a1,s3,8
      a6:	01490513          	addi	a0,s2,20
      aa:	185060ef          	jal	6a2e <_Z7printf_PKcz>
      ae:	10000537          	lui	a0,0x10000
      b2:	415405b3          	sub	a1,s0,s5
      b6:	03450513          	addi	a0,a0,52 # 10000034 <__rodata_start__+0xfff69f4>
      ba:	175060ef          	jal	6a2e <_Z7printf_PKcz>
      be:	03048513          	addi	a0,s1,48
      c2:	16d060ef          	jal	6a2e <_Z7printf_PKcz>
      c6:	9002                	ebreak
      c8:	50b2                	lw	ra,44(sp)
      ca:	5422                	lw	s0,40(sp)
      cc:	5492                	lw	s1,36(sp)
      ce:	5902                	lw	s2,32(sp)
      d0:	49f2                	lw	s3,28(sp)
      d2:	4a62                	lw	s4,24(sp)
      d4:	4ad2                	lw	s5,20(sp)
      d6:	4501                	li	a0,0
      d8:	6145                	addi	sp,sp,48
      da:	8082                	ret

000000dc <_Z19matrix_csr_set_testv>:
      dc:	1101                	addi	sp,sp,-32
      de:	c84a                	sw	s2,16(sp)
      e0:	c64e                	sw	s3,12(sp)
      e2:	c452                	sw	s4,8(sp)
      e4:	100009b7          	lui	s3,0x10000
      e8:	10000a37          	lui	s4,0x10000
      ec:	10000937          	lui	s2,0x10000
      f0:	46ad                	li	a3,11
      f2:	044a0613          	addi	a2,s4,68 # 10000044 <__rodata_start__+0xfff6a04>
      f6:	05898593          	addi	a1,s3,88 # 10000058 <__rodata_start__+0xfff6a18>
      fa:	01490513          	addi	a0,s2,20 # 10000014 <__rodata_start__+0xfff69d4>
      fe:	ce06                	sw	ra,28(sp)
     100:	ca26                	sw	s1,20(sp)
     102:	cc22                	sw	s0,24(sp)
     104:	c256                	sw	s5,4(sp)
     106:	129060ef          	jal	6a2e <_Z7printf_PKcz>
     10a:	10000537          	lui	a0,0x10000
     10e:	06c50513          	addi	a0,a0,108 # 1000006c <__rodata_start__+0xfff6a2c>
     112:	11d060ef          	jal	6a2e <_Z7printf_PKcz>
     116:	100004b7          	lui	s1,0x10000
     11a:	03048513          	addi	a0,s1,48 # 10000030 <__rodata_start__+0xfff69f0>
     11e:	111060ef          	jal	6a2e <_Z7printf_PKcz>
     122:	10144737          	lui	a4,0x10144
     126:	40070793          	addi	a5,a4,1024 # 10144400 <linker_stack_start+0x114410>
     12a:	00f7106b          	msetins1	zero,a4,a5
     12e:	6791                	lui	a5,0x4
     130:	10145737          	lui	a4,0x10145
     134:	0785                	addi	a5,a5,1 # 4001 <_Z16vnclip_testcase1v+0xa1>
     136:	80070713          	addi	a4,a4,-2048 # 10144800 <linker_stack_start+0x114810>
     13a:	06e7906b          	msetins2	zero,a5,a4
     13e:	4581                	li	a1,0
     140:	4a85                	li	s5,1
     142:	0d55906b          	msetins3	zero,a1,s5
     146:	0e00146b          	mgetins3lsb	s0,zero,zero
     14a:	05540b63          	beq	s0,s5,1a0 <_Z19matrix_csr_set_testv+0xc4>
     14e:	044a0613          	addi	a2,s4,68
     152:	46ed                	li	a3,27
     154:	05898593          	addi	a1,s3,88
     158:	01490513          	addi	a0,s2,20
     15c:	0d3060ef          	jal	6a2e <_Z7printf_PKcz>
     160:	10000537          	lui	a0,0x10000
     164:	85a2                	mv	a1,s0
     166:	08c50513          	addi	a0,a0,140 # 1000008c <__rodata_start__+0xfff6a4c>
     16a:	0c5060ef          	jal	6a2e <_Z7printf_PKcz>
     16e:	03048513          	addi	a0,s1,48
     172:	0bd060ef          	jal	6a2e <_Z7printf_PKcz>
     176:	46f1                	li	a3,28
     178:	044a0613          	addi	a2,s4,68
     17c:	05898593          	addi	a1,s3,88
     180:	01490513          	addi	a0,s2,20
     184:	0ab060ef          	jal	6a2e <_Z7printf_PKcz>
     188:	10000537          	lui	a0,0x10000
     18c:	85d6                	mv	a1,s5
     18e:	09450513          	addi	a0,a0,148 # 10000094 <__rodata_start__+0xfff6a54>
     192:	09d060ef          	jal	6a2e <_Z7printf_PKcz>
     196:	03048513          	addi	a0,s1,48
     19a:	095060ef          	jal	6a2e <_Z7printf_PKcz>
     19e:	9002                	ebreak
     1a0:	044a0613          	addi	a2,s4,68
     1a4:	05898593          	addi	a1,s3,88
     1a8:	46fd                	li	a3,31
     1aa:	01490513          	addi	a0,s2,20
     1ae:	081060ef          	jal	6a2e <_Z7printf_PKcz>
     1b2:	10000537          	lui	a0,0x10000
     1b6:	0ac50513          	addi	a0,a0,172 # 100000ac <__rodata_start__+0xfff6a6c>
     1ba:	075060ef          	jal	6a2e <_Z7printf_PKcz>
     1be:	4462                	lw	s0,24(sp)
     1c0:	40f2                	lw	ra,28(sp)
     1c2:	4942                	lw	s2,16(sp)
     1c4:	49b2                	lw	s3,12(sp)
     1c6:	4a22                	lw	s4,8(sp)
     1c8:	4a92                	lw	s5,4(sp)
     1ca:	03048513          	addi	a0,s1,48
     1ce:	44d2                	lw	s1,20(sp)
     1d0:	6105                	addi	sp,sp,32
     1d2:	05d0606f          	j	6a2e <_Z7printf_PKcz>

000001d6 <_Z23minimum_matmul_single_1PaS_S_>:
     1d6:	7139                	addi	sp,sp,-64
     1d8:	d256                	sw	s5,36(sp)
     1da:	d05a                	sw	s6,32(sp)
     1dc:	ce5e                	sw	s7,28(sp)
     1de:	10000b37          	lui	s6,0x10000
     1e2:	10000bb7          	lui	s7,0x10000
     1e6:	10000ab7          	lui	s5,0x10000
     1ea:	02500693          	li	a3,37
     1ee:	dc22                	sw	s0,56(sp)
     1f0:	da26                	sw	s1,52(sp)
     1f2:	d452                	sw	s4,40(sp)
     1f4:	842a                	mv	s0,a0
     1f6:	84ae                	mv	s1,a1
     1f8:	8a32                	mv	s4,a2
     1fa:	058b0593          	addi	a1,s6,88 # 10000058 <__rodata_start__+0xfff6a18>
     1fe:	100b8613          	addi	a2,s7,256 # 10000100 <__rodata_start__+0xfff6ac0>
     202:	014a8513          	addi	a0,s5,20 # 10000014 <__rodata_start__+0xfff69d4>
     206:	de06                	sw	ra,60(sp)
     208:	d84a                	sw	s2,48(sp)
     20a:	d64e                	sw	s3,44(sp)
     20c:	cc62                	sw	s8,24(sp)
     20e:	ca66                	sw	s9,20(sp)
     210:	c86a                	sw	s10,16(sp)
     212:	c66e                	sw	s11,12(sp)
     214:	01b060ef          	jal	6a2e <_Z7printf_PKcz>
     218:	10000537          	lui	a0,0x10000
     21c:	11850513          	addi	a0,a0,280 # 10000118 <__rodata_start__+0xfff6ad8>
     220:	00f060ef          	jal	6a2e <_Z7printf_PKcz>
     224:	10000937          	lui	s2,0x10000
     228:	03090513          	addi	a0,s2,48 # 10000030 <__rodata_start__+0xfff69f0>
     22c:	003060ef          	jal	6a2e <_Z7printf_PKcz>
     230:	10001737          	lui	a4,0x10001
     234:	6b870713          	addi	a4,a4,1720 # 100016b8 <_ZZ23minimum_matmul_single_1PaS_S_E4A_sa>
     238:	4781                	li	a5,0
     23a:	10070513          	addi	a0,a4,256
     23e:	10000693          	li	a3,256
     242:	00f70633          	add	a2,a4,a5
     246:	00060583          	lb	a1,0(a2)
     24a:	00f40633          	add	a2,s0,a5
     24e:	00b60023          	sb	a1,0(a2)
     252:	00f50633          	add	a2,a0,a5
     256:	00060583          	lb	a1,0(a2)
     25a:	00f48633          	add	a2,s1,a5
     25e:	00b60023          	sb	a1,0(a2)
     262:	00fa0633          	add	a2,s4,a5
     266:	00060023          	sb	zero,0(a2)
     26a:	0785                	addi	a5,a5,1
     26c:	fcd79be3          	bne	a5,a3,242 <_Z23minimum_matmul_single_1PaS_S_+0x6c>
     270:	001007b7          	lui	a5,0x100
     274:	17fd                	addi	a5,a5,-1 # fffff <__rodata_start__+0xf69bf>
     276:	021006b7          	lui	a3,0x2100
     27a:	8c7d                	and	s0,s0,a5
     27c:	8cfd                	and	s1,s1,a5
     27e:	8c55                	or	s0,s0,a3
     280:	8cd5                	or	s1,s1,a3
     282:	0094106b          	msetins1	zero,s0,s1
     286:	00fa77b3          	and	a5,s4,a5
     28a:	8fd5                	or	a5,a5,a3
     28c:	003046b7          	lui	a3,0x304
     290:	0685                	addi	a3,a3,1 # 304001 <__rodata_start__+0x2fa9c1>
     292:	06f6906b          	msetins2	zero,a3,a5
     296:	4485                	li	s1,1
     298:	4781                	li	a5,0
     29a:	0c97906b          	msetins3	zero,a5,s1
     29e:	4401                	li	s0,0
     2a0:	20070993          	addi	s3,a4,512
     2a4:	10000db7          	lui	s11,0x10000
     2a8:	10000d13          	li	s10,256
     2ac:	008987b3          	add	a5,s3,s0
     2b0:	008a0cb3          	add	s9,s4,s0
     2b4:	00078c03          	lb	s8,0(a5)
     2b8:	000c8783          	lb	a5,0(s9)
     2bc:	03878963          	beq	a5,s8,2ee <_Z23minimum_matmul_single_1PaS_S_+0x118>
     2c0:	07b00693          	li	a3,123
     2c4:	100b8613          	addi	a2,s7,256
     2c8:	058b0593          	addi	a1,s6,88
     2cc:	014a8513          	addi	a0,s5,20
     2d0:	75e060ef          	jal	6a2e <_Z7printf_PKcz>
     2d4:	000c8683          	lb	a3,0(s9)
     2d8:	8662                	mv	a2,s8
     2da:	85a2                	mv	a1,s0
     2dc:	13cd8513          	addi	a0,s11,316 # 1000013c <__rodata_start__+0xfff6afc>
     2e0:	74e060ef          	jal	6a2e <_Z7printf_PKcz>
     2e4:	03090513          	addi	a0,s2,48
     2e8:	746060ef          	jal	6a2e <_Z7printf_PKcz>
     2ec:	4481                	li	s1,0
     2ee:	0405                	addi	s0,s0,1
     2f0:	fba41ee3          	bne	s0,s10,2ac <_Z23minimum_matmul_single_1PaS_S_+0xd6>
     2f4:	07c00693          	li	a3,124
     2f8:	100b8613          	addi	a2,s7,256
     2fc:	058b0593          	addi	a1,s6,88
     300:	014a8513          	addi	a0,s5,20
     304:	72a060ef          	jal	6a2e <_Z7printf_PKcz>
     308:	c88d                	beqz	s1,33a <_Z23minimum_matmul_single_1PaS_S_+0x164>
     30a:	10000537          	lui	a0,0x10000
     30e:	0c850513          	addi	a0,a0,200 # 100000c8 <__rodata_start__+0xfff6a88>
     312:	71c060ef          	jal	6a2e <_Z7printf_PKcz>
     316:	5462                	lw	s0,56(sp)
     318:	50f2                	lw	ra,60(sp)
     31a:	54d2                	lw	s1,52(sp)
     31c:	59b2                	lw	s3,44(sp)
     31e:	5a22                	lw	s4,40(sp)
     320:	5a92                	lw	s5,36(sp)
     322:	5b02                	lw	s6,32(sp)
     324:	4bf2                	lw	s7,28(sp)
     326:	4c62                	lw	s8,24(sp)
     328:	4cd2                	lw	s9,20(sp)
     32a:	4d42                	lw	s10,16(sp)
     32c:	4db2                	lw	s11,12(sp)
     32e:	03090513          	addi	a0,s2,48
     332:	5942                	lw	s2,48(sp)
     334:	6121                	addi	sp,sp,64
     336:	6f80606f          	j	6a2e <_Z7printf_PKcz>
     33a:	10000537          	lui	a0,0x10000
     33e:	0e450513          	addi	a0,a0,228 # 100000e4 <__rodata_start__+0xfff6aa4>
     342:	bfc1                	j	312 <_Z23minimum_matmul_single_1PaS_S_+0x13c>

00000344 <_Z22minimum_matmul_multi_1PaS_S_>:
     344:	7139                	addi	sp,sp,-64
     346:	d452                	sw	s4,40(sp)
     348:	d256                	sw	s5,36(sp)
     34a:	d05a                	sw	s6,32(sp)
     34c:	10000ab7          	lui	s5,0x10000
     350:	10000b37          	lui	s6,0x10000
     354:	10000a37          	lui	s4,0x10000
     358:	08200693          	li	a3,130
     35c:	dc22                	sw	s0,56(sp)
     35e:	da26                	sw	s1,52(sp)
     360:	d64e                	sw	s3,44(sp)
     362:	842a                	mv	s0,a0
     364:	84ae                	mv	s1,a1
     366:	89b2                	mv	s3,a2
     368:	058a8593          	addi	a1,s5,88 # 10000058 <__rodata_start__+0xfff6a18>
     36c:	158b0613          	addi	a2,s6,344 # 10000158 <__rodata_start__+0xfff6b18>
     370:	014a0513          	addi	a0,s4,20 # 10000014 <__rodata_start__+0xfff69d4>
     374:	de06                	sw	ra,60(sp)
     376:	d84a                	sw	s2,48(sp)
     378:	ce5e                	sw	s7,28(sp)
     37a:	cc62                	sw	s8,24(sp)
     37c:	ca66                	sw	s9,20(sp)
     37e:	c86a                	sw	s10,16(sp)
     380:	c66e                	sw	s11,12(sp)
     382:	6ac060ef          	jal	6a2e <_Z7printf_PKcz>
     386:	10000537          	lui	a0,0x10000
     38a:	17050513          	addi	a0,a0,368 # 10000170 <__rodata_start__+0xfff6b30>
     38e:	6a0060ef          	jal	6a2e <_Z7printf_PKcz>
     392:	10000937          	lui	s2,0x10000
     396:	03090513          	addi	a0,s2,48 # 10000030 <__rodata_start__+0xfff69f0>
     39a:	694060ef          	jal	6a2e <_Z7printf_PKcz>
     39e:	100017b7          	lui	a5,0x10001
     3a2:	6b878793          	addi	a5,a5,1720 # 100016b8 <_ZZ23minimum_matmul_single_1PaS_S_E4A_sa>
     3a6:	4701                	li	a4,0
     3a8:	30078513          	addi	a0,a5,768
     3ac:	30000693          	li	a3,768
     3b0:	00e50633          	add	a2,a0,a4
     3b4:	00060583          	lb	a1,0(a2)
     3b8:	00e40633          	add	a2,s0,a4
     3bc:	0705                	addi	a4,a4,1
     3be:	00b60023          	sb	a1,0(a2)
     3c2:	fed717e3          	bne	a4,a3,3b0 <_Z22minimum_matmul_multi_1PaS_S_+0x6c>
     3c6:	4701                	li	a4,0
     3c8:	60078793          	addi	a5,a5,1536
     3cc:	30000693          	li	a3,768
     3d0:	00e78633          	add	a2,a5,a4
     3d4:	00060583          	lb	a1,0(a2)
     3d8:	00e48633          	add	a2,s1,a4
     3dc:	0705                	addi	a4,a4,1
     3de:	00b60023          	sb	a1,0(a2)
     3e2:	fed717e3          	bne	a4,a3,3d0 <_Z22minimum_matmul_multi_1PaS_S_+0x8c>
     3e6:	4781                	li	a5,0
     3e8:	10000713          	li	a4,256
     3ec:	00f986b3          	add	a3,s3,a5
     3f0:	00068023          	sb	zero,0(a3)
     3f4:	0785                	addi	a5,a5,1
     3f6:	fee79be3          	bne	a5,a4,3ec <_Z22minimum_matmul_multi_1PaS_S_+0xa8>
     3fa:	001007b7          	lui	a5,0x100
     3fe:	17fd                	addi	a5,a5,-1 # fffff <__rodata_start__+0xf69bf>
     400:	8cfd                	and	s1,s1,a5
     402:	20100737          	lui	a4,0x20100
     406:	8cd9                	or	s1,s1,a4
     408:	8c7d                	and	s0,s0,a5
     40a:	00300737          	lui	a4,0x300
     40e:	8c59                	or	s0,s0,a4
     410:	00f9f7b3          	and	a5,s3,a5
     414:	02100737          	lui	a4,0x2100
     418:	8fd9                	or	a5,a5,a4
     41a:	0094106b          	msetins1	zero,s0,s1
     41e:	00304737          	lui	a4,0x304
     422:	20370713          	addi	a4,a4,515 # 304203 <__rodata_start__+0x2fabc3>
     426:	06f7106b          	msetins2	zero,a4,a5
     42a:	4601                	li	a2,0
     42c:	4705                	li	a4,1
     42e:	0ce6106b          	msetins3	zero,a2,a4
     432:	0094106b          	msetins1	zero,s0,s1
     436:	003046b7          	lui	a3,0x304
     43a:	068d                	addi	a3,a3,3 # 304003 <__rodata_start__+0x2fa9c3>
     43c:	06f6906b          	msetins2	zero,a3,a5
     440:	0ce6106b          	msetins3	zero,a2,a4
     444:	10002bb7          	lui	s7,0x10002
     448:	4481                	li	s1,0
     44a:	843a                	mv	s0,a4
     44c:	fb8b8b93          	addi	s7,s7,-72 # 10001fb8 <_ZZ22minimum_matmul_multi_1PaS_S_E9C_ref_int>
     450:	10000db7          	lui	s11,0x10000
     454:	10000d13          	li	s10,256
     458:	009b87b3          	add	a5,s7,s1
     45c:	00998cb3          	add	s9,s3,s1
     460:	00078c03          	lb	s8,0(a5)
     464:	000c8783          	lb	a5,0(s9)
     468:	03878963          	beq	a5,s8,49a <_Z22minimum_matmul_multi_1PaS_S_+0x156>
     46c:	0f800693          	li	a3,248
     470:	158b0613          	addi	a2,s6,344
     474:	058a8593          	addi	a1,s5,88
     478:	014a0513          	addi	a0,s4,20
     47c:	5b2060ef          	jal	6a2e <_Z7printf_PKcz>
     480:	000c8683          	lb	a3,0(s9)
     484:	8662                	mv	a2,s8
     486:	85a6                	mv	a1,s1
     488:	13cd8513          	addi	a0,s11,316 # 1000013c <__rodata_start__+0xfff6afc>
     48c:	5a2060ef          	jal	6a2e <_Z7printf_PKcz>
     490:	03090513          	addi	a0,s2,48
     494:	59a060ef          	jal	6a2e <_Z7printf_PKcz>
     498:	4401                	li	s0,0
     49a:	0485                	addi	s1,s1,1
     49c:	fba49ee3          	bne	s1,s10,458 <_Z22minimum_matmul_multi_1PaS_S_+0x114>
     4a0:	0f900693          	li	a3,249
     4a4:	158b0613          	addi	a2,s6,344
     4a8:	058a8593          	addi	a1,s5,88
     4ac:	014a0513          	addi	a0,s4,20
     4b0:	57e060ef          	jal	6a2e <_Z7printf_PKcz>
     4b4:	c80d                	beqz	s0,4e6 <_Z22minimum_matmul_multi_1PaS_S_+0x1a2>
     4b6:	10000537          	lui	a0,0x10000
     4ba:	0c850513          	addi	a0,a0,200 # 100000c8 <__rodata_start__+0xfff6a88>
     4be:	570060ef          	jal	6a2e <_Z7printf_PKcz>
     4c2:	5462                	lw	s0,56(sp)
     4c4:	50f2                	lw	ra,60(sp)
     4c6:	54d2                	lw	s1,52(sp)
     4c8:	59b2                	lw	s3,44(sp)
     4ca:	5a22                	lw	s4,40(sp)
     4cc:	5a92                	lw	s5,36(sp)
     4ce:	5b02                	lw	s6,32(sp)
     4d0:	4bf2                	lw	s7,28(sp)
     4d2:	4c62                	lw	s8,24(sp)
     4d4:	4cd2                	lw	s9,20(sp)
     4d6:	4d42                	lw	s10,16(sp)
     4d8:	4db2                	lw	s11,12(sp)
     4da:	03090513          	addi	a0,s2,48
     4de:	5942                	lw	s2,48(sp)
     4e0:	6121                	addi	sp,sp,64
     4e2:	54c0606f          	j	6a2e <_Z7printf_PKcz>
     4e6:	10000537          	lui	a0,0x10000
     4ea:	0e450513          	addi	a0,a0,228 # 100000e4 <__rodata_start__+0xfff6aa4>
     4ee:	bfc1                	j	4be <_Z22minimum_matmul_multi_1PaS_S_+0x17a>

000004f0 <_Z21minimum_matmul_singlePaS_S_>:
     4f0:	cb010113          	addi	sp,sp,-848
     4f4:	33412c23          	sw	s4,824(sp)
     4f8:	33512a23          	sw	s5,820(sp)
     4fc:	33612823          	sw	s6,816(sp)
     500:	10000ab7          	lui	s5,0x10000
     504:	10000b37          	lui	s6,0x10000
     508:	10000a37          	lui	s4,0x10000
     50c:	0ff00693          	li	a3,255
     510:	34812423          	sw	s0,840(sp)
     514:	34912223          	sw	s1,836(sp)
     518:	35212023          	sw	s2,832(sp)
     51c:	842a                	mv	s0,a0
     51e:	84ae                	mv	s1,a1
     520:	8932                	mv	s2,a2
     522:	058a8593          	addi	a1,s5,88 # 10000058 <__rodata_start__+0xfff6a18>
     526:	194b0613          	addi	a2,s6,404 # 10000194 <__rodata_start__+0xfff6b54>
     52a:	014a0513          	addi	a0,s4,20 # 10000014 <__rodata_start__+0xfff69d4>
     52e:	34112623          	sw	ra,844(sp)
     532:	33312e23          	sw	s3,828(sp)
     536:	33712623          	sw	s7,812(sp)
     53a:	33812423          	sw	s8,808(sp)
     53e:	33912223          	sw	s9,804(sp)
     542:	33a12023          	sw	s10,800(sp)
     546:	31b12e23          	sw	s11,796(sp)
     54a:	4e4060ef          	jal	6a2e <_Z7printf_PKcz>
     54e:	10000537          	lui	a0,0x10000
     552:	1ac50513          	addi	a0,a0,428 # 100001ac <__rodata_start__+0xfff6b6c>
     556:	4d8060ef          	jal	6a2e <_Z7printf_PKcz>
     55a:	100009b7          	lui	s3,0x10000
     55e:	03098513          	addi	a0,s3,48 # 10000030 <__rodata_start__+0xfff69f0>
     562:	4cc060ef          	jal	6a2e <_Z7printf_PKcz>
     566:	4781                	li	a5,0
     568:	080c                	addi	a1,sp,16
     56a:	0a10                	addi	a2,sp,272
     56c:	07f00513          	li	a0,127
     570:	10000813          	li	a6,256
     574:	01078693          	addi	a3,a5,16
     578:	0ff7f713          	zext.b	a4,a5
     57c:	00f588b3          	add	a7,a1,a5
     580:	f8070313          	addi	t1,a4,-128
     584:	00688023          	sb	t1,0(a7)
     588:	40e50733          	sub	a4,a0,a4
     58c:	00f608b3          	add	a7,a2,a5
     590:	00e88023          	sb	a4,0(a7)
     594:	0785                	addi	a5,a5,1
     596:	fed791e3          	bne	a5,a3,578 <_Z21minimum_matmul_singlePaS_S_+0x88>
     59a:	fd079de3          	bne	a5,a6,574 <_Z21minimum_matmul_singlePaS_S_+0x84>
     59e:	4781                	li	a5,0
     5a0:	4ec1                	li	t4,16
     5a2:	21010c93          	addi	s9,sp,528
     5a6:	10000f13          	li	t5,256
     5aa:	4701                	li	a4,0
     5ac:	00f58e33          	add	t3,a1,a5
     5b0:	01978333          	add	t1,a5,s9
     5b4:	a02d                	j	5de <_Z21minimum_matmul_singlePaS_S_+0xee>
     5b6:	00de08b3          	add	a7,t3,a3
     5ba:	00080f83          	lb	t6,0(a6)
     5be:	00088883          	lb	a7,0(a7)
     5c2:	0685                	addi	a3,a3,1
     5c4:	0841                	addi	a6,a6,16
     5c6:	03f888b3          	mul	a7,a7,t6
     5ca:	9546                	add	a0,a0,a7
     5cc:	ffd695e3          	bne	a3,t4,5b6 <_Z21minimum_matmul_singlePaS_S_+0xc6>
     5d0:	00e30833          	add	a6,t1,a4
     5d4:	00a80023          	sb	a0,0(a6)
     5d8:	0705                	addi	a4,a4,1
     5da:	00d70763          	beq	a4,a3,5e8 <_Z21minimum_matmul_singlePaS_S_+0xf8>
     5de:	00e60833          	add	a6,a2,a4
     5e2:	4681                	li	a3,0
     5e4:	4501                	li	a0,0
     5e6:	bfc1                	j	5b6 <_Z21minimum_matmul_singlePaS_S_+0xc6>
     5e8:	07c1                	addi	a5,a5,16
     5ea:	fde790e3          	bne	a5,t5,5aa <_Z21minimum_matmul_singlePaS_S_+0xba>
     5ee:	4781                	li	a5,0
     5f0:	10000713          	li	a4,256
     5f4:	00f58533          	add	a0,a1,a5
     5f8:	00054503          	lbu	a0,0(a0)
     5fc:	00f406b3          	add	a3,s0,a5
     600:	00a68023          	sb	a0,0(a3)
     604:	00f60533          	add	a0,a2,a5
     608:	00054503          	lbu	a0,0(a0)
     60c:	00f486b3          	add	a3,s1,a5
     610:	00a68023          	sb	a0,0(a3)
     614:	00f906b3          	add	a3,s2,a5
     618:	00068023          	sb	zero,0(a3)
     61c:	0785                	addi	a5,a5,1
     61e:	fce79be3          	bne	a5,a4,5f4 <_Z21minimum_matmul_singlePaS_S_+0x104>
     622:	001007b7          	lui	a5,0x100
     626:	8c5d                	or	s0,s0,a5
     628:	8cdd                	or	s1,s1,a5
     62a:	0094106b          	msetins1	zero,s0,s1
     62e:	6711                	lui	a4,0x4
     630:	00f967b3          	or	a5,s2,a5
     634:	0705                	addi	a4,a4,1 # 4001 <_Z16vnclip_testcase1v+0xa1>
     636:	06f7106b          	msetins2	zero,a4,a5
     63a:	4781                	li	a5,0
     63c:	4705                	li	a4,1
     63e:	0ce7906b          	msetins3	zero,a5,a4
     642:	4b81                	li	s7,0
     644:	4c01                	li	s8,0
     646:	4481                	li	s1,0
     648:	10000db7          	lui	s11,0x10000
     64c:	48c1                	li	a7,16
     64e:	4401                	li	s0,0
     650:	01790833          	add	a6,s2,s7
     654:	019b87b3          	add	a5,s7,s9
     658:	00880733          	add	a4,a6,s0
     65c:	00070d03          	lb	s10,0(a4)
     660:	00878733          	add	a4,a5,s0
     664:	00070703          	lb	a4,0(a4)
     668:	c63a                	sw	a4,12(sp)
     66a:	02ed0e63          	beq	s10,a4,6a6 <_Z21minimum_matmul_singlePaS_S_+0x1b6>
     66e:	14f00693          	li	a3,335
     672:	194b0613          	addi	a2,s6,404
     676:	058a8593          	addi	a1,s5,88
     67a:	014a0513          	addi	a0,s4,20
     67e:	c43e                	sw	a5,8(sp)
     680:	c242                	sw	a6,4(sp)
     682:	3ac060ef          	jal	6a2e <_Z7printf_PKcz>
     686:	4732                	lw	a4,12(sp)
     688:	86ea                	mv	a3,s10
     68a:	8622                	mv	a2,s0
     68c:	85e2                	mv	a1,s8
     68e:	1d0d8513          	addi	a0,s11,464 # 100001d0 <__rodata_start__+0xfff6b90>
     692:	39c060ef          	jal	6a2e <_Z7printf_PKcz>
     696:	03098513          	addi	a0,s3,48
     69a:	394060ef          	jal	6a2e <_Z7printf_PKcz>
     69e:	47a2                	lw	a5,8(sp)
     6a0:	4812                	lw	a6,4(sp)
     6a2:	0485                	addi	s1,s1,1
     6a4:	48c1                	li	a7,16
     6a6:	0405                	addi	s0,s0,1
     6a8:	fb1418e3          	bne	s0,a7,658 <_Z21minimum_matmul_singlePaS_S_+0x168>
     6ac:	0c05                	addi	s8,s8,1
     6ae:	0bc1                	addi	s7,s7,16
     6b0:	f88c1fe3          	bne	s8,s0,64e <_Z21minimum_matmul_singlePaS_S_+0x15e>
     6b4:	e0ad                	bnez	s1,716 <_Z21minimum_matmul_singlePaS_S_+0x226>
     6b6:	15400693          	li	a3,340
     6ba:	194b0613          	addi	a2,s6,404
     6be:	058a8593          	addi	a1,s5,88
     6c2:	014a0513          	addi	a0,s4,20
     6c6:	368060ef          	jal	6a2e <_Z7printf_PKcz>
     6ca:	10000537          	lui	a0,0x10000
     6ce:	1f450513          	addi	a0,a0,500 # 100001f4 <__rodata_start__+0xfff6bb4>
     6d2:	35c060ef          	jal	6a2e <_Z7printf_PKcz>
     6d6:	34812403          	lw	s0,840(sp)
     6da:	34c12083          	lw	ra,844(sp)
     6de:	34412483          	lw	s1,836(sp)
     6e2:	34012903          	lw	s2,832(sp)
     6e6:	33812a03          	lw	s4,824(sp)
     6ea:	33412a83          	lw	s5,820(sp)
     6ee:	33012b03          	lw	s6,816(sp)
     6f2:	32c12b83          	lw	s7,812(sp)
     6f6:	32812c03          	lw	s8,808(sp)
     6fa:	32412c83          	lw	s9,804(sp)
     6fe:	32012d03          	lw	s10,800(sp)
     702:	31c12d83          	lw	s11,796(sp)
     706:	03098513          	addi	a0,s3,48
     70a:	33c12983          	lw	s3,828(sp)
     70e:	35010113          	addi	sp,sp,848
     712:	31c0606f          	j	6a2e <_Z7printf_PKcz>
     716:	058a8593          	addi	a1,s5,88
     71a:	15600693          	li	a3,342
     71e:	194b0613          	addi	a2,s6,404
     722:	014a0513          	addi	a0,s4,20
     726:	308060ef          	jal	6a2e <_Z7printf_PKcz>
     72a:	10000537          	lui	a0,0x10000
     72e:	85a6                	mv	a1,s1
     730:	22050513          	addi	a0,a0,544 # 10000220 <__rodata_start__+0xfff6be0>
     734:	2fa060ef          	jal	6a2e <_Z7printf_PKcz>
     738:	bf79                	j	6d6 <_Z21minimum_matmul_singlePaS_S_+0x1e6>

0000073a <_Z21minimum_pwconv_singlePaS_S_>:
     73a:	7139                	addi	sp,sp,-64
     73c:	d256                	sw	s5,36(sp)
     73e:	d05a                	sw	s6,32(sp)
     740:	ce5e                	sw	s7,28(sp)
     742:	10000b37          	lui	s6,0x10000
     746:	10000bb7          	lui	s7,0x10000
     74a:	10000ab7          	lui	s5,0x10000
     74e:	15c00693          	li	a3,348
     752:	dc22                	sw	s0,56(sp)
     754:	da26                	sw	s1,52(sp)
     756:	d452                	sw	s4,40(sp)
     758:	842a                	mv	s0,a0
     75a:	84ae                	mv	s1,a1
     75c:	8a32                	mv	s4,a2
     75e:	058b0593          	addi	a1,s6,88 # 10000058 <__rodata_start__+0xfff6a18>
     762:	274b8613          	addi	a2,s7,628 # 10000274 <__rodata_start__+0xfff6c34>
     766:	014a8513          	addi	a0,s5,20 # 10000014 <__rodata_start__+0xfff69d4>
     76a:	de06                	sw	ra,60(sp)
     76c:	d84a                	sw	s2,48(sp)
     76e:	d64e                	sw	s3,44(sp)
     770:	cc62                	sw	s8,24(sp)
     772:	ca66                	sw	s9,20(sp)
     774:	c86a                	sw	s10,16(sp)
     776:	c66e                	sw	s11,12(sp)
     778:	2b6060ef          	jal	6a2e <_Z7printf_PKcz>
     77c:	10000537          	lui	a0,0x10000
     780:	28c50513          	addi	a0,a0,652 # 1000028c <__rodata_start__+0xfff6c4c>
     784:	2aa060ef          	jal	6a2e <_Z7printf_PKcz>
     788:	10000937          	lui	s2,0x10000
     78c:	03090513          	addi	a0,s2,48 # 10000030 <__rodata_start__+0xfff69f0>
     790:	29e060ef          	jal	6a2e <_Z7printf_PKcz>
     794:	10002737          	lui	a4,0x10002
     798:	6b870713          	addi	a4,a4,1720 # 100026b8 <_ZZ19minimum_conv_singlePaS_S_S_aE6Active+0x100>
     79c:	4781                	li	a5,0
     79e:	a0070813          	addi	a6,a4,-1536
     7a2:	c0070513          	addi	a0,a4,-1024
     7a6:	20000693          	li	a3,512
     7aa:	00f80633          	add	a2,a6,a5
     7ae:	00060583          	lb	a1,0(a2)
     7b2:	00f40633          	add	a2,s0,a5
     7b6:	00b60023          	sb	a1,0(a2)
     7ba:	00f50633          	add	a2,a0,a5
     7be:	00060583          	lb	a1,0(a2)
     7c2:	00f48633          	add	a2,s1,a5
     7c6:	00b60023          	sb	a1,0(a2)
     7ca:	00fa0633          	add	a2,s4,a5
     7ce:	00060023          	sb	zero,0(a2)
     7d2:	0785                	addi	a5,a5,1 # 100001 <__rodata_start__+0xf69c1>
     7d4:	fcd79be3          	bne	a5,a3,7aa <_Z21minimum_pwconv_singlePaS_S_+0x70>
     7d8:	001007b7          	lui	a5,0x100
     7dc:	17fd                	addi	a5,a5,-1 # fffff <__rodata_start__+0xf69bf>
     7de:	201006b7          	lui	a3,0x20100
     7e2:	8c7d                	and	s0,s0,a5
     7e4:	8cfd                	and	s1,s1,a5
     7e6:	8c55                	or	s0,s0,a3
     7e8:	8cd5                	or	s1,s1,a3
     7ea:	0094106b          	msetins1	zero,s0,s1
     7ee:	00fa77b3          	and	a5,s4,a5
     7f2:	021006b7          	lui	a3,0x2100
     7f6:	8fd5                	or	a5,a5,a3
     7f8:	002016b7          	lui	a3,0x201
     7fc:	10268693          	addi	a3,a3,258 # 201102 <__rodata_start__+0x1f7ac2>
     800:	06f6906b          	msetins2	zero,a3,a5
     804:	4485                	li	s1,1
     806:	4781                	li	a5,0
     808:	0c97906b          	msetins3	zero,a5,s1
     80c:	4401                	li	s0,0
     80e:	e0070993          	addi	s3,a4,-512
     812:	10000db7          	lui	s11,0x10000
     816:	10000d13          	li	s10,256
     81a:	008987b3          	add	a5,s3,s0
     81e:	008a0cb3          	add	s9,s4,s0
     822:	00078c03          	lb	s8,0(a5)
     826:	000c8783          	lb	a5,0(s9)
     82a:	03878963          	beq	a5,s8,85c <_Z21minimum_pwconv_singlePaS_S_+0x122>
     82e:	1ea00693          	li	a3,490
     832:	274b8613          	addi	a2,s7,628
     836:	058b0593          	addi	a1,s6,88
     83a:	014a8513          	addi	a0,s5,20
     83e:	1f0060ef          	jal	6a2e <_Z7printf_PKcz>
     842:	000c8683          	lb	a3,0(s9)
     846:	8662                	mv	a2,s8
     848:	85a2                	mv	a1,s0
     84a:	13cd8513          	addi	a0,s11,316 # 1000013c <__rodata_start__+0xfff6afc>
     84e:	1e0060ef          	jal	6a2e <_Z7printf_PKcz>
     852:	03090513          	addi	a0,s2,48
     856:	1d8060ef          	jal	6a2e <_Z7printf_PKcz>
     85a:	4481                	li	s1,0
     85c:	0405                	addi	s0,s0,1
     85e:	fba41ee3          	bne	s0,s10,81a <_Z21minimum_pwconv_singlePaS_S_+0xe0>
     862:	1eb00693          	li	a3,491
     866:	274b8613          	addi	a2,s7,628
     86a:	058b0593          	addi	a1,s6,88
     86e:	014a8513          	addi	a0,s5,20
     872:	1bc060ef          	jal	6a2e <_Z7printf_PKcz>
     876:	c88d                	beqz	s1,8a8 <_Z21minimum_pwconv_singlePaS_S_+0x16e>
     878:	10000537          	lui	a0,0x10000
     87c:	23c50513          	addi	a0,a0,572 # 1000023c <__rodata_start__+0xfff6bfc>
     880:	1ae060ef          	jal	6a2e <_Z7printf_PKcz>
     884:	5462                	lw	s0,56(sp)
     886:	50f2                	lw	ra,60(sp)
     888:	54d2                	lw	s1,52(sp)
     88a:	59b2                	lw	s3,44(sp)
     88c:	5a22                	lw	s4,40(sp)
     88e:	5a92                	lw	s5,36(sp)
     890:	5b02                	lw	s6,32(sp)
     892:	4bf2                	lw	s7,28(sp)
     894:	4c62                	lw	s8,24(sp)
     896:	4cd2                	lw	s9,20(sp)
     898:	4d42                	lw	s10,16(sp)
     89a:	4db2                	lw	s11,12(sp)
     89c:	03090513          	addi	a0,s2,48
     8a0:	5942                	lw	s2,48(sp)
     8a2:	6121                	addi	sp,sp,64
     8a4:	18a0606f          	j	6a2e <_Z7printf_PKcz>
     8a8:	10000537          	lui	a0,0x10000
     8ac:	25850513          	addi	a0,a0,600 # 10000258 <__rodata_start__+0xfff6c18>
     8b0:	bfc1                	j	880 <_Z21minimum_pwconv_singlePaS_S_+0x146>

000008b2 <_Z19minimum_conv_singlePaS_S_S_a>:
     8b2:	7139                	addi	sp,sp,-64
     8b4:	d452                	sw	s4,40(sp)
     8b6:	d256                	sw	s5,36(sp)
     8b8:	d05a                	sw	s6,32(sp)
     8ba:	10000ab7          	lui	s5,0x10000
     8be:	10000b37          	lui	s6,0x10000
     8c2:	10000a37          	lui	s4,0x10000
     8c6:	da26                	sw	s1,52(sp)
     8c8:	d84a                	sw	s2,48(sp)
     8ca:	ce5e                	sw	s7,28(sp)
     8cc:	cc62                	sw	s8,24(sp)
     8ce:	8baa                	mv	s7,a0
     8d0:	8c2e                	mv	s8,a1
     8d2:	8932                	mv	s2,a2
     8d4:	058a8593          	addi	a1,s5,88 # 10000058 <__rodata_start__+0xfff6a18>
     8d8:	2e8b0613          	addi	a2,s6,744 # 100002e8 <__rodata_start__+0xfff6ca8>
     8dc:	84b6                	mv	s1,a3
     8de:	014a0513          	addi	a0,s4,20 # 10000014 <__rodata_start__+0xfff69d4>
     8e2:	1ef00693          	li	a3,495
     8e6:	de06                	sw	ra,60(sp)
     8e8:	dc22                	sw	s0,56(sp)
     8ea:	d64e                	sw	s3,44(sp)
     8ec:	843a                	mv	s0,a4
     8ee:	ca66                	sw	s9,20(sp)
     8f0:	c86a                	sw	s10,16(sp)
     8f2:	c66e                	sw	s11,12(sp)
     8f4:	13a060ef          	jal	6a2e <_Z7printf_PKcz>
     8f8:	10000537          	lui	a0,0x10000
     8fc:	2fc50513          	addi	a0,a0,764 # 100002fc <__rodata_start__+0xfff6cbc>
     900:	12e060ef          	jal	6a2e <_Z7printf_PKcz>
     904:	100009b7          	lui	s3,0x10000
     908:	03098513          	addi	a0,s3,48 # 10000030 <__rodata_start__+0xfff69f0>
     90c:	122060ef          	jal	6a2e <_Z7printf_PKcz>
     910:	100027b7          	lui	a5,0x10002
     914:	6b878793          	addi	a5,a5,1720 # 100026b8 <_ZZ19minimum_conv_singlePaS_S_S_aE6Active+0x100>
     918:	4681                	li	a3,0
     91a:	f0078513          	addi	a0,a5,-256
     91e:	1b000713          	li	a4,432
     922:	00d50633          	add	a2,a0,a3
     926:	00060583          	lb	a1,0(a2)
     92a:	00db8633          	add	a2,s7,a3
     92e:	0685                	addi	a3,a3,1
     930:	00b60023          	sb	a1,0(a2)
     934:	fee697e3          	bne	a3,a4,922 <_Z19minimum_conv_singlePaS_S_S_a+0x70>
     938:	4681                	li	a3,0
     93a:	0b078513          	addi	a0,a5,176
     93e:	20000713          	li	a4,512
     942:	00d50633          	add	a2,a0,a3
     946:	00060583          	lb	a1,0(a2)
     94a:	00dc0633          	add	a2,s8,a3
     94e:	00b60023          	sb	a1,0(a2)
     952:	00d90633          	add	a2,s2,a3
     956:	00060023          	sb	zero,0(a2)
     95a:	0685                	addi	a3,a3,1
     95c:	fee693e3          	bne	a3,a4,942 <_Z19minimum_conv_singlePaS_S_S_a+0x90>
     960:	4681                	li	a3,0
     962:	2b078513          	addi	a0,a5,688
     966:	02000713          	li	a4,32
     96a:	00d50633          	add	a2,a0,a3
     96e:	00060583          	lb	a1,0(a2)
     972:	00d48633          	add	a2,s1,a3
     976:	0685                	addi	a3,a3,1
     978:	00b60023          	sb	a1,0(a2)
     97c:	fee697e3          	bne	a3,a4,96a <_Z19minimum_conv_singlePaS_S_S_a+0xb8>
     980:	00100737          	lui	a4,0x100
     984:	177d                	addi	a4,a4,-1 # fffff <__rodata_start__+0xf69bf>
     986:	00ebfbb3          	and	s7,s7,a4
     98a:	0c3006b7          	lui	a3,0xc300
     98e:	00dbebb3          	or	s7,s7,a3
     992:	00ec7c33          	and	s8,s8,a4
     996:	201006b7          	lui	a3,0x20100
     99a:	00dc6c33          	or	s8,s8,a3
     99e:	018b906b          	msetins1	zero,s7,s8
     9a2:	00203637          	lui	a2,0x203
     9a6:	01041693          	slli	a3,s0,0x10
     9aa:	18260613          	addi	a2,a2,386 # 203182 <__rodata_start__+0x1f9b42>
     9ae:	8ed1                	or	a3,a3,a2
     9b0:	00e97733          	and	a4,s2,a4
     9b4:	02100637          	lui	a2,0x2100
     9b8:	8f51                	or	a4,a4,a2
     9ba:	06e6906b          	msetins2	zero,a3,a4
     9be:	10000737          	lui	a4,0x10000
     9c2:	04a2                	slli	s1,s1,0x8
     9c4:	f0070713          	addi	a4,a4,-256 # fffff00 <__rodata_start__+0xfff68c0>
     9c8:	8f65                	and	a4,a4,s1
     9ca:	4485                	li	s1,1
     9cc:	0c97106b          	msetins3	zero,a4,s1
     9d0:	ec51                	bnez	s0,a6c <_Z19minimum_conv_singlePaS_S_S_a+0x1ba>
     9d2:	2c078d13          	addi	s10,a5,704
     9d6:	10000db7          	lui	s11,0x10000
     9da:	10000c93          	li	s9,256
     9de:	008d07b3          	add	a5,s10,s0
     9e2:	00890c33          	add	s8,s2,s0
     9e6:	00078b83          	lb	s7,0(a5)
     9ea:	000c0783          	lb	a5,0(s8)
     9ee:	03778963          	beq	a5,s7,a20 <_Z19minimum_conv_singlePaS_S_S_a+0x16e>
     9f2:	29b00693          	li	a3,667
     9f6:	2e8b0613          	addi	a2,s6,744
     9fa:	058a8593          	addi	a1,s5,88
     9fe:	014a0513          	addi	a0,s4,20
     a02:	02c060ef          	jal	6a2e <_Z7printf_PKcz>
     a06:	000c0683          	lb	a3,0(s8)
     a0a:	865e                	mv	a2,s7
     a0c:	85a2                	mv	a1,s0
     a0e:	13cd8513          	addi	a0,s11,316 # 1000013c <__rodata_start__+0xfff6afc>
     a12:	01c060ef          	jal	6a2e <_Z7printf_PKcz>
     a16:	03098513          	addi	a0,s3,48
     a1a:	014060ef          	jal	6a2e <_Z7printf_PKcz>
     a1e:	4481                	li	s1,0
     a20:	0405                	addi	s0,s0,1
     a22:	fb941ee3          	bne	s0,s9,9de <_Z19minimum_conv_singlePaS_S_S_a+0x12c>
     a26:	29f00693          	li	a3,671
     a2a:	2e8b0613          	addi	a2,s6,744
     a2e:	058a8593          	addi	a1,s5,88
     a32:	014a0513          	addi	a0,s4,20
     a36:	7f9050ef          	jal	6a2e <_Z7printf_PKcz>
     a3a:	c4c9                	beqz	s1,ac4 <_Z19minimum_conv_singlePaS_S_S_a+0x212>
     a3c:	10000537          	lui	a0,0x10000
     a40:	2b050513          	addi	a0,a0,688 # 100002b0 <__rodata_start__+0xfff6c70>
     a44:	7eb050ef          	jal	6a2e <_Z7printf_PKcz>
     a48:	5462                	lw	s0,56(sp)
     a4a:	50f2                	lw	ra,60(sp)
     a4c:	54d2                	lw	s1,52(sp)
     a4e:	5942                	lw	s2,48(sp)
     a50:	5a22                	lw	s4,40(sp)
     a52:	5a92                	lw	s5,36(sp)
     a54:	5b02                	lw	s6,32(sp)
     a56:	4bf2                	lw	s7,28(sp)
     a58:	4c62                	lw	s8,24(sp)
     a5a:	4cd2                	lw	s9,20(sp)
     a5c:	4d42                	lw	s10,16(sp)
     a5e:	4db2                	lw	s11,12(sp)
     a60:	03098513          	addi	a0,s3,48
     a64:	59b2                	lw	s3,44(sp)
     a66:	6121                	addi	sp,sp,64
     a68:	7c70506f          	j	6a2e <_Z7printf_PKcz>
     a6c:	4b81                	li	s7,0
     a6e:	3c078413          	addi	s0,a5,960
     a72:	10000db7          	lui	s11,0x10000
     a76:	10000d13          	li	s10,256
     a7a:	017407b3          	add	a5,s0,s7
     a7e:	01790cb3          	add	s9,s2,s7
     a82:	00078c03          	lb	s8,0(a5)
     a86:	000c8783          	lb	a5,0(s9)
     a8a:	03878963          	beq	a5,s8,abc <_Z19minimum_conv_singlePaS_S_S_a+0x20a>
     a8e:	29d00693          	li	a3,669
     a92:	2e8b0613          	addi	a2,s6,744
     a96:	058a8593          	addi	a1,s5,88
     a9a:	014a0513          	addi	a0,s4,20
     a9e:	791050ef          	jal	6a2e <_Z7printf_PKcz>
     aa2:	000c8683          	lb	a3,0(s9)
     aa6:	8662                	mv	a2,s8
     aa8:	85de                	mv	a1,s7
     aaa:	13cd8513          	addi	a0,s11,316 # 1000013c <__rodata_start__+0xfff6afc>
     aae:	781050ef          	jal	6a2e <_Z7printf_PKcz>
     ab2:	03098513          	addi	a0,s3,48
     ab6:	779050ef          	jal	6a2e <_Z7printf_PKcz>
     aba:	4481                	li	s1,0
     abc:	0b85                	addi	s7,s7,1
     abe:	fbab9ee3          	bne	s7,s10,a7a <_Z19minimum_conv_singlePaS_S_S_a+0x1c8>
     ac2:	b795                	j	a26 <_Z19minimum_conv_singlePaS_S_S_a+0x174>
     ac4:	10000537          	lui	a0,0x10000
     ac8:	2cc50513          	addi	a0,a0,716 # 100002cc <__rodata_start__+0xfff6c8c>
     acc:	bfa5                	j	a44 <_Z19minimum_conv_singlePaS_S_S_a+0x192>

00000ace <_Z21minimum_dwconv_singlePaS_S_S_a>:
     ace:	7139                	addi	sp,sp,-64
     ad0:	d64e                	sw	s3,44(sp)
     ad2:	d452                	sw	s4,40(sp)
     ad4:	d256                	sw	s5,36(sp)
     ad6:	10000a37          	lui	s4,0x10000
     ada:	10000ab7          	lui	s5,0x10000
     ade:	100009b7          	lui	s3,0x10000
     ae2:	da26                	sw	s1,52(sp)
     ae4:	d05a                	sw	s6,32(sp)
     ae6:	ce5e                	sw	s7,28(sp)
     ae8:	cc62                	sw	s8,24(sp)
     aea:	8baa                	mv	s7,a0
     aec:	8c2e                	mv	s8,a1
     aee:	84b2                	mv	s1,a2
     af0:	058a0593          	addi	a1,s4,88 # 10000058 <__rodata_start__+0xfff6a18>
     af4:	354a8613          	addi	a2,s5,852 # 10000354 <__rodata_start__+0xfff6d14>
     af8:	8b36                	mv	s6,a3
     afa:	01498513          	addi	a0,s3,20 # 10000014 <__rodata_start__+0xfff69d4>
     afe:	2a400693          	li	a3,676
     b02:	de06                	sw	ra,60(sp)
     b04:	dc22                	sw	s0,56(sp)
     b06:	d84a                	sw	s2,48(sp)
     b08:	843a                	mv	s0,a4
     b0a:	ca66                	sw	s9,20(sp)
     b0c:	c86a                	sw	s10,16(sp)
     b0e:	c66e                	sw	s11,12(sp)
     b10:	71f050ef          	jal	6a2e <_Z7printf_PKcz>
     b14:	10000537          	lui	a0,0x10000
     b18:	36c50513          	addi	a0,a0,876 # 1000036c <__rodata_start__+0xfff6d2c>
     b1c:	713050ef          	jal	6a2e <_Z7printf_PKcz>
     b20:	10000937          	lui	s2,0x10000
     b24:	03090513          	addi	a0,s2,48 # 10000030 <__rodata_start__+0xfff69f0>
     b28:	707050ef          	jal	6a2e <_Z7printf_PKcz>
     b2c:	10003737          	lui	a4,0x10003
     b30:	4781                	li	a5,0
     b32:	b7870713          	addi	a4,a4,-1160 # 10002b78 <_ZZ21minimum_dwconv_singlePaS_S_S_aE6Active>
     b36:	36000693          	li	a3,864
     b3a:	00f70633          	add	a2,a4,a5
     b3e:	00060583          	lb	a1,0(a2) # 2100000 <__rodata_start__+0x20f69c0>
     b42:	00fb8633          	add	a2,s7,a5
     b46:	0785                	addi	a5,a5,1
     b48:	00b60023          	sb	a1,0(a2)
     b4c:	fed797e3          	bne	a5,a3,b3a <_Z21minimum_dwconv_singlePaS_S_S_a+0x6c>
     b50:	10003837          	lui	a6,0x10003
     b54:	6b880813          	addi	a6,a6,1720 # 100036b8 <_ZZ23minimum_conv_single_8x8PaS_S_S_aE6Weight+0xb8>
     b58:	4781                	li	a5,0
     b5a:	82080593          	addi	a1,a6,-2016
     b5e:	10000713          	li	a4,256
     b62:	00f586b3          	add	a3,a1,a5
     b66:	00068603          	lb	a2,0(a3) # 20100000 <linker_stack_start+0x100d0010>
     b6a:	00fc06b3          	add	a3,s8,a5
     b6e:	00c68023          	sb	a2,0(a3)
     b72:	00f486b3          	add	a3,s1,a5
     b76:	00068023          	sb	zero,0(a3)
     b7a:	0785                	addi	a5,a5,1
     b7c:	fee793e3          	bne	a5,a4,b62 <_Z21minimum_dwconv_singlePaS_S_S_a+0x94>
     b80:	4781                	li	a5,0
     b82:	92080593          	addi	a1,a6,-1760
     b86:	4741                	li	a4,16
     b88:	00f586b3          	add	a3,a1,a5
     b8c:	00068603          	lb	a2,0(a3)
     b90:	00fb06b3          	add	a3,s6,a5
     b94:	0785                	addi	a5,a5,1
     b96:	00c68023          	sb	a2,0(a3)
     b9a:	fee797e3          	bne	a5,a4,b88 <_Z21minimum_dwconv_singlePaS_S_S_a+0xba>
     b9e:	001006b7          	lui	a3,0x100
     ba2:	fff68713          	addi	a4,a3,-1 # fffff <__rodata_start__+0xf69bf>
     ba6:	00ebfbb3          	and	s7,s7,a4
     baa:	06300637          	lui	a2,0x6300
     bae:	00ec7c33          	and	s8,s8,a4
     bb2:	00cbebb3          	or	s7,s7,a2
     bb6:	00dc6c33          	or	s8,s8,a3
     bba:	018b906b          	msetins1	zero,s7,s8
     bbe:	00140693          	addi	a3,s0,1
     bc2:	02d7c7b3          	div	a5,a5,a3
     bc6:	01041693          	slli	a3,s0,0x10
     bca:	8f65                	and	a4,a4,s1
     bcc:	8fd5                	or	a5,a5,a3
     bce:	001846b7          	lui	a3,0x184
     bd2:	98068693          	addi	a3,a3,-1664 # 183980 <__rodata_start__+0x17a340>
     bd6:	8fd5                	or	a5,a5,a3
     bd8:	021006b7          	lui	a3,0x2100
     bdc:	8f55                	or	a4,a4,a3
     bde:	06e7906b          	msetins2	zero,a5,a4
     be2:	100007b7          	lui	a5,0x10000
     be6:	0b22                	slli	s6,s6,0x8
     be8:	f0078793          	addi	a5,a5,-256 # fffff00 <__rodata_start__+0xfff68c0>
     bec:	00fb77b3          	and	a5,s6,a5
     bf0:	4b05                	li	s6,1
     bf2:	0d67906b          	msetins3	zero,a5,s6
     bf6:	ec59                	bnez	s0,c94 <_Z21minimum_dwconv_singlePaS_S_S_a+0x1c6>
     bf8:	93080d13          	addi	s10,a6,-1744
     bfc:	10000db7          	lui	s11,0x10000
     c00:	10000c93          	li	s9,256
     c04:	008d07b3          	add	a5,s10,s0
     c08:	00848c33          	add	s8,s1,s0
     c0c:	00078b83          	lb	s7,0(a5)
     c10:	000c0783          	lb	a5,0(s8)
     c14:	03778963          	beq	a5,s7,c46 <_Z21minimum_dwconv_singlePaS_S_S_a+0x178>
     c18:	36500693          	li	a3,869
     c1c:	354a8613          	addi	a2,s5,852
     c20:	058a0593          	addi	a1,s4,88
     c24:	01498513          	addi	a0,s3,20
     c28:	607050ef          	jal	6a2e <_Z7printf_PKcz>
     c2c:	000c0683          	lb	a3,0(s8)
     c30:	865e                	mv	a2,s7
     c32:	85a2                	mv	a1,s0
     c34:	13cd8513          	addi	a0,s11,316 # 1000013c <__rodata_start__+0xfff6afc>
     c38:	5f7050ef          	jal	6a2e <_Z7printf_PKcz>
     c3c:	03090513          	addi	a0,s2,48
     c40:	5ef050ef          	jal	6a2e <_Z7printf_PKcz>
     c44:	4b01                	li	s6,0
     c46:	0405                	addi	s0,s0,1
     c48:	fb941ee3          	bne	s0,s9,c04 <_Z21minimum_dwconv_singlePaS_S_S_a+0x136>
     c4c:	36900693          	li	a3,873
     c50:	354a8613          	addi	a2,s5,852
     c54:	058a0593          	addi	a1,s4,88
     c58:	01498513          	addi	a0,s3,20
     c5c:	5d3050ef          	jal	6a2e <_Z7printf_PKcz>
     c60:	080b0663          	beqz	s6,cec <_Z21minimum_dwconv_singlePaS_S_S_a+0x21e>
     c64:	10000537          	lui	a0,0x10000
     c68:	31c50513          	addi	a0,a0,796 # 1000031c <__rodata_start__+0xfff6cdc>
     c6c:	5c3050ef          	jal	6a2e <_Z7printf_PKcz>
     c70:	5462                	lw	s0,56(sp)
     c72:	50f2                	lw	ra,60(sp)
     c74:	54d2                	lw	s1,52(sp)
     c76:	59b2                	lw	s3,44(sp)
     c78:	5a22                	lw	s4,40(sp)
     c7a:	5a92                	lw	s5,36(sp)
     c7c:	5b02                	lw	s6,32(sp)
     c7e:	4bf2                	lw	s7,28(sp)
     c80:	4c62                	lw	s8,24(sp)
     c82:	4cd2                	lw	s9,20(sp)
     c84:	4d42                	lw	s10,16(sp)
     c86:	4db2                	lw	s11,12(sp)
     c88:	03090513          	addi	a0,s2,48
     c8c:	5942                	lw	s2,48(sp)
     c8e:	6121                	addi	sp,sp,64
     c90:	59f0506f          	j	6a2e <_Z7printf_PKcz>
     c94:	4401                	li	s0,0
     c96:	a3080b93          	addi	s7,a6,-1488
     c9a:	10000db7          	lui	s11,0x10000
     c9e:	10000d13          	li	s10,256
     ca2:	008b87b3          	add	a5,s7,s0
     ca6:	00848cb3          	add	s9,s1,s0
     caa:	00078c03          	lb	s8,0(a5)
     cae:	000c8783          	lb	a5,0(s9)
     cb2:	03878963          	beq	a5,s8,ce4 <_Z21minimum_dwconv_singlePaS_S_S_a+0x216>
     cb6:	36700693          	li	a3,871
     cba:	354a8613          	addi	a2,s5,852
     cbe:	058a0593          	addi	a1,s4,88
     cc2:	01498513          	addi	a0,s3,20
     cc6:	569050ef          	jal	6a2e <_Z7printf_PKcz>
     cca:	000c8683          	lb	a3,0(s9)
     cce:	8662                	mv	a2,s8
     cd0:	85a2                	mv	a1,s0
     cd2:	13cd8513          	addi	a0,s11,316 # 1000013c <__rodata_start__+0xfff6afc>
     cd6:	559050ef          	jal	6a2e <_Z7printf_PKcz>
     cda:	03090513          	addi	a0,s2,48
     cde:	551050ef          	jal	6a2e <_Z7printf_PKcz>
     ce2:	4b01                	li	s6,0
     ce4:	0405                	addi	s0,s0,1
     ce6:	fba41ee3          	bne	s0,s10,ca2 <_Z21minimum_dwconv_singlePaS_S_S_a+0x1d4>
     cea:	b78d                	j	c4c <_Z21minimum_dwconv_singlePaS_S_S_a+0x17e>
     cec:	10000537          	lui	a0,0x10000
     cf0:	33850513          	addi	a0,a0,824 # 10000338 <__rodata_start__+0xfff6cf8>
     cf4:	bfa5                	j	c6c <_Z21minimum_dwconv_singlePaS_S_S_a+0x19e>

00000cf6 <_Z13sau_benchmarkPaS_S_S_>:
     cf6:	7179                	addi	sp,sp,-48
     cf8:	ca56                	sw	s5,20(sp)
     cfa:	c85a                	sw	s6,16(sp)
     cfc:	c65e                	sw	s7,12(sp)
     cfe:	10000b37          	lui	s6,0x10000
     d02:	10000bb7          	lui	s7,0x10000
     d06:	10000ab7          	lui	s5,0x10000
     d0a:	d422                	sw	s0,40(sp)
     d0c:	d226                	sw	s1,36(sp)
     d0e:	d04a                	sw	s2,32(sp)
     d10:	ce4e                	sw	s3,28(sp)
     d12:	842a                	mv	s0,a0
     d14:	84ae                	mv	s1,a1
     d16:	8932                	mv	s2,a2
     d18:	89b6                	mv	s3,a3
     d1a:	390b8613          	addi	a2,s7,912 # 10000390 <__rodata_start__+0xfff6d50>
     d1e:	36e00693          	li	a3,878
     d22:	058b0593          	addi	a1,s6,88 # 10000058 <__rodata_start__+0xfff6a18>
     d26:	014a8513          	addi	a0,s5,20 # 10000014 <__rodata_start__+0xfff69d4>
     d2a:	d606                	sw	ra,44(sp)
     d2c:	cc52                	sw	s4,24(sp)
     d2e:	501050ef          	jal	6a2e <_Z7printf_PKcz>
     d32:	10000537          	lui	a0,0x10000
     d36:	3a050513          	addi	a0,a0,928 # 100003a0 <__rodata_start__+0xfff6d60>
     d3a:	4f5050ef          	jal	6a2e <_Z7printf_PKcz>
     d3e:	10000a37          	lui	s4,0x10000
     d42:	030a0513          	addi	a0,s4,48 # 10000030 <__rodata_start__+0xfff69f0>
     d46:	4e9050ef          	jal	6a2e <_Z7printf_PKcz>
     d4a:	864a                	mv	a2,s2
     d4c:	85a6                	mv	a1,s1
     d4e:	8522                	mv	a0,s0
     d50:	c86ff0ef          	jal	1d6 <_Z23minimum_matmul_single_1PaS_S_>
     d54:	864a                	mv	a2,s2
     d56:	85a6                	mv	a1,s1
     d58:	8522                	mv	a0,s0
     d5a:	32c5                	jal	73a <_Z21minimum_pwconv_singlePaS_S_>
     d5c:	86ce                	mv	a3,s3
     d5e:	864a                	mv	a2,s2
     d60:	85a6                	mv	a1,s1
     d62:	8522                	mv	a0,s0
     d64:	4701                	li	a4,0
     d66:	36b1                	jal	8b2 <_Z19minimum_conv_singlePaS_S_S_a>
     d68:	86ce                	mv	a3,s3
     d6a:	864a                	mv	a2,s2
     d6c:	85a6                	mv	a1,s1
     d6e:	8522                	mv	a0,s0
     d70:	4705                	li	a4,1
     d72:	3681                	jal	8b2 <_Z19minimum_conv_singlePaS_S_S_a>
     d74:	86ce                	mv	a3,s3
     d76:	864a                	mv	a2,s2
     d78:	85a6                	mv	a1,s1
     d7a:	8522                	mv	a0,s0
     d7c:	4701                	li	a4,0
     d7e:	3b81                	jal	ace <_Z21minimum_dwconv_singlePaS_S_S_a>
     d80:	4705                	li	a4,1
     d82:	86ce                	mv	a3,s3
     d84:	864a                	mv	a2,s2
     d86:	85a6                	mv	a1,s1
     d88:	8522                	mv	a0,s0
     d8a:	3391                	jal	ace <_Z21minimum_dwconv_singlePaS_S_S_a>
     d8c:	390b8613          	addi	a2,s7,912
     d90:	058b0593          	addi	a1,s6,88
     d94:	37b00693          	li	a3,891
     d98:	014a8513          	addi	a0,s5,20
     d9c:	493050ef          	jal	6a2e <_Z7printf_PKcz>
     da0:	10000537          	lui	a0,0x10000
     da4:	3b850513          	addi	a0,a0,952 # 100003b8 <__rodata_start__+0xfff6d78>
     da8:	487050ef          	jal	6a2e <_Z7printf_PKcz>
     dac:	5422                	lw	s0,40(sp)
     dae:	50b2                	lw	ra,44(sp)
     db0:	5492                	lw	s1,36(sp)
     db2:	5902                	lw	s2,32(sp)
     db4:	49f2                	lw	s3,28(sp)
     db6:	4ad2                	lw	s5,20(sp)
     db8:	4b42                	lw	s6,16(sp)
     dba:	4bb2                	lw	s7,12(sp)
     dbc:	030a0513          	addi	a0,s4,48
     dc0:	4a62                	lw	s4,24(sp)
     dc2:	6145                	addi	sp,sp,48
     dc4:	46b0506f          	j	6a2e <_Z7printf_PKcz>

00000dc8 <_Z23matrix_csr_set_test_8x8v>:
     dc8:	1101                	addi	sp,sp,-32
     dca:	c84a                	sw	s2,16(sp)
     dcc:	c64e                	sw	s3,12(sp)
     dce:	c452                	sw	s4,8(sp)
     dd0:	100009b7          	lui	s3,0x10000
     dd4:	10000a37          	lui	s4,0x10000
     dd8:	10000937          	lui	s2,0x10000
     ddc:	46a1                	li	a3,8
     dde:	3cca0613          	addi	a2,s4,972 # 100003cc <__rodata_start__+0xfff6d8c>
     de2:	3e498593          	addi	a1,s3,996 # 100003e4 <__rodata_start__+0xfff6da4>
     de6:	01490513          	addi	a0,s2,20 # 10000014 <__rodata_start__+0xfff69d4>
     dea:	ce06                	sw	ra,28(sp)
     dec:	ca26                	sw	s1,20(sp)
     dee:	cc22                	sw	s0,24(sp)
     df0:	c256                	sw	s5,4(sp)
     df2:	43d050ef          	jal	6a2e <_Z7printf_PKcz>
     df6:	10000537          	lui	a0,0x10000
     dfa:	06c50513          	addi	a0,a0,108 # 1000006c <__rodata_start__+0xfff6a2c>
     dfe:	431050ef          	jal	6a2e <_Z7printf_PKcz>
     e02:	100004b7          	lui	s1,0x10000
     e06:	03048513          	addi	a0,s1,48 # 10000030 <__rodata_start__+0xfff69f0>
     e0a:	425050ef          	jal	6a2e <_Z7printf_PKcz>
     e0e:	10144737          	lui	a4,0x10144
     e12:	40070793          	addi	a5,a4,1024 # 10144400 <linker_stack_start+0x114410>
     e16:	00f7106b          	msetins1	zero,a4,a5
     e1a:	6791                	lui	a5,0x4
     e1c:	10145737          	lui	a4,0x10145
     e20:	0785                	addi	a5,a5,1 # 4001 <_Z16vnclip_testcase1v+0xa1>
     e22:	80070713          	addi	a4,a4,-2048 # 10144800 <linker_stack_start+0x114810>
     e26:	06e7906b          	msetins2	zero,a5,a4
     e2a:	4581                	li	a1,0
     e2c:	4a85                	li	s5,1
     e2e:	0d55906b          	msetins3	zero,a1,s5
     e32:	0e00146b          	mgetins3lsb	s0,zero,zero
     e36:	05540b63          	beq	s0,s5,e8c <_Z23matrix_csr_set_test_8x8v+0xc4>
     e3a:	3cca0613          	addi	a2,s4,972
     e3e:	46e1                	li	a3,24
     e40:	3e498593          	addi	a1,s3,996
     e44:	01490513          	addi	a0,s2,20
     e48:	3e7050ef          	jal	6a2e <_Z7printf_PKcz>
     e4c:	10000537          	lui	a0,0x10000
     e50:	85a2                	mv	a1,s0
     e52:	08c50513          	addi	a0,a0,140 # 1000008c <__rodata_start__+0xfff6a4c>
     e56:	3d9050ef          	jal	6a2e <_Z7printf_PKcz>
     e5a:	03048513          	addi	a0,s1,48
     e5e:	3d1050ef          	jal	6a2e <_Z7printf_PKcz>
     e62:	46e5                	li	a3,25
     e64:	3cca0613          	addi	a2,s4,972
     e68:	3e498593          	addi	a1,s3,996
     e6c:	01490513          	addi	a0,s2,20
     e70:	3bf050ef          	jal	6a2e <_Z7printf_PKcz>
     e74:	10000537          	lui	a0,0x10000
     e78:	85d6                	mv	a1,s5
     e7a:	09450513          	addi	a0,a0,148 # 10000094 <__rodata_start__+0xfff6a54>
     e7e:	3b1050ef          	jal	6a2e <_Z7printf_PKcz>
     e82:	03048513          	addi	a0,s1,48
     e86:	3a9050ef          	jal	6a2e <_Z7printf_PKcz>
     e8a:	9002                	ebreak
     e8c:	3cca0613          	addi	a2,s4,972
     e90:	3e498593          	addi	a1,s3,996
     e94:	46f1                	li	a3,28
     e96:	01490513          	addi	a0,s2,20
     e9a:	395050ef          	jal	6a2e <_Z7printf_PKcz>
     e9e:	10000537          	lui	a0,0x10000
     ea2:	0ac50513          	addi	a0,a0,172 # 100000ac <__rodata_start__+0xfff6a6c>
     ea6:	389050ef          	jal	6a2e <_Z7printf_PKcz>
     eaa:	4462                	lw	s0,24(sp)
     eac:	40f2                	lw	ra,28(sp)
     eae:	4942                	lw	s2,16(sp)
     eb0:	49b2                	lw	s3,12(sp)
     eb2:	4a22                	lw	s4,8(sp)
     eb4:	4a92                	lw	s5,4(sp)
     eb6:	03048513          	addi	a0,s1,48
     eba:	44d2                	lw	s1,20(sp)
     ebc:	6105                	addi	sp,sp,32
     ebe:	3710506f          	j	6a2e <_Z7printf_PKcz>

00000ec2 <_Z24minimum_matmul_multi_8x8PaS_S_>:
     ec2:	7139                	addi	sp,sp,-64
     ec4:	d256                	sw	s5,36(sp)
     ec6:	d05a                	sw	s6,32(sp)
     ec8:	ce5e                	sw	s7,28(sp)
     eca:	10000b37          	lui	s6,0x10000
     ece:	10000bb7          	lui	s7,0x10000
     ed2:	10000ab7          	lui	s5,0x10000
     ed6:	02000693          	li	a3,32
     eda:	dc22                	sw	s0,56(sp)
     edc:	da26                	sw	s1,52(sp)
     ede:	d64e                	sw	s3,44(sp)
     ee0:	842a                	mv	s0,a0
     ee2:	84ae                	mv	s1,a1
     ee4:	89b2                	mv	s3,a2
     ee6:	3e4b0593          	addi	a1,s6,996 # 100003e4 <__rodata_start__+0xfff6da4>
     eea:	3fcb8613          	addi	a2,s7,1020 # 100003fc <__rodata_start__+0xfff6dbc>
     eee:	014a8513          	addi	a0,s5,20 # 10000014 <__rodata_start__+0xfff69d4>
     ef2:	de06                	sw	ra,60(sp)
     ef4:	d84a                	sw	s2,48(sp)
     ef6:	d452                	sw	s4,40(sp)
     ef8:	cc62                	sw	s8,24(sp)
     efa:	ca66                	sw	s9,20(sp)
     efc:	c86a                	sw	s10,16(sp)
     efe:	c66e                	sw	s11,12(sp)
     f00:	32f050ef          	jal	6a2e <_Z7printf_PKcz>
     f04:	10000537          	lui	a0,0x10000
     f08:	41850513          	addi	a0,a0,1048 # 10000418 <__rodata_start__+0xfff6dd8>
     f0c:	323050ef          	jal	6a2e <_Z7printf_PKcz>
     f10:	10000937          	lui	s2,0x10000
     f14:	03090513          	addi	a0,s2,48 # 10000030 <__rodata_start__+0xfff69f0>
     f18:	317050ef          	jal	6a2e <_Z7printf_PKcz>
     f1c:	4781                	li	a5,0
     f1e:	100036b7          	lui	a3,0x10003
     f22:	08000613          	li	a2,128
     f26:	1e868713          	addi	a4,a3,488 # 100031e8 <_ZZ24minimum_matmul_multi_8x8PaS_S_E4A_sa>
     f2a:	973e                	add	a4,a4,a5
     f2c:	00070583          	lb	a1,0(a4)
     f30:	00f40733          	add	a4,s0,a5
     f34:	0785                	addi	a5,a5,1
     f36:	00b70023          	sb	a1,0(a4)
     f3a:	1e868713          	addi	a4,a3,488
     f3e:	fec794e3          	bne	a5,a2,f26 <_Z24minimum_matmul_multi_8x8PaS_S_+0x64>
     f42:	4781                	li	a5,0
     f44:	08070513          	addi	a0,a4,128
     f48:	08000693          	li	a3,128
     f4c:	00f50633          	add	a2,a0,a5
     f50:	00060583          	lb	a1,0(a2) # 6300000 <__rodata_start__+0x62f69c0>
     f54:	00f48633          	add	a2,s1,a5
     f58:	0785                	addi	a5,a5,1
     f5a:	00b60023          	sb	a1,0(a2)
     f5e:	fed797e3          	bne	a5,a3,f4c <_Z24minimum_matmul_multi_8x8PaS_S_+0x8a>
     f62:	4781                	li	a5,0
     f64:	08000693          	li	a3,128
     f68:	00f98633          	add	a2,s3,a5
     f6c:	00060023          	sb	zero,0(a2)
     f70:	0785                	addi	a5,a5,1
     f72:	fed79be3          	bne	a5,a3,f68 <_Z24minimum_matmul_multi_8x8PaS_S_+0xa6>
     f76:	001007b7          	lui	a5,0x100
     f7a:	17fd                	addi	a5,a5,-1 # fffff <__rodata_start__+0xf69bf>
     f7c:	8c7d                	and	s0,s0,a5
     f7e:	002006b7          	lui	a3,0x200
     f82:	8c55                	or	s0,s0,a3
     f84:	8cfd                	and	s1,s1,a5
     f86:	101006b7          	lui	a3,0x10100
     f8a:	8cd5                	or	s1,s1,a3
     f8c:	0094106b          	msetins1	zero,s0,s1
     f90:	00f9f7b3          	and	a5,s3,a5
     f94:	021006b7          	lui	a3,0x2100
     f98:	8fd5                	or	a5,a5,a3
     f9a:	001046b7          	lui	a3,0x104
     f9e:	0689                	addi	a3,a3,2 # 104002 <__rodata_start__+0xfa9c2>
     fa0:	06f6906b          	msetins2	zero,a3,a5
     fa4:	4485                	li	s1,1
     fa6:	4781                	li	a5,0
     fa8:	0c97906b          	msetins3	zero,a5,s1
     fac:	4401                	li	s0,0
     fae:	10070a13          	addi	s4,a4,256
     fb2:	10000db7          	lui	s11,0x10000
     fb6:	08000d13          	li	s10,128
     fba:	008a07b3          	add	a5,s4,s0
     fbe:	00898cb3          	add	s9,s3,s0
     fc2:	00078c03          	lb	s8,0(a5)
     fc6:	000c8783          	lb	a5,0(s9)
     fca:	03878963          	beq	a5,s8,ffc <_Z24minimum_matmul_multi_8x8PaS_S_+0x13a>
     fce:	06200693          	li	a3,98
     fd2:	3fcb8613          	addi	a2,s7,1020
     fd6:	3e4b0593          	addi	a1,s6,996
     fda:	014a8513          	addi	a0,s5,20
     fde:	251050ef          	jal	6a2e <_Z7printf_PKcz>
     fe2:	000c8683          	lb	a3,0(s9)
     fe6:	8662                	mv	a2,s8
     fe8:	85a2                	mv	a1,s0
     fea:	13cd8513          	addi	a0,s11,316 # 1000013c <__rodata_start__+0xfff6afc>
     fee:	241050ef          	jal	6a2e <_Z7printf_PKcz>
     ff2:	03090513          	addi	a0,s2,48
     ff6:	239050ef          	jal	6a2e <_Z7printf_PKcz>
     ffa:	4481                	li	s1,0
     ffc:	0405                	addi	s0,s0,1
     ffe:	fba41ee3          	bne	s0,s10,fba <_Z24minimum_matmul_multi_8x8PaS_S_+0xf8>
    1002:	06300693          	li	a3,99
    1006:	3fcb8613          	addi	a2,s7,1020
    100a:	3e4b0593          	addi	a1,s6,996
    100e:	014a8513          	addi	a0,s5,20
    1012:	21d050ef          	jal	6a2e <_Z7printf_PKcz>
    1016:	c89d                	beqz	s1,104c <_Z24minimum_matmul_multi_8x8PaS_S_+0x18a>
    1018:	10000537          	lui	a0,0x10000
    101c:	0c850513          	addi	a0,a0,200 # 100000c8 <__rodata_start__+0xfff6a88>
    1020:	20f050ef          	jal	6a2e <_Z7printf_PKcz>
    1024:	03090513          	addi	a0,s2,48
    1028:	207050ef          	jal	6a2e <_Z7printf_PKcz>
    102c:	9002                	ebreak
    102e:	50f2                	lw	ra,60(sp)
    1030:	5462                	lw	s0,56(sp)
    1032:	54d2                	lw	s1,52(sp)
    1034:	5942                	lw	s2,48(sp)
    1036:	59b2                	lw	s3,44(sp)
    1038:	5a22                	lw	s4,40(sp)
    103a:	5a92                	lw	s5,36(sp)
    103c:	5b02                	lw	s6,32(sp)
    103e:	4bf2                	lw	s7,28(sp)
    1040:	4c62                	lw	s8,24(sp)
    1042:	4cd2                	lw	s9,20(sp)
    1044:	4d42                	lw	s10,16(sp)
    1046:	4db2                	lw	s11,12(sp)
    1048:	6121                	addi	sp,sp,64
    104a:	8082                	ret
    104c:	10000537          	lui	a0,0x10000
    1050:	0e450513          	addi	a0,a0,228 # 100000e4 <__rodata_start__+0xfff6aa4>
    1054:	b7f1                	j	1020 <_Z24minimum_matmul_multi_8x8PaS_S_+0x15e>

00001056 <_Z25minimum_matmul_single_8x8PaS_S_>:
    1056:	7111                	addi	sp,sp,-256
    1058:	dba6                	sw	s1,244(sp)
    105a:	d9ca                	sw	s2,240(sp)
    105c:	d7ce                	sw	s3,236(sp)
    105e:	100004b7          	lui	s1,0x10000
    1062:	10000937          	lui	s2,0x10000
    1066:	100009b7          	lui	s3,0x10000
    106a:	06900693          	li	a3,105
    106e:	dda2                	sw	s0,248(sp)
    1070:	d3d6                	sw	s5,228(sp)
    1072:	d1da                	sw	s6,224(sp)
    1074:	842a                	mv	s0,a0
    1076:	8aae                	mv	s5,a1
    1078:	8b32                	mv	s6,a2
    107a:	3e490593          	addi	a1,s2,996 # 100003e4 <__rodata_start__+0xfff6da4>
    107e:	43c48613          	addi	a2,s1,1084 # 1000043c <__rodata_start__+0xfff6dfc>
    1082:	01498513          	addi	a0,s3,20 # 10000014 <__rodata_start__+0xfff69d4>
    1086:	df86                	sw	ra,252(sp)
    1088:	d5d2                	sw	s4,232(sp)
    108a:	cfde                	sw	s7,220(sp)
    108c:	cde2                	sw	s8,216(sp)
    108e:	1a1050ef          	jal	6a2e <_Z7printf_PKcz>
    1092:	10000537          	lui	a0,0x10000
    1096:	1ac50513          	addi	a0,a0,428 # 100001ac <__rodata_start__+0xfff6b6c>
    109a:	195050ef          	jal	6a2e <_Z7printf_PKcz>
    109e:	10000a37          	lui	s4,0x10000
    10a2:	030a0513          	addi	a0,s4,48 # 10000030 <__rodata_start__+0xfff69f0>
    10a6:	189050ef          	jal	6a2e <_Z7printf_PKcz>
    10aa:	4781                	li	a5,0
    10ac:	080c                	addi	a1,sp,16
    10ae:	0890                	addi	a2,sp,80
    10b0:	07f00513          	li	a0,127
    10b4:	04000813          	li	a6,64
    10b8:	00878693          	addi	a3,a5,8
    10bc:	0ff7f713          	zext.b	a4,a5
    10c0:	00f588b3          	add	a7,a1,a5
    10c4:	f8070313          	addi	t1,a4,-128
    10c8:	00688023          	sb	t1,0(a7)
    10cc:	40e50733          	sub	a4,a0,a4
    10d0:	00f608b3          	add	a7,a2,a5
    10d4:	00e88023          	sb	a4,0(a7)
    10d8:	0785                	addi	a5,a5,1
    10da:	fed791e3          	bne	a5,a3,10bc <_Z25minimum_matmul_single_8x8PaS_S_+0x66>
    10de:	fd079de3          	bne	a5,a6,10b8 <_Z25minimum_matmul_single_8x8PaS_S_+0x62>
    10e2:	4781                	li	a5,0
    10e4:	4ea1                	li	t4,8
    10e6:	09010b93          	addi	s7,sp,144
    10ea:	04000f13          	li	t5,64
    10ee:	4701                	li	a4,0
    10f0:	00f58e33          	add	t3,a1,a5
    10f4:	00fb8333          	add	t1,s7,a5
    10f8:	a02d                	j	1122 <_Z25minimum_matmul_single_8x8PaS_S_+0xcc>
    10fa:	00de08b3          	add	a7,t3,a3
    10fe:	00080f83          	lb	t6,0(a6)
    1102:	00088883          	lb	a7,0(a7)
    1106:	0685                	addi	a3,a3,1
    1108:	0821                	addi	a6,a6,8
    110a:	03f888b3          	mul	a7,a7,t6
    110e:	9546                	add	a0,a0,a7
    1110:	ffd695e3          	bne	a3,t4,10fa <_Z25minimum_matmul_single_8x8PaS_S_+0xa4>
    1114:	00e30833          	add	a6,t1,a4
    1118:	00a80023          	sb	a0,0(a6)
    111c:	0705                	addi	a4,a4,1
    111e:	00d70763          	beq	a4,a3,112c <_Z25minimum_matmul_single_8x8PaS_S_+0xd6>
    1122:	00e60833          	add	a6,a2,a4
    1126:	4681                	li	a3,0
    1128:	4501                	li	a0,0
    112a:	bfc1                	j	10fa <_Z25minimum_matmul_single_8x8PaS_S_+0xa4>
    112c:	07a1                	addi	a5,a5,8
    112e:	fde790e3          	bne	a5,t5,10ee <_Z25minimum_matmul_single_8x8PaS_S_+0x98>
    1132:	4781                	li	a5,0
    1134:	04000713          	li	a4,64
    1138:	00f58533          	add	a0,a1,a5
    113c:	00054503          	lbu	a0,0(a0)
    1140:	00f406b3          	add	a3,s0,a5
    1144:	00a68023          	sb	a0,0(a3)
    1148:	00f60533          	add	a0,a2,a5
    114c:	00054503          	lbu	a0,0(a0)
    1150:	00fa86b3          	add	a3,s5,a5
    1154:	00a68023          	sb	a0,0(a3)
    1158:	00fb06b3          	add	a3,s6,a5
    115c:	00068023          	sb	zero,0(a3)
    1160:	0785                	addi	a5,a5,1
    1162:	fce79be3          	bne	a5,a4,1138 <_Z25minimum_matmul_single_8x8PaS_S_+0xe2>
    1166:	001007b7          	lui	a5,0x100
    116a:	8c5d                	or	s0,s0,a5
    116c:	00faeab3          	or	s5,s5,a5
    1170:	0154106b          	msetins1	zero,s0,s5
    1174:	6711                	lui	a4,0x4
    1176:	00fb67b3          	or	a5,s6,a5
    117a:	0705                	addi	a4,a4,1 # 4001 <_Z16vnclip_testcase1v+0xa1>
    117c:	06f7106b          	msetins2	zero,a4,a5
    1180:	4781                	li	a5,0
    1182:	4705                	li	a4,1
    1184:	0ce7906b          	msetins3	zero,a5,a4
    1188:	4401                	li	s0,0
    118a:	10000c37          	lui	s8,0x10000
    118e:	008b07b3          	add	a5,s6,s0
    1192:	00078a83          	lb	s5,0(a5) # 100000 <__rodata_start__+0xf69c0>
    1196:	008b87b3          	add	a5,s7,s0
    119a:	00078703          	lb	a4,0(a5)
    119e:	02ea8963          	beq	s5,a4,11d0 <_Z25minimum_matmul_single_8x8PaS_S_+0x17a>
    11a2:	0b900693          	li	a3,185
    11a6:	43c48613          	addi	a2,s1,1084
    11aa:	3e490593          	addi	a1,s2,996
    11ae:	01498513          	addi	a0,s3,20
    11b2:	c63a                	sw	a4,12(sp)
    11b4:	07b050ef          	jal	6a2e <_Z7printf_PKcz>
    11b8:	4732                	lw	a4,12(sp)
    11ba:	86d6                	mv	a3,s5
    11bc:	8622                	mv	a2,s0
    11be:	4581                	li	a1,0
    11c0:	1d0c0513          	addi	a0,s8,464 # 100001d0 <__rodata_start__+0xfff6b90>
    11c4:	06b050ef          	jal	6a2e <_Z7printf_PKcz>
    11c8:	030a0513          	addi	a0,s4,48
    11cc:	063050ef          	jal	6a2e <_Z7printf_PKcz>
    11d0:	0405                	addi	s0,s0,1
    11d2:	bf75                	j	118e <_Z25minimum_matmul_single_8x8PaS_S_+0x138>

000011d4 <_Z25minimum_pwconv_single_8x8PaS_S_>:
    11d4:	7139                	addi	sp,sp,-64
    11d6:	d256                	sw	s5,36(sp)
    11d8:	d05a                	sw	s6,32(sp)
    11da:	ce5e                	sw	s7,28(sp)
    11dc:	10000b37          	lui	s6,0x10000
    11e0:	10000bb7          	lui	s7,0x10000
    11e4:	10000ab7          	lui	s5,0x10000
    11e8:	0c600693          	li	a3,198
    11ec:	dc22                	sw	s0,56(sp)
    11ee:	da26                	sw	s1,52(sp)
    11f0:	d452                	sw	s4,40(sp)
    11f2:	842a                	mv	s0,a0
    11f4:	84ae                	mv	s1,a1
    11f6:	8a32                	mv	s4,a2
    11f8:	3e4b0593          	addi	a1,s6,996 # 100003e4 <__rodata_start__+0xfff6da4>
    11fc:	458b8613          	addi	a2,s7,1112 # 10000458 <__rodata_start__+0xfff6e18>
    1200:	014a8513          	addi	a0,s5,20 # 10000014 <__rodata_start__+0xfff69d4>
    1204:	de06                	sw	ra,60(sp)
    1206:	d84a                	sw	s2,48(sp)
    1208:	d64e                	sw	s3,44(sp)
    120a:	cc62                	sw	s8,24(sp)
    120c:	ca66                	sw	s9,20(sp)
    120e:	c86a                	sw	s10,16(sp)
    1210:	c66e                	sw	s11,12(sp)
    1212:	01d050ef          	jal	6a2e <_Z7printf_PKcz>
    1216:	10000537          	lui	a0,0x10000
    121a:	47450513          	addi	a0,a0,1140 # 10000474 <__rodata_start__+0xfff6e34>
    121e:	011050ef          	jal	6a2e <_Z7printf_PKcz>
    1222:	10000937          	lui	s2,0x10000
    1226:	03090513          	addi	a0,s2,48 # 10000030 <__rodata_start__+0xfff69f0>
    122a:	005050ef          	jal	6a2e <_Z7printf_PKcz>
    122e:	10003737          	lui	a4,0x10003
    1232:	1e870713          	addi	a4,a4,488 # 100031e8 <_ZZ24minimum_matmul_multi_8x8PaS_S_E4A_sa>
    1236:	4781                	li	a5,0
    1238:	18070513          	addi	a0,a4,384
    123c:	18000693          	li	a3,384
    1240:	00f50633          	add	a2,a0,a5
    1244:	00060583          	lb	a1,0(a2)
    1248:	00f40633          	add	a2,s0,a5
    124c:	0785                	addi	a5,a5,1
    124e:	00b60023          	sb	a1,0(a2)
    1252:	fed797e3          	bne	a5,a3,1240 <_Z25minimum_pwconv_single_8x8PaS_S_+0x6c>
    1256:	4781                	li	a5,0
    1258:	10003537          	lui	a0,0x10003
    125c:	08000613          	li	a2,128
    1260:	26850693          	addi	a3,a0,616 # 10003268 <_ZZ24minimum_matmul_multi_8x8PaS_S_E4B_sa>
    1264:	96be                	add	a3,a3,a5
    1266:	00068583          	lb	a1,0(a3)
    126a:	00f486b3          	add	a3,s1,a5
    126e:	00b68023          	sb	a1,0(a3)
    1272:	00fa06b3          	add	a3,s4,a5
    1276:	00068023          	sb	zero,0(a3)
    127a:	0785                	addi	a5,a5,1
    127c:	fec792e3          	bne	a5,a2,1260 <_Z25minimum_pwconv_single_8x8PaS_S_+0x8c>
    1280:	001007b7          	lui	a5,0x100
    1284:	17fd                	addi	a5,a5,-1 # fffff <__rodata_start__+0xf69bf>
    1286:	8c7d                	and	s0,s0,a5
    1288:	202006b7          	lui	a3,0x20200
    128c:	8c55                	or	s0,s0,a3
    128e:	8cfd                	and	s1,s1,a5
    1290:	101006b7          	lui	a3,0x10100
    1294:	8cd5                	or	s1,s1,a3
    1296:	0094106b          	msetins1	zero,s0,s1
    129a:	00fa77b3          	and	a5,s4,a5
    129e:	021006b7          	lui	a3,0x2100
    12a2:	8fd5                	or	a5,a5,a3
    12a4:	001416b7          	lui	a3,0x141
    12a8:	10268693          	addi	a3,a3,258 # 141102 <__rodata_start__+0x137ac2>
    12ac:	06f6906b          	msetins2	zero,a3,a5
    12b0:	4485                	li	s1,1
    12b2:	4781                	li	a5,0
    12b4:	0c97906b          	msetins3	zero,a5,s1
    12b8:	4401                	li	s0,0
    12ba:	30070993          	addi	s3,a4,768
    12be:	10000db7          	lui	s11,0x10000
    12c2:	04000d13          	li	s10,64
    12c6:	008987b3          	add	a5,s3,s0
    12ca:	008a0cb3          	add	s9,s4,s0
    12ce:	00078c03          	lb	s8,0(a5)
    12d2:	000c8783          	lb	a5,0(s9)
    12d6:	03878963          	beq	a5,s8,1308 <_Z25minimum_pwconv_single_8x8PaS_S_+0x134>
    12da:	13a00693          	li	a3,314
    12de:	458b8613          	addi	a2,s7,1112
    12e2:	3e4b0593          	addi	a1,s6,996
    12e6:	014a8513          	addi	a0,s5,20
    12ea:	744050ef          	jal	6a2e <_Z7printf_PKcz>
    12ee:	000c8683          	lb	a3,0(s9)
    12f2:	8662                	mv	a2,s8
    12f4:	85a2                	mv	a1,s0
    12f6:	13cd8513          	addi	a0,s11,316 # 1000013c <__rodata_start__+0xfff6afc>
    12fa:	734050ef          	jal	6a2e <_Z7printf_PKcz>
    12fe:	03090513          	addi	a0,s2,48
    1302:	72c050ef          	jal	6a2e <_Z7printf_PKcz>
    1306:	4481                	li	s1,0
    1308:	0405                	addi	s0,s0,1
    130a:	fba41ee3          	bne	s0,s10,12c6 <_Z25minimum_pwconv_single_8x8PaS_S_+0xf2>
    130e:	13b00693          	li	a3,315
    1312:	458b8613          	addi	a2,s7,1112
    1316:	3e4b0593          	addi	a1,s6,996
    131a:	014a8513          	addi	a0,s5,20
    131e:	710050ef          	jal	6a2e <_Z7printf_PKcz>
    1322:	c88d                	beqz	s1,1354 <_Z25minimum_pwconv_single_8x8PaS_S_+0x180>
    1324:	10000537          	lui	a0,0x10000
    1328:	23c50513          	addi	a0,a0,572 # 1000023c <__rodata_start__+0xfff6bfc>
    132c:	702050ef          	jal	6a2e <_Z7printf_PKcz>
    1330:	5462                	lw	s0,56(sp)
    1332:	50f2                	lw	ra,60(sp)
    1334:	54d2                	lw	s1,52(sp)
    1336:	59b2                	lw	s3,44(sp)
    1338:	5a22                	lw	s4,40(sp)
    133a:	5a92                	lw	s5,36(sp)
    133c:	5b02                	lw	s6,32(sp)
    133e:	4bf2                	lw	s7,28(sp)
    1340:	4c62                	lw	s8,24(sp)
    1342:	4cd2                	lw	s9,20(sp)
    1344:	4d42                	lw	s10,16(sp)
    1346:	4db2                	lw	s11,12(sp)
    1348:	03090513          	addi	a0,s2,48
    134c:	5942                	lw	s2,48(sp)
    134e:	6121                	addi	sp,sp,64
    1350:	6de0506f          	j	6a2e <_Z7printf_PKcz>
    1354:	10000537          	lui	a0,0x10000
    1358:	25850513          	addi	a0,a0,600 # 10000258 <__rodata_start__+0xfff6c18>
    135c:	bfc1                	j	132c <_Z25minimum_pwconv_single_8x8PaS_S_+0x158>

0000135e <_Z23minimum_conv_single_8x8PaS_S_S_a>:
    135e:	7139                	addi	sp,sp,-64
    1360:	d452                	sw	s4,40(sp)
    1362:	d256                	sw	s5,36(sp)
    1364:	d05a                	sw	s6,32(sp)
    1366:	10000ab7          	lui	s5,0x10000
    136a:	10000b37          	lui	s6,0x10000
    136e:	10000a37          	lui	s4,0x10000
    1372:	da26                	sw	s1,52(sp)
    1374:	d84a                	sw	s2,48(sp)
    1376:	ce5e                	sw	s7,28(sp)
    1378:	cc62                	sw	s8,24(sp)
    137a:	8baa                	mv	s7,a0
    137c:	8c2e                	mv	s8,a1
    137e:	8932                	mv	s2,a2
    1380:	3e4a8593          	addi	a1,s5,996 # 100003e4 <__rodata_start__+0xfff6da4>
    1384:	4dcb0613          	addi	a2,s6,1244 # 100004dc <__rodata_start__+0xfff6e9c>
    1388:	84b6                	mv	s1,a3
    138a:	014a0513          	addi	a0,s4,20 # 10000014 <__rodata_start__+0xfff69d4>
    138e:	13f00693          	li	a3,319
    1392:	de06                	sw	ra,60(sp)
    1394:	dc22                	sw	s0,56(sp)
    1396:	d64e                	sw	s3,44(sp)
    1398:	843a                	mv	s0,a4
    139a:	ca66                	sw	s9,20(sp)
    139c:	c86a                	sw	s10,16(sp)
    139e:	c66e                	sw	s11,12(sp)
    13a0:	68e050ef          	jal	6a2e <_Z7printf_PKcz>
    13a4:	10000537          	lui	a0,0x10000
    13a8:	4f450513          	addi	a0,a0,1268 # 100004f4 <__rodata_start__+0xfff6eb4>
    13ac:	682050ef          	jal	6a2e <_Z7printf_PKcz>
    13b0:	100009b7          	lui	s3,0x10000
    13b4:	03098513          	addi	a0,s3,48 # 10000030 <__rodata_start__+0xfff69f0>
    13b8:	676050ef          	jal	6a2e <_Z7printf_PKcz>
    13bc:	100037b7          	lui	a5,0x10003
    13c0:	1e878793          	addi	a5,a5,488 # 100031e8 <_ZZ24minimum_matmul_multi_8x8PaS_S_E4A_sa>
    13c4:	4681                	li	a3,0
    13c6:	34078513          	addi	a0,a5,832
    13ca:	0d800713          	li	a4,216
    13ce:	00d50633          	add	a2,a0,a3
    13d2:	00060583          	lb	a1,0(a2)
    13d6:	00db8633          	add	a2,s7,a3
    13da:	0685                	addi	a3,a3,1
    13dc:	00b60023          	sb	a1,0(a2)
    13e0:	fee697e3          	bne	a3,a4,13ce <_Z23minimum_conv_single_8x8PaS_S_S_a+0x70>
    13e4:	4681                	li	a3,0
    13e6:	41878513          	addi	a0,a5,1048
    13ea:	12000713          	li	a4,288
    13ee:	00d50633          	add	a2,a0,a3
    13f2:	00060583          	lb	a1,0(a2)
    13f6:	00dc0633          	add	a2,s8,a3
    13fa:	00b60023          	sb	a1,0(a2)
    13fe:	00d90633          	add	a2,s2,a3
    1402:	00060023          	sb	zero,0(a2)
    1406:	0685                	addi	a3,a3,1
    1408:	fee693e3          	bne	a3,a4,13ee <_Z23minimum_conv_single_8x8PaS_S_S_a+0x90>
    140c:	4681                	li	a3,0
    140e:	10004537          	lui	a0,0x10004
    1412:	4621                	li	a2,8
    1414:	7f050713          	addi	a4,a0,2032 # 100047f0 <_ZZ23minimum_conv_single_8x8PaS_S_S_aE4Bias>
    1418:	9736                	add	a4,a4,a3
    141a:	00070583          	lb	a1,0(a4)
    141e:	00d48733          	add	a4,s1,a3
    1422:	0685                	addi	a3,a3,1
    1424:	00b70023          	sb	a1,0(a4)
    1428:	fec696e3          	bne	a3,a2,1414 <_Z23minimum_conv_single_8x8PaS_S_S_a+0xb6>
    142c:	00100737          	lui	a4,0x100
    1430:	177d                	addi	a4,a4,-1 # fffff <__rodata_start__+0xf69bf>
    1432:	00ebfbb3          	and	s7,s7,a4
    1436:	0c3006b7          	lui	a3,0xc300
    143a:	00dbebb3          	or	s7,s7,a3
    143e:	00ec7c33          	and	s8,s8,a4
    1442:	122006b7          	lui	a3,0x12200
    1446:	00dc6c33          	or	s8,s8,a3
    144a:	018b906b          	msetins1	zero,s7,s8
    144e:	00143637          	lui	a2,0x143
    1452:	01041693          	slli	a3,s0,0x10
    1456:	18260613          	addi	a2,a2,386 # 143182 <__rodata_start__+0x139b42>
    145a:	8ed1                	or	a3,a3,a2
    145c:	00e97733          	and	a4,s2,a4
    1460:	02100637          	lui	a2,0x2100
    1464:	8f51                	or	a4,a4,a2
    1466:	06e6906b          	msetins2	zero,a3,a4
    146a:	10000737          	lui	a4,0x10000
    146e:	04a2                	slli	s1,s1,0x8
    1470:	f0070713          	addi	a4,a4,-256 # fffff00 <__rodata_start__+0xfff68c0>
    1474:	8f65                	and	a4,a4,s1
    1476:	4485                	li	s1,1
    1478:	0c97106b          	msetins3	zero,a4,s1
    147c:	ec51                	bnez	s0,1518 <_Z23minimum_conv_single_8x8PaS_S_S_a+0x1ba>
    147e:	53878d13          	addi	s10,a5,1336
    1482:	10000db7          	lui	s11,0x10000
    1486:	04000c93          	li	s9,64
    148a:	008d07b3          	add	a5,s10,s0
    148e:	00890c33          	add	s8,s2,s0
    1492:	00078b83          	lb	s7,0(a5)
    1496:	000c0783          	lb	a5,0(s8)
    149a:	03778963          	beq	a5,s7,14cc <_Z23minimum_conv_single_8x8PaS_S_S_a+0x16e>
    149e:	1cc00693          	li	a3,460
    14a2:	4dcb0613          	addi	a2,s6,1244
    14a6:	3e4a8593          	addi	a1,s5,996
    14aa:	014a0513          	addi	a0,s4,20
    14ae:	580050ef          	jal	6a2e <_Z7printf_PKcz>
    14b2:	000c0683          	lb	a3,0(s8)
    14b6:	865e                	mv	a2,s7
    14b8:	85a2                	mv	a1,s0
    14ba:	13cd8513          	addi	a0,s11,316 # 1000013c <__rodata_start__+0xfff6afc>
    14be:	570050ef          	jal	6a2e <_Z7printf_PKcz>
    14c2:	03098513          	addi	a0,s3,48
    14c6:	568050ef          	jal	6a2e <_Z7printf_PKcz>
    14ca:	4481                	li	s1,0
    14cc:	0405                	addi	s0,s0,1
    14ce:	fb941ee3          	bne	s0,s9,148a <_Z23minimum_conv_single_8x8PaS_S_S_a+0x12c>
    14d2:	1d000693          	li	a3,464
    14d6:	4dcb0613          	addi	a2,s6,1244
    14da:	3e4a8593          	addi	a1,s5,996
    14de:	014a0513          	addi	a0,s4,20
    14e2:	54c050ef          	jal	6a2e <_Z7printf_PKcz>
    14e6:	c4c9                	beqz	s1,1570 <_Z23minimum_conv_single_8x8PaS_S_S_a+0x212>
    14e8:	10000537          	lui	a0,0x10000
    14ec:	49c50513          	addi	a0,a0,1180 # 1000049c <__rodata_start__+0xfff6e5c>
    14f0:	53e050ef          	jal	6a2e <_Z7printf_PKcz>
    14f4:	5462                	lw	s0,56(sp)
    14f6:	50f2                	lw	ra,60(sp)
    14f8:	54d2                	lw	s1,52(sp)
    14fa:	5942                	lw	s2,48(sp)
    14fc:	5a22                	lw	s4,40(sp)
    14fe:	5a92                	lw	s5,36(sp)
    1500:	5b02                	lw	s6,32(sp)
    1502:	4bf2                	lw	s7,28(sp)
    1504:	4c62                	lw	s8,24(sp)
    1506:	4cd2                	lw	s9,20(sp)
    1508:	4d42                	lw	s10,16(sp)
    150a:	4db2                	lw	s11,12(sp)
    150c:	03098513          	addi	a0,s3,48
    1510:	59b2                	lw	s3,44(sp)
    1512:	6121                	addi	sp,sp,64
    1514:	51a0506f          	j	6a2e <_Z7printf_PKcz>
    1518:	4401                	li	s0,0
    151a:	57878b93          	addi	s7,a5,1400
    151e:	10000db7          	lui	s11,0x10000
    1522:	04000d13          	li	s10,64
    1526:	008b87b3          	add	a5,s7,s0
    152a:	00890cb3          	add	s9,s2,s0
    152e:	00078c03          	lb	s8,0(a5)
    1532:	000c8783          	lb	a5,0(s9)
    1536:	03878963          	beq	a5,s8,1568 <_Z23minimum_conv_single_8x8PaS_S_S_a+0x20a>
    153a:	1ce00693          	li	a3,462
    153e:	4dcb0613          	addi	a2,s6,1244
    1542:	3e4a8593          	addi	a1,s5,996
    1546:	014a0513          	addi	a0,s4,20
    154a:	4e4050ef          	jal	6a2e <_Z7printf_PKcz>
    154e:	000c8683          	lb	a3,0(s9)
    1552:	8662                	mv	a2,s8
    1554:	85a2                	mv	a1,s0
    1556:	13cd8513          	addi	a0,s11,316 # 1000013c <__rodata_start__+0xfff6afc>
    155a:	4d4050ef          	jal	6a2e <_Z7printf_PKcz>
    155e:	03098513          	addi	a0,s3,48
    1562:	4cc050ef          	jal	6a2e <_Z7printf_PKcz>
    1566:	4481                	li	s1,0
    1568:	0405                	addi	s0,s0,1
    156a:	fba41ee3          	bne	s0,s10,1526 <_Z23minimum_conv_single_8x8PaS_S_S_a+0x1c8>
    156e:	b795                	j	14d2 <_Z23minimum_conv_single_8x8PaS_S_S_a+0x174>
    1570:	10000537          	lui	a0,0x10000
    1574:	4bc50513          	addi	a0,a0,1212 # 100004bc <__rodata_start__+0xfff6e7c>
    1578:	bfa5                	j	14f0 <_Z23minimum_conv_single_8x8PaS_S_S_a+0x192>

0000157a <_Z25minimum_dwconv_single_8x8PaS_S_S_a>:
    157a:	7139                	addi	sp,sp,-64
    157c:	d64e                	sw	s3,44(sp)
    157e:	d452                	sw	s4,40(sp)
    1580:	d256                	sw	s5,36(sp)
    1582:	10000a37          	lui	s4,0x10000
    1586:	10000ab7          	lui	s5,0x10000
    158a:	100009b7          	lui	s3,0x10000
    158e:	da26                	sw	s1,52(sp)
    1590:	d05a                	sw	s6,32(sp)
    1592:	ce5e                	sw	s7,28(sp)
    1594:	cc62                	sw	s8,24(sp)
    1596:	8baa                	mv	s7,a0
    1598:	8c2e                	mv	s8,a1
    159a:	84b2                	mv	s1,a2
    159c:	3e4a0593          	addi	a1,s4,996 # 100003e4 <__rodata_start__+0xfff6da4>
    15a0:	558a8613          	addi	a2,s5,1368 # 10000558 <__rodata_start__+0xfff6f18>
    15a4:	8b36                	mv	s6,a3
    15a6:	01498513          	addi	a0,s3,20 # 10000014 <__rodata_start__+0xfff69d4>
    15aa:	1d500693          	li	a3,469
    15ae:	de06                	sw	ra,60(sp)
    15b0:	dc22                	sw	s0,56(sp)
    15b2:	d84a                	sw	s2,48(sp)
    15b4:	843a                	mv	s0,a4
    15b6:	ca66                	sw	s9,20(sp)
    15b8:	c86a                	sw	s10,16(sp)
    15ba:	c66e                	sw	s11,12(sp)
    15bc:	472050ef          	jal	6a2e <_Z7printf_PKcz>
    15c0:	10000537          	lui	a0,0x10000
    15c4:	57450513          	addi	a0,a0,1396 # 10000574 <__rodata_start__+0xfff6f34>
    15c8:	466050ef          	jal	6a2e <_Z7printf_PKcz>
    15cc:	10000937          	lui	s2,0x10000
    15d0:	03090513          	addi	a0,s2,48 # 10000030 <__rodata_start__+0xfff69f0>
    15d4:	45a050ef          	jal	6a2e <_Z7printf_PKcz>
    15d8:	10003837          	lui	a6,0x10003
    15dc:	1e880813          	addi	a6,a6,488 # 100031e8 <_ZZ24minimum_matmul_multi_8x8PaS_S_E4A_sa>
    15e0:	4781                	li	a5,0
    15e2:	5b880593          	addi	a1,a6,1464
    15e6:	1b000713          	li	a4,432
    15ea:	00f586b3          	add	a3,a1,a5
    15ee:	00068603          	lb	a2,0(a3) # 12200000 <linker_stack_start+0x21d0010>
    15f2:	00fb86b3          	add	a3,s7,a5
    15f6:	0785                	addi	a5,a5,1
    15f8:	00c68023          	sb	a2,0(a3)
    15fc:	fee797e3          	bne	a5,a4,15ea <_Z25minimum_dwconv_single_8x8PaS_S_S_a+0x70>
    1600:	4781                	li	a5,0
    1602:	76880593          	addi	a1,a6,1896
    1606:	04800713          	li	a4,72
    160a:	00f586b3          	add	a3,a1,a5
    160e:	00068603          	lb	a2,0(a3)
    1612:	00fc06b3          	add	a3,s8,a5
    1616:	00c68023          	sb	a2,0(a3)
    161a:	00f486b3          	add	a3,s1,a5
    161e:	00068023          	sb	zero,0(a3)
    1622:	0785                	addi	a5,a5,1
    1624:	fee793e3          	bne	a5,a4,160a <_Z25minimum_dwconv_single_8x8PaS_S_S_a+0x90>
    1628:	4781                	li	a5,0
    162a:	100045b7          	lui	a1,0x10004
    162e:	46a1                	li	a3,8
    1630:	7f058713          	addi	a4,a1,2032 # 100047f0 <_ZZ23minimum_conv_single_8x8PaS_S_S_aE4Bias>
    1634:	973e                	add	a4,a4,a5
    1636:	00070603          	lb	a2,0(a4)
    163a:	00fb0733          	add	a4,s6,a5
    163e:	0785                	addi	a5,a5,1
    1640:	00c70023          	sb	a2,0(a4)
    1644:	fed796e3          	bne	a5,a3,1630 <_Z25minimum_dwconv_single_8x8PaS_S_S_a+0xb6>
    1648:	001006b7          	lui	a3,0x100
    164c:	fff68713          	addi	a4,a3,-1 # fffff <__rodata_start__+0xf69bf>
    1650:	00ebfbb3          	and	s7,s7,a4
    1654:	06300637          	lui	a2,0x6300
    1658:	00ec7c33          	and	s8,s8,a4
    165c:	00cbebb3          	or	s7,s7,a2
    1660:	00dc6c33          	or	s8,s8,a3
    1664:	018b906b          	msetins1	zero,s7,s8
    1668:	00140693          	addi	a3,s0,1
    166c:	02d7c7b3          	div	a5,a5,a3
    1670:	01041693          	slli	a3,s0,0x10
    1674:	8f65                	and	a4,a4,s1
    1676:	8fd5                	or	a5,a5,a3
    1678:	001846b7          	lui	a3,0x184
    167c:	98068693          	addi	a3,a3,-1664 # 183980 <__rodata_start__+0x17a340>
    1680:	8fd5                	or	a5,a5,a3
    1682:	021006b7          	lui	a3,0x2100
    1686:	8f55                	or	a4,a4,a3
    1688:	06e7906b          	msetins2	zero,a5,a4
    168c:	100007b7          	lui	a5,0x10000
    1690:	0b22                	slli	s6,s6,0x8
    1692:	f0078793          	addi	a5,a5,-256 # fffff00 <__rodata_start__+0xfff68c0>
    1696:	00fb77b3          	and	a5,s6,a5
    169a:	4b05                	li	s6,1
    169c:	0d67906b          	msetins3	zero,a5,s6
    16a0:	ec59                	bnez	s0,173e <_Z25minimum_dwconv_single_8x8PaS_S_S_a+0x1c4>
    16a2:	7b080d13          	addi	s10,a6,1968
    16a6:	10000db7          	lui	s11,0x10000
    16aa:	04000c93          	li	s9,64
    16ae:	008d07b3          	add	a5,s10,s0
    16b2:	00848c33          	add	s8,s1,s0
    16b6:	00078b83          	lb	s7,0(a5)
    16ba:	000c0783          	lb	a5,0(s8)
    16be:	03778963          	beq	a5,s7,16f0 <_Z25minimum_dwconv_single_8x8PaS_S_S_a+0x176>
    16c2:	26d00693          	li	a3,621
    16c6:	558a8613          	addi	a2,s5,1368
    16ca:	3e4a0593          	addi	a1,s4,996
    16ce:	01498513          	addi	a0,s3,20
    16d2:	35c050ef          	jal	6a2e <_Z7printf_PKcz>
    16d6:	000c0683          	lb	a3,0(s8)
    16da:	865e                	mv	a2,s7
    16dc:	85a2                	mv	a1,s0
    16de:	13cd8513          	addi	a0,s11,316 # 1000013c <__rodata_start__+0xfff6afc>
    16e2:	34c050ef          	jal	6a2e <_Z7printf_PKcz>
    16e6:	03090513          	addi	a0,s2,48
    16ea:	344050ef          	jal	6a2e <_Z7printf_PKcz>
    16ee:	4b01                	li	s6,0
    16f0:	0405                	addi	s0,s0,1
    16f2:	fb941ee3          	bne	s0,s9,16ae <_Z25minimum_dwconv_single_8x8PaS_S_S_a+0x134>
    16f6:	27100693          	li	a3,625
    16fa:	558a8613          	addi	a2,s5,1368
    16fe:	3e4a0593          	addi	a1,s4,996
    1702:	01498513          	addi	a0,s3,20
    1706:	328050ef          	jal	6a2e <_Z7printf_PKcz>
    170a:	080b0663          	beqz	s6,1796 <_Z25minimum_dwconv_single_8x8PaS_S_S_a+0x21c>
    170e:	10000537          	lui	a0,0x10000
    1712:	51850513          	addi	a0,a0,1304 # 10000518 <__rodata_start__+0xfff6ed8>
    1716:	318050ef          	jal	6a2e <_Z7printf_PKcz>
    171a:	5462                	lw	s0,56(sp)
    171c:	50f2                	lw	ra,60(sp)
    171e:	54d2                	lw	s1,52(sp)
    1720:	59b2                	lw	s3,44(sp)
    1722:	5a22                	lw	s4,40(sp)
    1724:	5a92                	lw	s5,36(sp)
    1726:	5b02                	lw	s6,32(sp)
    1728:	4bf2                	lw	s7,28(sp)
    172a:	4c62                	lw	s8,24(sp)
    172c:	4cd2                	lw	s9,20(sp)
    172e:	4d42                	lw	s10,16(sp)
    1730:	4db2                	lw	s11,12(sp)
    1732:	03090513          	addi	a0,s2,48
    1736:	5942                	lw	s2,48(sp)
    1738:	6121                	addi	sp,sp,64
    173a:	2f40506f          	j	6a2e <_Z7printf_PKcz>
    173e:	4401                	li	s0,0
    1740:	7f080b93          	addi	s7,a6,2032
    1744:	10000db7          	lui	s11,0x10000
    1748:	04000d13          	li	s10,64
    174c:	008b87b3          	add	a5,s7,s0
    1750:	00848cb3          	add	s9,s1,s0
    1754:	00078c03          	lb	s8,0(a5)
    1758:	000c8783          	lb	a5,0(s9)
    175c:	03878963          	beq	a5,s8,178e <_Z25minimum_dwconv_single_8x8PaS_S_S_a+0x214>
    1760:	26f00693          	li	a3,623
    1764:	558a8613          	addi	a2,s5,1368
    1768:	3e4a0593          	addi	a1,s4,996
    176c:	01498513          	addi	a0,s3,20
    1770:	2be050ef          	jal	6a2e <_Z7printf_PKcz>
    1774:	000c8683          	lb	a3,0(s9)
    1778:	8662                	mv	a2,s8
    177a:	85a2                	mv	a1,s0
    177c:	13cd8513          	addi	a0,s11,316 # 1000013c <__rodata_start__+0xfff6afc>
    1780:	2ae050ef          	jal	6a2e <_Z7printf_PKcz>
    1784:	03090513          	addi	a0,s2,48
    1788:	2a6050ef          	jal	6a2e <_Z7printf_PKcz>
    178c:	4b01                	li	s6,0
    178e:	0405                	addi	s0,s0,1
    1790:	fba41ee3          	bne	s0,s10,174c <_Z25minimum_dwconv_single_8x8PaS_S_S_a+0x1d2>
    1794:	b78d                	j	16f6 <_Z25minimum_dwconv_single_8x8PaS_S_S_a+0x17c>
    1796:	10000537          	lui	a0,0x10000
    179a:	53850513          	addi	a0,a0,1336 # 10000538 <__rodata_start__+0xfff6ef8>
    179e:	bfa5                	j	1716 <_Z25minimum_dwconv_single_8x8PaS_S_S_a+0x19c>

000017a0 <_Z17sau_benchmark_8x8PaS_S_S_>:
    17a0:	7179                	addi	sp,sp,-48
    17a2:	ca56                	sw	s5,20(sp)
    17a4:	c85a                	sw	s6,16(sp)
    17a6:	c65e                	sw	s7,12(sp)
    17a8:	10000b37          	lui	s6,0x10000
    17ac:	10000bb7          	lui	s7,0x10000
    17b0:	10000ab7          	lui	s5,0x10000
    17b4:	d422                	sw	s0,40(sp)
    17b6:	d226                	sw	s1,36(sp)
    17b8:	d04a                	sw	s2,32(sp)
    17ba:	ce4e                	sw	s3,28(sp)
    17bc:	842a                	mv	s0,a0
    17be:	84ae                	mv	s1,a1
    17c0:	8932                	mv	s2,a2
    17c2:	89b6                	mv	s3,a3
    17c4:	59cb8613          	addi	a2,s7,1436 # 1000059c <__rodata_start__+0xfff6f5c>
    17c8:	27600693          	li	a3,630
    17cc:	3e4b0593          	addi	a1,s6,996 # 100003e4 <__rodata_start__+0xfff6da4>
    17d0:	014a8513          	addi	a0,s5,20 # 10000014 <__rodata_start__+0xfff69d4>
    17d4:	d606                	sw	ra,44(sp)
    17d6:	cc52                	sw	s4,24(sp)
    17d8:	256050ef          	jal	6a2e <_Z7printf_PKcz>
    17dc:	10000537          	lui	a0,0x10000
    17e0:	3a050513          	addi	a0,a0,928 # 100003a0 <__rodata_start__+0xfff6d60>
    17e4:	24a050ef          	jal	6a2e <_Z7printf_PKcz>
    17e8:	10000a37          	lui	s4,0x10000
    17ec:	030a0513          	addi	a0,s4,48 # 10000030 <__rodata_start__+0xfff69f0>
    17f0:	23e050ef          	jal	6a2e <_Z7printf_PKcz>
    17f4:	864a                	mv	a2,s2
    17f6:	85a6                	mv	a1,s1
    17f8:	8522                	mv	a0,s0
    17fa:	ec8ff0ef          	jal	ec2 <_Z24minimum_matmul_multi_8x8PaS_S_>
    17fe:	864a                	mv	a2,s2
    1800:	85a6                	mv	a1,s1
    1802:	8522                	mv	a0,s0
    1804:	3ac1                	jal	11d4 <_Z25minimum_pwconv_single_8x8PaS_S_>
    1806:	86ce                	mv	a3,s3
    1808:	864a                	mv	a2,s2
    180a:	85a6                	mv	a1,s1
    180c:	8522                	mv	a0,s0
    180e:	4701                	li	a4,0
    1810:	36b9                	jal	135e <_Z23minimum_conv_single_8x8PaS_S_S_a>
    1812:	86ce                	mv	a3,s3
    1814:	864a                	mv	a2,s2
    1816:	85a6                	mv	a1,s1
    1818:	8522                	mv	a0,s0
    181a:	4705                	li	a4,1
    181c:	3689                	jal	135e <_Z23minimum_conv_single_8x8PaS_S_S_a>
    181e:	86ce                	mv	a3,s3
    1820:	864a                	mv	a2,s2
    1822:	85a6                	mv	a1,s1
    1824:	8522                	mv	a0,s0
    1826:	4701                	li	a4,0
    1828:	3b89                	jal	157a <_Z25minimum_dwconv_single_8x8PaS_S_S_a>
    182a:	4705                	li	a4,1
    182c:	86ce                	mv	a3,s3
    182e:	864a                	mv	a2,s2
    1830:	85a6                	mv	a1,s1
    1832:	8522                	mv	a0,s0
    1834:	3399                	jal	157a <_Z25minimum_dwconv_single_8x8PaS_S_S_a>
    1836:	59cb8613          	addi	a2,s7,1436
    183a:	3e4b0593          	addi	a1,s6,996
    183e:	28200693          	li	a3,642
    1842:	014a8513          	addi	a0,s5,20
    1846:	1e8050ef          	jal	6a2e <_Z7printf_PKcz>
    184a:	10000537          	lui	a0,0x10000
    184e:	3b850513          	addi	a0,a0,952 # 100003b8 <__rodata_start__+0xfff6d78>
    1852:	1dc050ef          	jal	6a2e <_Z7printf_PKcz>
    1856:	5422                	lw	s0,40(sp)
    1858:	50b2                	lw	ra,44(sp)
    185a:	5492                	lw	s1,36(sp)
    185c:	5902                	lw	s2,32(sp)
    185e:	49f2                	lw	s3,28(sp)
    1860:	4ad2                	lw	s5,20(sp)
    1862:	4b42                	lw	s6,16(sp)
    1864:	4bb2                	lw	s7,12(sp)
    1866:	030a0513          	addi	a0,s4,48
    186a:	4a62                	lw	s4,24(sp)
    186c:	6145                	addi	sp,sp,48
    186e:	1c00506f          	j	6a2e <_Z7printf_PKcz>

00001872 <_Z27matrix_csr_set_test_8x8_16bv>:
    1872:	1101                	addi	sp,sp,-32
    1874:	c84a                	sw	s2,16(sp)
    1876:	c64e                	sw	s3,12(sp)
    1878:	c452                	sw	s4,8(sp)
    187a:	100009b7          	lui	s3,0x10000
    187e:	10000a37          	lui	s4,0x10000
    1882:	10000937          	lui	s2,0x10000
    1886:	46a1                	li	a3,8
    1888:	5b0a0613          	addi	a2,s4,1456 # 100005b0 <__rodata_start__+0xfff6f70>
    188c:	5cc98593          	addi	a1,s3,1484 # 100005cc <__rodata_start__+0xfff6f8c>
    1890:	01490513          	addi	a0,s2,20 # 10000014 <__rodata_start__+0xfff69d4>
    1894:	ce06                	sw	ra,28(sp)
    1896:	ca26                	sw	s1,20(sp)
    1898:	cc22                	sw	s0,24(sp)
    189a:	c256                	sw	s5,4(sp)
    189c:	192050ef          	jal	6a2e <_Z7printf_PKcz>
    18a0:	10000537          	lui	a0,0x10000
    18a4:	06c50513          	addi	a0,a0,108 # 1000006c <__rodata_start__+0xfff6a2c>
    18a8:	186050ef          	jal	6a2e <_Z7printf_PKcz>
    18ac:	100004b7          	lui	s1,0x10000
    18b0:	03048513          	addi	a0,s1,48 # 10000030 <__rodata_start__+0xfff69f0>
    18b4:	17a050ef          	jal	6a2e <_Z7printf_PKcz>
    18b8:	10144737          	lui	a4,0x10144
    18bc:	40070793          	addi	a5,a4,1024 # 10144400 <linker_stack_start+0x114410>
    18c0:	00f7106b          	msetins1	zero,a4,a5
    18c4:	6791                	lui	a5,0x4
    18c6:	10145737          	lui	a4,0x10145
    18ca:	0785                	addi	a5,a5,1 # 4001 <_Z16vnclip_testcase1v+0xa1>
    18cc:	80070713          	addi	a4,a4,-2048 # 10144800 <linker_stack_start+0x114810>
    18d0:	06e7906b          	msetins2	zero,a5,a4
    18d4:	4581                	li	a1,0
    18d6:	4a85                	li	s5,1
    18d8:	0d55906b          	msetins3	zero,a1,s5
    18dc:	0e00146b          	mgetins3lsb	s0,zero,zero
    18e0:	05540a63          	beq	s0,s5,1934 <_Z27matrix_csr_set_test_8x8_16bv+0xc2>
    18e4:	46e1                	li	a3,24
    18e6:	5b0a0613          	addi	a2,s4,1456
    18ea:	5cc98593          	addi	a1,s3,1484
    18ee:	01490513          	addi	a0,s2,20
    18f2:	13c050ef          	jal	6a2e <_Z7printf_PKcz>
    18f6:	10000537          	lui	a0,0x10000
    18fa:	85a2                	mv	a1,s0
    18fc:	08c50513          	addi	a0,a0,140 # 1000008c <__rodata_start__+0xfff6a4c>
    1900:	12e050ef          	jal	6a2e <_Z7printf_PKcz>
    1904:	03048513          	addi	a0,s1,48
    1908:	126050ef          	jal	6a2e <_Z7printf_PKcz>
    190c:	46e5                	li	a3,25
    190e:	5b0a0613          	addi	a2,s4,1456
    1912:	5cc98593          	addi	a1,s3,1484
    1916:	01490513          	addi	a0,s2,20
    191a:	114050ef          	jal	6a2e <_Z7printf_PKcz>
    191e:	10000537          	lui	a0,0x10000
    1922:	85d6                	mv	a1,s5
    1924:	09450513          	addi	a0,a0,148 # 10000094 <__rodata_start__+0xfff6a54>
    1928:	106050ef          	jal	6a2e <_Z7printf_PKcz>
    192c:	03048513          	addi	a0,s1,48
    1930:	0fe050ef          	jal	6a2e <_Z7printf_PKcz>
    1934:	5b0a0613          	addi	a2,s4,1456
    1938:	5cc98593          	addi	a1,s3,1484
    193c:	46ed                	li	a3,27
    193e:	01490513          	addi	a0,s2,20
    1942:	0ec050ef          	jal	6a2e <_Z7printf_PKcz>
    1946:	10000537          	lui	a0,0x10000
    194a:	0ac50513          	addi	a0,a0,172 # 100000ac <__rodata_start__+0xfff6a6c>
    194e:	0e0050ef          	jal	6a2e <_Z7printf_PKcz>
    1952:	4462                	lw	s0,24(sp)
    1954:	40f2                	lw	ra,28(sp)
    1956:	4942                	lw	s2,16(sp)
    1958:	49b2                	lw	s3,12(sp)
    195a:	4a22                	lw	s4,8(sp)
    195c:	4a92                	lw	s5,4(sp)
    195e:	03048513          	addi	a0,s1,48
    1962:	44d2                	lw	s1,20(sp)
    1964:	6105                	addi	sp,sp,32
    1966:	0c80506f          	j	6a2e <_Z7printf_PKcz>

0000196a <_Z28minimum_matmul_multi_8x8_16bPsPaS_>:
    196a:	7179                	addi	sp,sp,-48
    196c:	cc52                	sw	s4,24(sp)
    196e:	ca56                	sw	s5,20(sp)
    1970:	c85a                	sw	s6,16(sp)
    1972:	10000ab7          	lui	s5,0x10000
    1976:	10000b37          	lui	s6,0x10000
    197a:	10000a37          	lui	s4,0x10000
    197e:	46fd                	li	a3,31
    1980:	d422                	sw	s0,40(sp)
    1982:	d226                	sw	s1,36(sp)
    1984:	d04a                	sw	s2,32(sp)
    1986:	84aa                	mv	s1,a0
    1988:	892e                	mv	s2,a1
    198a:	8432                	mv	s0,a2
    198c:	5cca8593          	addi	a1,s5,1484 # 100005cc <__rodata_start__+0xfff6f8c>
    1990:	630b0613          	addi	a2,s6,1584 # 10000630 <__rodata_start__+0xfff6ff0>
    1994:	014a0513          	addi	a0,s4,20 # 10000014 <__rodata_start__+0xfff69d4>
    1998:	d606                	sw	ra,44(sp)
    199a:	ce4e                	sw	s3,28(sp)
    199c:	c65e                	sw	s7,12(sp)
    199e:	c462                	sw	s8,8(sp)
    19a0:	c266                	sw	s9,4(sp)
    19a2:	c06a                	sw	s10,0(sp)
    19a4:	08a050ef          	jal	6a2e <_Z7printf_PKcz>
    19a8:	10000537          	lui	a0,0x10000
    19ac:	65050513          	addi	a0,a0,1616 # 10000650 <__rodata_start__+0xfff7010>
    19b0:	07e050ef          	jal	6a2e <_Z7printf_PKcz>
    19b4:	100009b7          	lui	s3,0x10000
    19b8:	03098513          	addi	a0,s3,48 # 10000030 <__rodata_start__+0xfff69f0>
    19bc:	072050ef          	jal	6a2e <_Z7printf_PKcz>
    19c0:	4701                	li	a4,0
    19c2:	100046b7          	lui	a3,0x10004
    19c6:	10000613          	li	a2,256
    19ca:	a1868793          	addi	a5,a3,-1512 # 10003a18 <_ZZ28minimum_matmul_multi_8x8_16bPsPaS_E4A_sa>
    19ce:	97ba                	add	a5,a5,a4
    19d0:	00079583          	lh	a1,0(a5)
    19d4:	00e487b3          	add	a5,s1,a4
    19d8:	0709                	addi	a4,a4,2
    19da:	00b79023          	sh	a1,0(a5)
    19de:	a1868793          	addi	a5,a3,-1512
    19e2:	fec714e3          	bne	a4,a2,19ca <_Z28minimum_matmul_multi_8x8_16bPsPaS_+0x60>
    19e6:	4701                	li	a4,0
    19e8:	10078513          	addi	a0,a5,256
    19ec:	08000693          	li	a3,128
    19f0:	00e50633          	add	a2,a0,a4
    19f4:	00060583          	lb	a1,0(a2) # 6300000 <__rodata_start__+0x62f69c0>
    19f8:	00e90633          	add	a2,s2,a4
    19fc:	0705                	addi	a4,a4,1
    19fe:	00b60023          	sb	a1,0(a2)
    1a02:	fed717e3          	bne	a4,a3,19f0 <_Z28minimum_matmul_multi_8x8_16bPsPaS_+0x86>
    1a06:	8ba2                	mv	s7,s0
    1a08:	08040693          	addi	a3,s0,128
    1a0c:	8722                	mv	a4,s0
    1a0e:	00071023          	sh	zero,0(a4)
    1a12:	0709                	addi	a4,a4,2
    1a14:	fed71de3          	bne	a4,a3,1a0e <_Z28minimum_matmul_multi_8x8_16bPsPaS_+0xa4>
    1a18:	00100737          	lui	a4,0x100
    1a1c:	177d                	addi	a4,a4,-1 # fffff <__rodata_start__+0xf69bf>
    1a1e:	8cf9                	and	s1,s1,a4
    1a20:	004006b7          	lui	a3,0x400
    1a24:	8cd5                	or	s1,s1,a3
    1a26:	00e97933          	and	s2,s2,a4
    1a2a:	101006b7          	lui	a3,0x10100
    1a2e:	00d96933          	or	s2,s2,a3
    1a32:	0124906b          	msetins1	zero,s1,s2
    1a36:	8c79                	and	s0,s0,a4
    1a38:	02200737          	lui	a4,0x2200
    1a3c:	8c59                	or	s0,s0,a4
    1a3e:	00164737          	lui	a4,0x164
    1a42:	0709                	addi	a4,a4,2 # 164002 <__rodata_start__+0x15a9c2>
    1a44:	0687106b          	msetins2	zero,a4,s0
    1a48:	4485                	li	s1,1
    1a4a:	4701                	li	a4,0
    1a4c:	0c97106b          	msetins3	zero,a4,s1
    1a50:	18078413          	addi	s0,a5,384
    1a54:	4901                	li	s2,0
    1a56:	10000d37          	lui	s10,0x10000
    1a5a:	04000c93          	li	s9,64
    1a5e:	00041c03          	lh	s8,0(s0)
    1a62:	000b9783          	lh	a5,0(s7)
    1a66:	03878963          	beq	a5,s8,1a98 <_Z28minimum_matmul_multi_8x8_16bPsPaS_+0x12e>
    1a6a:	06100693          	li	a3,97
    1a6e:	630b0613          	addi	a2,s6,1584
    1a72:	5cca8593          	addi	a1,s5,1484
    1a76:	014a0513          	addi	a0,s4,20
    1a7a:	7b5040ef          	jal	6a2e <_Z7printf_PKcz>
    1a7e:	000b9683          	lh	a3,0(s7)
    1a82:	8662                	mv	a2,s8
    1a84:	85ca                	mv	a1,s2
    1a86:	13cd0513          	addi	a0,s10,316 # 1000013c <__rodata_start__+0xfff6afc>
    1a8a:	7a5040ef          	jal	6a2e <_Z7printf_PKcz>
    1a8e:	03098513          	addi	a0,s3,48
    1a92:	79d040ef          	jal	6a2e <_Z7printf_PKcz>
    1a96:	4481                	li	s1,0
    1a98:	0905                	addi	s2,s2,1
    1a9a:	0b89                	addi	s7,s7,2
    1a9c:	0409                	addi	s0,s0,2
    1a9e:	fd9910e3          	bne	s2,s9,1a5e <_Z28minimum_matmul_multi_8x8_16bPsPaS_+0xf4>
    1aa2:	06200693          	li	a3,98
    1aa6:	630b0613          	addi	a2,s6,1584
    1aaa:	5cca8593          	addi	a1,s5,1484
    1aae:	014a0513          	addi	a0,s4,20
    1ab2:	77d040ef          	jal	6a2e <_Z7printf_PKcz>
    1ab6:	c885                	beqz	s1,1ae6 <_Z28minimum_matmul_multi_8x8_16bPsPaS_+0x17c>
    1ab8:	10000537          	lui	a0,0x10000
    1abc:	5e850513          	addi	a0,a0,1512 # 100005e8 <__rodata_start__+0xfff6fa8>
    1ac0:	76f040ef          	jal	6a2e <_Z7printf_PKcz>
    1ac4:	5422                	lw	s0,40(sp)
    1ac6:	50b2                	lw	ra,44(sp)
    1ac8:	5492                	lw	s1,36(sp)
    1aca:	5902                	lw	s2,32(sp)
    1acc:	4a62                	lw	s4,24(sp)
    1ace:	4ad2                	lw	s5,20(sp)
    1ad0:	4b42                	lw	s6,16(sp)
    1ad2:	4bb2                	lw	s7,12(sp)
    1ad4:	4c22                	lw	s8,8(sp)
    1ad6:	4c92                	lw	s9,4(sp)
    1ad8:	4d02                	lw	s10,0(sp)
    1ada:	03098513          	addi	a0,s3,48
    1ade:	49f2                	lw	s3,28(sp)
    1ae0:	6145                	addi	sp,sp,48
    1ae2:	74d0406f          	j	6a2e <_Z7printf_PKcz>
    1ae6:	10000537          	lui	a0,0x10000
    1aea:	60c50513          	addi	a0,a0,1548 # 1000060c <__rodata_start__+0xfff6fcc>
    1aee:	bfc9                	j	1ac0 <_Z28minimum_matmul_multi_8x8_16bPsPaS_+0x156>

00001af0 <_Z29minimum_matmul_single_8x8_16bPaS_S_>:
    1af0:	7111                	addi	sp,sp,-256
    1af2:	dba6                	sw	s1,244(sp)
    1af4:	d9ca                	sw	s2,240(sp)
    1af6:	d7ce                	sw	s3,236(sp)
    1af8:	100004b7          	lui	s1,0x10000
    1afc:	10000937          	lui	s2,0x10000
    1b00:	100009b7          	lui	s3,0x10000
    1b04:	06800693          	li	a3,104
    1b08:	dda2                	sw	s0,248(sp)
    1b0a:	d3d6                	sw	s5,228(sp)
    1b0c:	d1da                	sw	s6,224(sp)
    1b0e:	842a                	mv	s0,a0
    1b10:	8aae                	mv	s5,a1
    1b12:	8b32                	mv	s6,a2
    1b14:	5cc90593          	addi	a1,s2,1484 # 100005cc <__rodata_start__+0xfff6f8c>
    1b18:	67c48613          	addi	a2,s1,1660 # 1000067c <__rodata_start__+0xfff703c>
    1b1c:	01498513          	addi	a0,s3,20 # 10000014 <__rodata_start__+0xfff69d4>
    1b20:	df86                	sw	ra,252(sp)
    1b22:	d5d2                	sw	s4,232(sp)
    1b24:	cfde                	sw	s7,220(sp)
    1b26:	cde2                	sw	s8,216(sp)
    1b28:	707040ef          	jal	6a2e <_Z7printf_PKcz>
    1b2c:	10000537          	lui	a0,0x10000
    1b30:	65050513          	addi	a0,a0,1616 # 10000650 <__rodata_start__+0xfff7010>
    1b34:	6fb040ef          	jal	6a2e <_Z7printf_PKcz>
    1b38:	10000a37          	lui	s4,0x10000
    1b3c:	030a0513          	addi	a0,s4,48 # 10000030 <__rodata_start__+0xfff69f0>
    1b40:	6ef040ef          	jal	6a2e <_Z7printf_PKcz>
    1b44:	4781                	li	a5,0
    1b46:	080c                	addi	a1,sp,16
    1b48:	0890                	addi	a2,sp,80
    1b4a:	07f00513          	li	a0,127
    1b4e:	04000813          	li	a6,64
    1b52:	00878693          	addi	a3,a5,8
    1b56:	0ff7f713          	zext.b	a4,a5
    1b5a:	00f588b3          	add	a7,a1,a5
    1b5e:	f8070313          	addi	t1,a4,-128
    1b62:	00688023          	sb	t1,0(a7)
    1b66:	40e50733          	sub	a4,a0,a4
    1b6a:	00f608b3          	add	a7,a2,a5
    1b6e:	00e88023          	sb	a4,0(a7)
    1b72:	0785                	addi	a5,a5,1
    1b74:	fed791e3          	bne	a5,a3,1b56 <_Z29minimum_matmul_single_8x8_16bPaS_S_+0x66>
    1b78:	fd079de3          	bne	a5,a6,1b52 <_Z29minimum_matmul_single_8x8_16bPaS_S_+0x62>
    1b7c:	4781                	li	a5,0
    1b7e:	4ea1                	li	t4,8
    1b80:	09010b93          	addi	s7,sp,144
    1b84:	04000f13          	li	t5,64
    1b88:	4701                	li	a4,0
    1b8a:	00f58e33          	add	t3,a1,a5
    1b8e:	00fb8333          	add	t1,s7,a5
    1b92:	a02d                	j	1bbc <_Z29minimum_matmul_single_8x8_16bPaS_S_+0xcc>
    1b94:	00de08b3          	add	a7,t3,a3
    1b98:	00080f83          	lb	t6,0(a6)
    1b9c:	00088883          	lb	a7,0(a7)
    1ba0:	0685                	addi	a3,a3,1 # 10100001 <linker_stack_start+0xd0011>
    1ba2:	0821                	addi	a6,a6,8
    1ba4:	03f888b3          	mul	a7,a7,t6
    1ba8:	9546                	add	a0,a0,a7
    1baa:	ffd695e3          	bne	a3,t4,1b94 <_Z29minimum_matmul_single_8x8_16bPaS_S_+0xa4>
    1bae:	00e30833          	add	a6,t1,a4
    1bb2:	00a80023          	sb	a0,0(a6)
    1bb6:	0705                	addi	a4,a4,1
    1bb8:	00d70763          	beq	a4,a3,1bc6 <_Z29minimum_matmul_single_8x8_16bPaS_S_+0xd6>
    1bbc:	00e60833          	add	a6,a2,a4
    1bc0:	4681                	li	a3,0
    1bc2:	4501                	li	a0,0
    1bc4:	bfc1                	j	1b94 <_Z29minimum_matmul_single_8x8_16bPaS_S_+0xa4>
    1bc6:	07a1                	addi	a5,a5,8
    1bc8:	fde790e3          	bne	a5,t5,1b88 <_Z29minimum_matmul_single_8x8_16bPaS_S_+0x98>
    1bcc:	4781                	li	a5,0
    1bce:	04000713          	li	a4,64
    1bd2:	00f58533          	add	a0,a1,a5
    1bd6:	00054503          	lbu	a0,0(a0)
    1bda:	00f406b3          	add	a3,s0,a5
    1bde:	00a68023          	sb	a0,0(a3)
    1be2:	00f60533          	add	a0,a2,a5
    1be6:	00054503          	lbu	a0,0(a0)
    1bea:	00fa86b3          	add	a3,s5,a5
    1bee:	00a68023          	sb	a0,0(a3)
    1bf2:	00fb06b3          	add	a3,s6,a5
    1bf6:	00068023          	sb	zero,0(a3)
    1bfa:	0785                	addi	a5,a5,1
    1bfc:	fce79be3          	bne	a5,a4,1bd2 <_Z29minimum_matmul_single_8x8_16bPaS_S_+0xe2>
    1c00:	001007b7          	lui	a5,0x100
    1c04:	8c5d                	or	s0,s0,a5
    1c06:	00faeab3          	or	s5,s5,a5
    1c0a:	0154106b          	msetins1	zero,s0,s5
    1c0e:	6711                	lui	a4,0x4
    1c10:	00fb67b3          	or	a5,s6,a5
    1c14:	0705                	addi	a4,a4,1 # 4001 <_Z16vnclip_testcase1v+0xa1>
    1c16:	06f7106b          	msetins2	zero,a4,a5
    1c1a:	4781                	li	a5,0
    1c1c:	4705                	li	a4,1
    1c1e:	0ce7906b          	msetins3	zero,a5,a4
    1c22:	4401                	li	s0,0
    1c24:	10000c37          	lui	s8,0x10000
    1c28:	008b07b3          	add	a5,s6,s0
    1c2c:	00078a83          	lb	s5,0(a5) # 100000 <__rodata_start__+0xf69c0>
    1c30:	008b87b3          	add	a5,s7,s0
    1c34:	00078703          	lb	a4,0(a5)
    1c38:	02ea8963          	beq	s5,a4,1c6a <_Z29minimum_matmul_single_8x8_16bPaS_S_+0x17a>
    1c3c:	0b800693          	li	a3,184
    1c40:	67c48613          	addi	a2,s1,1660
    1c44:	5cc90593          	addi	a1,s2,1484
    1c48:	01498513          	addi	a0,s3,20
    1c4c:	c63a                	sw	a4,12(sp)
    1c4e:	5e1040ef          	jal	6a2e <_Z7printf_PKcz>
    1c52:	4732                	lw	a4,12(sp)
    1c54:	86d6                	mv	a3,s5
    1c56:	8622                	mv	a2,s0
    1c58:	4581                	li	a1,0
    1c5a:	1d0c0513          	addi	a0,s8,464 # 100001d0 <__rodata_start__+0xfff6b90>
    1c5e:	5d1040ef          	jal	6a2e <_Z7printf_PKcz>
    1c62:	030a0513          	addi	a0,s4,48
    1c66:	5c9040ef          	jal	6a2e <_Z7printf_PKcz>
    1c6a:	0405                	addi	s0,s0,1
    1c6c:	bf75                	j	1c28 <_Z29minimum_matmul_single_8x8_16bPaS_S_+0x138>

00001c6e <_Z29minimum_pwconv_single_8x8_16bPsPaS_>:
    1c6e:	7179                	addi	sp,sp,-48
    1c70:	cc52                	sw	s4,24(sp)
    1c72:	ca56                	sw	s5,20(sp)
    1c74:	c85a                	sw	s6,16(sp)
    1c76:	10000ab7          	lui	s5,0x10000
    1c7a:	10000b37          	lui	s6,0x10000
    1c7e:	10000a37          	lui	s4,0x10000
    1c82:	0c400693          	li	a3,196
    1c86:	d422                	sw	s0,40(sp)
    1c88:	d226                	sw	s1,36(sp)
    1c8a:	d04a                	sw	s2,32(sp)
    1c8c:	84aa                	mv	s1,a0
    1c8e:	892e                	mv	s2,a1
    1c90:	8432                	mv	s0,a2
    1c92:	5cca8593          	addi	a1,s5,1484 # 100005cc <__rodata_start__+0xfff6f8c>
    1c96:	6e4b0613          	addi	a2,s6,1764 # 100006e4 <__rodata_start__+0xfff70a4>
    1c9a:	014a0513          	addi	a0,s4,20 # 10000014 <__rodata_start__+0xfff69d4>
    1c9e:	d606                	sw	ra,44(sp)
    1ca0:	ce4e                	sw	s3,28(sp)
    1ca2:	c65e                	sw	s7,12(sp)
    1ca4:	c462                	sw	s8,8(sp)
    1ca6:	c266                	sw	s9,4(sp)
    1ca8:	c06a                	sw	s10,0(sp)
    1caa:	585040ef          	jal	6a2e <_Z7printf_PKcz>
    1cae:	10000537          	lui	a0,0x10000
    1cb2:	70450513          	addi	a0,a0,1796 # 10000704 <__rodata_start__+0xfff70c4>
    1cb6:	579040ef          	jal	6a2e <_Z7printf_PKcz>
    1cba:	100009b7          	lui	s3,0x10000
    1cbe:	03098513          	addi	a0,s3,48 # 10000030 <__rodata_start__+0xfff69f0>
    1cc2:	56d040ef          	jal	6a2e <_Z7printf_PKcz>
    1cc6:	10004737          	lui	a4,0x10004
    1cca:	a1870693          	addi	a3,a4,-1512 # 10003a18 <_ZZ28minimum_matmul_multi_8x8_16bPsPaS_E4A_sa>
    1cce:	20068693          	addi	a3,a3,512
    1cd2:	4781                	li	a5,0
    1cd4:	a1870713          	addi	a4,a4,-1512
    1cd8:	10004837          	lui	a6,0x10004
    1cdc:	08000593          	li	a1,128
    1ce0:	00069503          	lh	a0,0(a3)
    1ce4:	00179613          	slli	a2,a5,0x1
    1ce8:	9626                	add	a2,a2,s1
    1cea:	00a61023          	sh	a0,0(a2)
    1cee:	b1880613          	addi	a2,a6,-1256 # 10003b18 <_ZZ28minimum_matmul_multi_8x8_16bPsPaS_E4B_sa>
    1cf2:	963e                	add	a2,a2,a5
    1cf4:	00060503          	lb	a0,0(a2)
    1cf8:	00f90633          	add	a2,s2,a5
    1cfc:	0785                	addi	a5,a5,1
    1cfe:	00a60023          	sb	a0,0(a2)
    1d02:	0689                	addi	a3,a3,2
    1d04:	fcb79ee3          	bne	a5,a1,1ce0 <_Z29minimum_pwconv_single_8x8_16bPsPaS_+0x72>
    1d08:	8ba2                	mv	s7,s0
    1d0a:	08040693          	addi	a3,s0,128
    1d0e:	87a2                	mv	a5,s0
    1d10:	00079023          	sh	zero,0(a5)
    1d14:	0789                	addi	a5,a5,2
    1d16:	fed79de3          	bne	a5,a3,1d10 <_Z29minimum_pwconv_single_8x8_16bPsPaS_+0xa2>
    1d1a:	001007b7          	lui	a5,0x100
    1d1e:	17fd                	addi	a5,a5,-1 # fffff <__rodata_start__+0xf69bf>
    1d20:	8cfd                	and	s1,s1,a5
    1d22:	102006b7          	lui	a3,0x10200
    1d26:	8cd5                	or	s1,s1,a3
    1d28:	00f97933          	and	s2,s2,a5
    1d2c:	101006b7          	lui	a3,0x10100
    1d30:	00d96933          	or	s2,s2,a3
    1d34:	0124906b          	msetins1	zero,s1,s2
    1d38:	8c7d                	and	s0,s0,a5
    1d3a:	022007b7          	lui	a5,0x2200
    1d3e:	8c5d                	or	s0,s0,a5
    1d40:	001617b7          	lui	a5,0x161
    1d44:	10278793          	addi	a5,a5,258 # 161102 <__rodata_start__+0x157ac2>
    1d48:	0687906b          	msetins2	zero,a5,s0
    1d4c:	4405                	li	s0,1
    1d4e:	4781                	li	a5,0
    1d50:	0c87906b          	msetins3	zero,a5,s0
    1d54:	30070493          	addi	s1,a4,768
    1d58:	4901                	li	s2,0
    1d5a:	10000d37          	lui	s10,0x10000
    1d5e:	04000c93          	li	s9,64
    1d62:	00049c03          	lh	s8,0(s1)
    1d66:	000b9783          	lh	a5,0(s7)
    1d6a:	03878963          	beq	a5,s8,1d9c <_Z29minimum_pwconv_single_8x8_16bPsPaS_+0x12e>
    1d6e:	12c00693          	li	a3,300
    1d72:	6e4b0613          	addi	a2,s6,1764
    1d76:	5cca8593          	addi	a1,s5,1484
    1d7a:	014a0513          	addi	a0,s4,20
    1d7e:	4b1040ef          	jal	6a2e <_Z7printf_PKcz>
    1d82:	000b9683          	lh	a3,0(s7)
    1d86:	8662                	mv	a2,s8
    1d88:	85ca                	mv	a1,s2
    1d8a:	13cd0513          	addi	a0,s10,316 # 1000013c <__rodata_start__+0xfff6afc>
    1d8e:	4a1040ef          	jal	6a2e <_Z7printf_PKcz>
    1d92:	03098513          	addi	a0,s3,48
    1d96:	499040ef          	jal	6a2e <_Z7printf_PKcz>
    1d9a:	4401                	li	s0,0
    1d9c:	0905                	addi	s2,s2,1
    1d9e:	0b89                	addi	s7,s7,2
    1da0:	0489                	addi	s1,s1,2
    1da2:	fd9910e3          	bne	s2,s9,1d62 <_Z29minimum_pwconv_single_8x8_16bPsPaS_+0xf4>
    1da6:	12d00693          	li	a3,301
    1daa:	6e4b0613          	addi	a2,s6,1764
    1dae:	5cca8593          	addi	a1,s5,1484
    1db2:	014a0513          	addi	a0,s4,20
    1db6:	479040ef          	jal	6a2e <_Z7printf_PKcz>
    1dba:	c805                	beqz	s0,1dea <_Z29minimum_pwconv_single_8x8_16bPsPaS_+0x17c>
    1dbc:	10000537          	lui	a0,0x10000
    1dc0:	69c50513          	addi	a0,a0,1692 # 1000069c <__rodata_start__+0xfff705c>
    1dc4:	46b040ef          	jal	6a2e <_Z7printf_PKcz>
    1dc8:	5422                	lw	s0,40(sp)
    1dca:	50b2                	lw	ra,44(sp)
    1dcc:	5492                	lw	s1,36(sp)
    1dce:	5902                	lw	s2,32(sp)
    1dd0:	4a62                	lw	s4,24(sp)
    1dd2:	4ad2                	lw	s5,20(sp)
    1dd4:	4b42                	lw	s6,16(sp)
    1dd6:	4bb2                	lw	s7,12(sp)
    1dd8:	4c22                	lw	s8,8(sp)
    1dda:	4c92                	lw	s9,4(sp)
    1ddc:	4d02                	lw	s10,0(sp)
    1dde:	03098513          	addi	a0,s3,48
    1de2:	49f2                	lw	s3,28(sp)
    1de4:	6145                	addi	sp,sp,48
    1de6:	4490406f          	j	6a2e <_Z7printf_PKcz>
    1dea:	10000537          	lui	a0,0x10000
    1dee:	6c050513          	addi	a0,a0,1728 # 100006c0 <__rodata_start__+0xfff7080>
    1df2:	bfc9                	j	1dc4 <_Z29minimum_pwconv_single_8x8_16bPsPaS_+0x156>

00001df4 <_Z27minimum_conv_single_8x8_16bPsPaS_S_a>:
    1df4:	7179                	addi	sp,sp,-48
    1df6:	cc52                	sw	s4,24(sp)
    1df8:	ca56                	sw	s5,20(sp)
    1dfa:	c85a                	sw	s6,16(sp)
    1dfc:	10000ab7          	lui	s5,0x10000
    1e00:	10000b37          	lui	s6,0x10000
    1e04:	10000a37          	lui	s4,0x10000
    1e08:	d422                	sw	s0,40(sp)
    1e0a:	d04a                	sw	s2,32(sp)
    1e0c:	c65e                	sw	s7,12(sp)
    1e0e:	c462                	sw	s8,8(sp)
    1e10:	8baa                	mv	s7,a0
    1e12:	8c2e                	mv	s8,a1
    1e14:	8432                	mv	s0,a2
    1e16:	5cca8593          	addi	a1,s5,1484 # 100005cc <__rodata_start__+0xfff6f8c>
    1e1a:	778b0613          	addi	a2,s6,1912 # 10000778 <__rodata_start__+0xfff7138>
    1e1e:	8936                	mv	s2,a3
    1e20:	014a0513          	addi	a0,s4,20 # 10000014 <__rodata_start__+0xfff69d4>
    1e24:	13100693          	li	a3,305
    1e28:	d606                	sw	ra,44(sp)
    1e2a:	d226                	sw	s1,36(sp)
    1e2c:	ce4e                	sw	s3,28(sp)
    1e2e:	84ba                	mv	s1,a4
    1e30:	c266                	sw	s9,4(sp)
    1e32:	c06a                	sw	s10,0(sp)
    1e34:	3fb040ef          	jal	6a2e <_Z7printf_PKcz>
    1e38:	10000537          	lui	a0,0x10000
    1e3c:	79450513          	addi	a0,a0,1940 # 10000794 <__rodata_start__+0xfff7154>
    1e40:	3ef040ef          	jal	6a2e <_Z7printf_PKcz>
    1e44:	100009b7          	lui	s3,0x10000
    1e48:	03098513          	addi	a0,s3,48 # 10000030 <__rodata_start__+0xfff69f0>
    1e4c:	3e3040ef          	jal	6a2e <_Z7printf_PKcz>
    1e50:	100047b7          	lui	a5,0x10004
    1e54:	a1878793          	addi	a5,a5,-1512 # 10003a18 <_ZZ28minimum_matmul_multi_8x8_16bPsPaS_E4A_sa>
    1e58:	4681                	li	a3,0
    1e5a:	38078513          	addi	a0,a5,896
    1e5e:	1b000713          	li	a4,432
    1e62:	00d50633          	add	a2,a0,a3
    1e66:	00061583          	lh	a1,0(a2)
    1e6a:	00db8633          	add	a2,s7,a3
    1e6e:	0689                	addi	a3,a3,2 # 10100002 <linker_stack_start+0xd0012>
    1e70:	00b61023          	sh	a1,0(a2)
    1e74:	fee697e3          	bne	a3,a4,1e62 <_Z27minimum_conv_single_8x8_16bPsPaS_S_a+0x6e>
    1e78:	4681                	li	a3,0
    1e7a:	53078513          	addi	a0,a5,1328
    1e7e:	12000613          	li	a2,288
    1e82:	00d50733          	add	a4,a0,a3
    1e86:	00070583          	lb	a1,0(a4)
    1e8a:	00dc0733          	add	a4,s8,a3
    1e8e:	00b70023          	sb	a1,0(a4)
    1e92:	00169713          	slli	a4,a3,0x1
    1e96:	9722                	add	a4,a4,s0
    1e98:	00071023          	sh	zero,0(a4)
    1e9c:	0685                	addi	a3,a3,1
    1e9e:	fec692e3          	bne	a3,a2,1e82 <_Z27minimum_conv_single_8x8_16bPsPaS_S_a+0x8e>
    1ea2:	4681                	li	a3,0
    1ea4:	65078513          	addi	a0,a5,1616
    1ea8:	4741                	li	a4,16
    1eaa:	00d50633          	add	a2,a0,a3
    1eae:	00061583          	lh	a1,0(a2)
    1eb2:	00d90633          	add	a2,s2,a3
    1eb6:	0689                	addi	a3,a3,2
    1eb8:	00b61023          	sh	a1,0(a2)
    1ebc:	fee697e3          	bne	a3,a4,1eaa <_Z27minimum_conv_single_8x8_16bPsPaS_S_a+0xb6>
    1ec0:	00100737          	lui	a4,0x100
    1ec4:	177d                	addi	a4,a4,-1 # fffff <__rodata_start__+0xf69bf>
    1ec6:	00ebfbb3          	and	s7,s7,a4
    1eca:	0c6006b7          	lui	a3,0xc600
    1ece:	00dbebb3          	or	s7,s7,a3
    1ed2:	00ec7c33          	and	s8,s8,a4
    1ed6:	122006b7          	lui	a3,0x12200
    1eda:	00dc6c33          	or	s8,s8,a3
    1ede:	018b906b          	msetins1	zero,s7,s8
    1ee2:	00163637          	lui	a2,0x163
    1ee6:	01049693          	slli	a3,s1,0x10
    1eea:	18260613          	addi	a2,a2,386 # 163182 <__rodata_start__+0x159b42>
    1eee:	8ed1                	or	a3,a3,a2
    1ef0:	8f61                	and	a4,a4,s0
    1ef2:	02200637          	lui	a2,0x2200
    1ef6:	8f51                	or	a4,a4,a2
    1ef8:	06e6906b          	msetins2	zero,a3,a4
    1efc:	10000737          	lui	a4,0x10000
    1f00:	0922                	slli	s2,s2,0x8
    1f02:	f0070713          	addi	a4,a4,-256 # fffff00 <__rodata_start__+0xfff68c0>
    1f06:	00e97733          	and	a4,s2,a4
    1f0a:	4905                	li	s2,1
    1f0c:	0d27106b          	msetins3	zero,a4,s2
    1f10:	ecc1                	bnez	s1,1fa8 <_Z27minimum_conv_single_8x8_16bPsPaS_S_a+0x1b4>
    1f12:	66078b93          	addi	s7,a5,1632
    1f16:	10000d37          	lui	s10,0x10000
    1f1a:	04000c93          	li	s9,64
    1f1e:	000b9c03          	lh	s8,0(s7)
    1f22:	00041783          	lh	a5,0(s0)
    1f26:	03878963          	beq	a5,s8,1f58 <_Z27minimum_conv_single_8x8_16bPsPaS_S_a+0x164>
    1f2a:	1be00693          	li	a3,446
    1f2e:	778b0613          	addi	a2,s6,1912
    1f32:	5cca8593          	addi	a1,s5,1484
    1f36:	014a0513          	addi	a0,s4,20
    1f3a:	2f5040ef          	jal	6a2e <_Z7printf_PKcz>
    1f3e:	00041683          	lh	a3,0(s0)
    1f42:	8662                	mv	a2,s8
    1f44:	85a6                	mv	a1,s1
    1f46:	13cd0513          	addi	a0,s10,316 # 1000013c <__rodata_start__+0xfff6afc>
    1f4a:	2e5040ef          	jal	6a2e <_Z7printf_PKcz>
    1f4e:	03098513          	addi	a0,s3,48
    1f52:	2dd040ef          	jal	6a2e <_Z7printf_PKcz>
    1f56:	4901                	li	s2,0
    1f58:	0485                	addi	s1,s1,1
    1f5a:	0409                	addi	s0,s0,2
    1f5c:	0b89                	addi	s7,s7,2
    1f5e:	fd9490e3          	bne	s1,s9,1f1e <_Z27minimum_conv_single_8x8_16bPsPaS_S_a+0x12a>
    1f62:	1c200693          	li	a3,450
    1f66:	778b0613          	addi	a2,s6,1912
    1f6a:	5cca8593          	addi	a1,s5,1484
    1f6e:	014a0513          	addi	a0,s4,20
    1f72:	2bd040ef          	jal	6a2e <_Z7printf_PKcz>
    1f76:	08090363          	beqz	s2,1ffc <_Z27minimum_conv_single_8x8_16bPsPaS_S_a+0x208>
    1f7a:	10000537          	lui	a0,0x10000
    1f7e:	73050513          	addi	a0,a0,1840 # 10000730 <__rodata_start__+0xfff70f0>
    1f82:	2ad040ef          	jal	6a2e <_Z7printf_PKcz>
    1f86:	5422                	lw	s0,40(sp)
    1f88:	50b2                	lw	ra,44(sp)
    1f8a:	5492                	lw	s1,36(sp)
    1f8c:	5902                	lw	s2,32(sp)
    1f8e:	4a62                	lw	s4,24(sp)
    1f90:	4ad2                	lw	s5,20(sp)
    1f92:	4b42                	lw	s6,16(sp)
    1f94:	4bb2                	lw	s7,12(sp)
    1f96:	4c22                	lw	s8,8(sp)
    1f98:	4c92                	lw	s9,4(sp)
    1f9a:	4d02                	lw	s10,0(sp)
    1f9c:	03098513          	addi	a0,s3,48
    1fa0:	49f2                	lw	s3,28(sp)
    1fa2:	6145                	addi	sp,sp,48
    1fa4:	28b0406f          	j	6a2e <_Z7printf_PKcz>
    1fa8:	6e078493          	addi	s1,a5,1760
    1fac:	4b81                	li	s7,0
    1fae:	10000d37          	lui	s10,0x10000
    1fb2:	04000c93          	li	s9,64
    1fb6:	00049c03          	lh	s8,0(s1)
    1fba:	00041783          	lh	a5,0(s0)
    1fbe:	03878963          	beq	a5,s8,1ff0 <_Z27minimum_conv_single_8x8_16bPsPaS_S_a+0x1fc>
    1fc2:	1c000693          	li	a3,448
    1fc6:	778b0613          	addi	a2,s6,1912
    1fca:	5cca8593          	addi	a1,s5,1484
    1fce:	014a0513          	addi	a0,s4,20
    1fd2:	25d040ef          	jal	6a2e <_Z7printf_PKcz>
    1fd6:	00041683          	lh	a3,0(s0)
    1fda:	8662                	mv	a2,s8
    1fdc:	85de                	mv	a1,s7
    1fde:	13cd0513          	addi	a0,s10,316 # 1000013c <__rodata_start__+0xfff6afc>
    1fe2:	24d040ef          	jal	6a2e <_Z7printf_PKcz>
    1fe6:	03098513          	addi	a0,s3,48
    1fea:	245040ef          	jal	6a2e <_Z7printf_PKcz>
    1fee:	4901                	li	s2,0
    1ff0:	0b85                	addi	s7,s7,1
    1ff2:	0409                	addi	s0,s0,2
    1ff4:	0489                	addi	s1,s1,2
    1ff6:	fd9b90e3          	bne	s7,s9,1fb6 <_Z27minimum_conv_single_8x8_16bPsPaS_S_a+0x1c2>
    1ffa:	b7a5                	j	1f62 <_Z27minimum_conv_single_8x8_16bPsPaS_S_a+0x16e>
    1ffc:	10000537          	lui	a0,0x10000
    2000:	75450513          	addi	a0,a0,1876 # 10000754 <__rodata_start__+0xfff7114>
    2004:	bfbd                	j	1f82 <_Z27minimum_conv_single_8x8_16bPsPaS_S_a+0x18e>

00002006 <_Z29minimum_dwconv_single_8x8_16bPsPaS_S_a>:
    2006:	7179                	addi	sp,sp,-48
    2008:	ce4e                	sw	s3,28(sp)
    200a:	cc52                	sw	s4,24(sp)
    200c:	ca56                	sw	s5,20(sp)
    200e:	10000a37          	lui	s4,0x10000
    2012:	10001ab7          	lui	s5,0x10001
    2016:	100009b7          	lui	s3,0x10000
    201a:	d422                	sw	s0,40(sp)
    201c:	d226                	sw	s1,36(sp)
    201e:	c462                	sw	s8,8(sp)
    2020:	c266                	sw	s9,4(sp)
    2022:	84aa                	mv	s1,a0
    2024:	8cae                	mv	s9,a1
    2026:	8432                	mv	s0,a2
    2028:	5cca0593          	addi	a1,s4,1484 # 100005cc <__rodata_start__+0xfff6f8c>
    202c:	804a8613          	addi	a2,s5,-2044 # 10000804 <__rodata_start__+0xfff71c4>
    2030:	8c36                	mv	s8,a3
    2032:	01498513          	addi	a0,s3,20 # 10000014 <__rodata_start__+0xfff69d4>
    2036:	1c700693          	li	a3,455
    203a:	d606                	sw	ra,44(sp)
    203c:	d04a                	sw	s2,32(sp)
    203e:	c65e                	sw	s7,12(sp)
    2040:	c85a                	sw	s6,16(sp)
    2042:	8bba                	mv	s7,a4
    2044:	c06a                	sw	s10,0(sp)
    2046:	1e9040ef          	jal	6a2e <_Z7printf_PKcz>
    204a:	10001537          	lui	a0,0x10001
    204e:	82450513          	addi	a0,a0,-2012 # 10000824 <__rodata_start__+0xfff71e4>
    2052:	1dd040ef          	jal	6a2e <_Z7printf_PKcz>
    2056:	10000937          	lui	s2,0x10000
    205a:	03090513          	addi	a0,s2,48 # 10000030 <__rodata_start__+0xfff69f0>
    205e:	1d1040ef          	jal	6a2e <_Z7printf_PKcz>
    2062:	10004737          	lui	a4,0x10004
    2066:	4781                	li	a5,0
    2068:	17870713          	addi	a4,a4,376 # 10004178 <_ZZ29minimum_dwconv_single_8x8_16bPsPaS_S_aE6Active>
    206c:	36000693          	li	a3,864
    2070:	00f70633          	add	a2,a4,a5
    2074:	00061583          	lh	a1,0(a2) # 2200000 <__rodata_start__+0x21f69c0>
    2078:	00f48633          	add	a2,s1,a5
    207c:	0789                	addi	a5,a5,2
    207e:	00b61023          	sh	a1,0(a2)
    2082:	fed797e3          	bne	a5,a3,2070 <_Z29minimum_dwconv_single_8x8_16bPsPaS_S_a+0x6a>
    2086:	10005b37          	lui	s6,0x10005
    208a:	a18b0b13          	addi	s6,s6,-1512 # 10004a18 <__rodata_end__+0x180>
    208e:	4781                	li	a5,0
    2090:	ac0b0593          	addi	a1,s6,-1344
    2094:	04800693          	li	a3,72
    2098:	00f58733          	add	a4,a1,a5
    209c:	00070603          	lb	a2,0(a4)
    20a0:	00fc8733          	add	a4,s9,a5
    20a4:	00c70023          	sb	a2,0(a4)
    20a8:	00179713          	slli	a4,a5,0x1
    20ac:	9722                	add	a4,a4,s0
    20ae:	00071023          	sh	zero,0(a4)
    20b2:	0785                	addi	a5,a5,1
    20b4:	fed792e3          	bne	a5,a3,2098 <_Z29minimum_dwconv_single_8x8_16bPsPaS_S_a+0x92>
    20b8:	4781                	li	a5,0
    20ba:	100045b7          	lui	a1,0x10004
    20be:	46c1                	li	a3,16
    20c0:	06858713          	addi	a4,a1,104 # 10004068 <_ZZ27minimum_conv_single_8x8_16bPsPaS_S_aE4Bias>
    20c4:	973e                	add	a4,a4,a5
    20c6:	00071603          	lh	a2,0(a4)
    20ca:	00fc0733          	add	a4,s8,a5
    20ce:	0789                	addi	a5,a5,2
    20d0:	00c71023          	sh	a2,0(a4)
    20d4:	fed796e3          	bne	a5,a3,20c0 <_Z29minimum_dwconv_single_8x8_16bPsPaS_S_a+0xba>
    20d8:	001007b7          	lui	a5,0x100
    20dc:	fff78713          	addi	a4,a5,-1 # fffff <__rodata_start__+0xf69bf>
    20e0:	8cf9                	and	s1,s1,a4
    20e2:	066006b7          	lui	a3,0x6600
    20e6:	00ecfcb3          	and	s9,s9,a4
    20ea:	8cd5                	or	s1,s1,a3
    20ec:	00fcecb3          	or	s9,s9,a5
    20f0:	0194906b          	msetins1	zero,s1,s9
    20f4:	001b8693          	addi	a3,s7,1
    20f8:	47a1                	li	a5,8
    20fa:	02d7c7b3          	div	a5,a5,a3
    20fe:	010b9693          	slli	a3,s7,0x10
    2102:	8f61                	and	a4,a4,s0
    2104:	8fd5                	or	a5,a5,a3
    2106:	001a46b7          	lui	a3,0x1a4
    210a:	98068693          	addi	a3,a3,-1664 # 1a3980 <__rodata_start__+0x19a340>
    210e:	8fd5                	or	a5,a5,a3
    2110:	022006b7          	lui	a3,0x2200
    2114:	8f55                	or	a4,a4,a3
    2116:	06e7906b          	msetins2	zero,a5,a4
    211a:	100007b7          	lui	a5,0x10000
    211e:	f0078793          	addi	a5,a5,-256 # fffff00 <__rodata_start__+0xfff68c0>
    2122:	0c22                	slli	s8,s8,0x8
    2124:	00fc7c33          	and	s8,s8,a5
    2128:	4485                	li	s1,1
    212a:	0c9c106b          	msetins3	zero,s8,s1
    212e:	080b9c63          	bnez	s7,21c6 <_Z29minimum_dwconv_single_8x8_16bPsPaS_S_a+0x1c0>
    2132:	b08b0b13          	addi	s6,s6,-1272
    2136:	10000d37          	lui	s10,0x10000
    213a:	04000c93          	li	s9,64
    213e:	000b1c03          	lh	s8,0(s6)
    2142:	00041783          	lh	a5,0(s0)
    2146:	03878963          	beq	a5,s8,2178 <_Z29minimum_dwconv_single_8x8_16bPsPaS_S_a+0x172>
    214a:	25f00693          	li	a3,607
    214e:	804a8613          	addi	a2,s5,-2044
    2152:	5cca0593          	addi	a1,s4,1484
    2156:	01498513          	addi	a0,s3,20
    215a:	0d5040ef          	jal	6a2e <_Z7printf_PKcz>
    215e:	00041683          	lh	a3,0(s0)
    2162:	8662                	mv	a2,s8
    2164:	85de                	mv	a1,s7
    2166:	13cd0513          	addi	a0,s10,316 # 1000013c <__rodata_start__+0xfff6afc>
    216a:	0c5040ef          	jal	6a2e <_Z7printf_PKcz>
    216e:	03090513          	addi	a0,s2,48
    2172:	0bd040ef          	jal	6a2e <_Z7printf_PKcz>
    2176:	4481                	li	s1,0
    2178:	0b85                	addi	s7,s7,1
    217a:	0409                	addi	s0,s0,2
    217c:	0b09                	addi	s6,s6,2
    217e:	fd9b90e3          	bne	s7,s9,213e <_Z29minimum_dwconv_single_8x8_16bPsPaS_S_a+0x138>
    2182:	26300693          	li	a3,611
    2186:	804a8613          	addi	a2,s5,-2044
    218a:	5cca0593          	addi	a1,s4,1484
    218e:	01498513          	addi	a0,s3,20
    2192:	09d040ef          	jal	6a2e <_Z7printf_PKcz>
    2196:	c0d1                	beqz	s1,221a <_Z29minimum_dwconv_single_8x8_16bPsPaS_S_a+0x214>
    2198:	10000537          	lui	a0,0x10000
    219c:	7bc50513          	addi	a0,a0,1980 # 100007bc <__rodata_start__+0xfff717c>
    21a0:	08f040ef          	jal	6a2e <_Z7printf_PKcz>
    21a4:	5422                	lw	s0,40(sp)
    21a6:	50b2                	lw	ra,44(sp)
    21a8:	5492                	lw	s1,36(sp)
    21aa:	49f2                	lw	s3,28(sp)
    21ac:	4a62                	lw	s4,24(sp)
    21ae:	4ad2                	lw	s5,20(sp)
    21b0:	4b42                	lw	s6,16(sp)
    21b2:	4bb2                	lw	s7,12(sp)
    21b4:	4c22                	lw	s8,8(sp)
    21b6:	4c92                	lw	s9,4(sp)
    21b8:	4d02                	lw	s10,0(sp)
    21ba:	03090513          	addi	a0,s2,48
    21be:	5902                	lw	s2,32(sp)
    21c0:	6145                	addi	sp,sp,48
    21c2:	06d0406f          	j	6a2e <_Z7printf_PKcz>
    21c6:	b88b0b13          	addi	s6,s6,-1144
    21ca:	4b81                	li	s7,0
    21cc:	10000d37          	lui	s10,0x10000
    21d0:	04000c93          	li	s9,64
    21d4:	000b1c03          	lh	s8,0(s6)
    21d8:	00041783          	lh	a5,0(s0)
    21dc:	03878963          	beq	a5,s8,220e <_Z29minimum_dwconv_single_8x8_16bPsPaS_S_a+0x208>
    21e0:	26100693          	li	a3,609
    21e4:	804a8613          	addi	a2,s5,-2044
    21e8:	5cca0593          	addi	a1,s4,1484
    21ec:	01498513          	addi	a0,s3,20
    21f0:	03f040ef          	jal	6a2e <_Z7printf_PKcz>
    21f4:	00041683          	lh	a3,0(s0)
    21f8:	8662                	mv	a2,s8
    21fa:	85de                	mv	a1,s7
    21fc:	13cd0513          	addi	a0,s10,316 # 1000013c <__rodata_start__+0xfff6afc>
    2200:	02f040ef          	jal	6a2e <_Z7printf_PKcz>
    2204:	03090513          	addi	a0,s2,48
    2208:	027040ef          	jal	6a2e <_Z7printf_PKcz>
    220c:	4481                	li	s1,0
    220e:	0b85                	addi	s7,s7,1
    2210:	0409                	addi	s0,s0,2
    2212:	0b09                	addi	s6,s6,2
    2214:	fd9b90e3          	bne	s7,s9,21d4 <_Z29minimum_dwconv_single_8x8_16bPsPaS_S_a+0x1ce>
    2218:	b7ad                	j	2182 <_Z29minimum_dwconv_single_8x8_16bPsPaS_S_a+0x17c>
    221a:	10000537          	lui	a0,0x10000
    221e:	7e050513          	addi	a0,a0,2016 # 100007e0 <__rodata_start__+0xfff71a0>
    2222:	bfbd                	j	21a0 <_Z29minimum_dwconv_single_8x8_16bPsPaS_S_a+0x19a>

00002224 <_Z21sau_benchmark_8x8_16bPsPaS_S_>:
    2224:	7179                	addi	sp,sp,-48
    2226:	ca56                	sw	s5,20(sp)
    2228:	c85a                	sw	s6,16(sp)
    222a:	c65e                	sw	s7,12(sp)
    222c:	10000b37          	lui	s6,0x10000
    2230:	10001bb7          	lui	s7,0x10001
    2234:	10000ab7          	lui	s5,0x10000
    2238:	d422                	sw	s0,40(sp)
    223a:	d226                	sw	s1,36(sp)
    223c:	d04a                	sw	s2,32(sp)
    223e:	ce4e                	sw	s3,28(sp)
    2240:	842a                	mv	s0,a0
    2242:	84ae                	mv	s1,a1
    2244:	8932                	mv	s2,a2
    2246:	89b6                	mv	s3,a3
    2248:	850b8613          	addi	a2,s7,-1968 # 10000850 <__rodata_start__+0xfff7210>
    224c:	26800693          	li	a3,616
    2250:	5ccb0593          	addi	a1,s6,1484 # 100005cc <__rodata_start__+0xfff6f8c>
    2254:	014a8513          	addi	a0,s5,20 # 10000014 <__rodata_start__+0xfff69d4>
    2258:	d606                	sw	ra,44(sp)
    225a:	cc52                	sw	s4,24(sp)
    225c:	7d2040ef          	jal	6a2e <_Z7printf_PKcz>
    2260:	10000537          	lui	a0,0x10000
    2264:	3a050513          	addi	a0,a0,928 # 100003a0 <__rodata_start__+0xfff6d60>
    2268:	7c6040ef          	jal	6a2e <_Z7printf_PKcz>
    226c:	10000a37          	lui	s4,0x10000
    2270:	030a0513          	addi	a0,s4,48 # 10000030 <__rodata_start__+0xfff69f0>
    2274:	7ba040ef          	jal	6a2e <_Z7printf_PKcz>
    2278:	864a                	mv	a2,s2
    227a:	85a6                	mv	a1,s1
    227c:	8522                	mv	a0,s0
    227e:	eecff0ef          	jal	196a <_Z28minimum_matmul_multi_8x8_16bPsPaS_>
    2282:	864a                	mv	a2,s2
    2284:	85a6                	mv	a1,s1
    2286:	8522                	mv	a0,s0
    2288:	32dd                	jal	1c6e <_Z29minimum_pwconv_single_8x8_16bPsPaS_>
    228a:	86ce                	mv	a3,s3
    228c:	864a                	mv	a2,s2
    228e:	85a6                	mv	a1,s1
    2290:	8522                	mv	a0,s0
    2292:	4701                	li	a4,0
    2294:	3685                	jal	1df4 <_Z27minimum_conv_single_8x8_16bPsPaS_S_a>
    2296:	86ce                	mv	a3,s3
    2298:	864a                	mv	a2,s2
    229a:	85a6                	mv	a1,s1
    229c:	8522                	mv	a0,s0
    229e:	4705                	li	a4,1
    22a0:	3e91                	jal	1df4 <_Z27minimum_conv_single_8x8_16bPsPaS_S_a>
    22a2:	86ce                	mv	a3,s3
    22a4:	864a                	mv	a2,s2
    22a6:	85a6                	mv	a1,s1
    22a8:	8522                	mv	a0,s0
    22aa:	4701                	li	a4,0
    22ac:	3ba9                	jal	2006 <_Z29minimum_dwconv_single_8x8_16bPsPaS_S_a>
    22ae:	4705                	li	a4,1
    22b0:	86ce                	mv	a3,s3
    22b2:	864a                	mv	a2,s2
    22b4:	85a6                	mv	a1,s1
    22b6:	8522                	mv	a0,s0
    22b8:	33b9                	jal	2006 <_Z29minimum_dwconv_single_8x8_16bPsPaS_S_a>
    22ba:	850b8613          	addi	a2,s7,-1968
    22be:	5ccb0593          	addi	a1,s6,1484
    22c2:	27700693          	li	a3,631
    22c6:	014a8513          	addi	a0,s5,20
    22ca:	764040ef          	jal	6a2e <_Z7printf_PKcz>
    22ce:	10000537          	lui	a0,0x10000
    22d2:	3b850513          	addi	a0,a0,952 # 100003b8 <__rodata_start__+0xfff6d78>
    22d6:	758040ef          	jal	6a2e <_Z7printf_PKcz>
    22da:	5422                	lw	s0,40(sp)
    22dc:	50b2                	lw	ra,44(sp)
    22de:	5492                	lw	s1,36(sp)
    22e0:	5902                	lw	s2,32(sp)
    22e2:	49f2                	lw	s3,28(sp)
    22e4:	4ad2                	lw	s5,20(sp)
    22e6:	4b42                	lw	s6,16(sp)
    22e8:	4bb2                	lw	s7,12(sp)
    22ea:	030a0513          	addi	a0,s4,48
    22ee:	4a62                	lw	s4,24(sp)
    22f0:	6145                	addi	sp,sp,48
    22f2:	73c0406f          	j	6a2e <_Z7printf_PKcz>

000022f6 <_Z16vorcsr_testcase1v>:
    22f6:	1101                	addi	sp,sp,-32
    22f8:	c256                	sw	s5,4(sp)
    22fa:	4aa9                	li	s5,10
    22fc:	ce06                	sw	ra,28(sp)
    22fe:	cc22                	sw	s0,24(sp)
    2300:	ca26                	sw	s1,20(sp)
    2302:	c84a                	sw	s2,16(sp)
    2304:	c64e                	sw	s3,12(sp)
    2306:	c452                	sw	s4,8(sp)
    2308:	101aa00b          	vsetcsr	zero,s5,257
    230c:	4a01                	li	s4,0
    230e:	101a3a0b          	vgetcsr	s4,s4,257
    2312:	100019b7          	lui	s3,0x10001
    2316:	10001937          	lui	s2,0x10001
    231a:	100004b7          	lui	s1,0x10000
    231e:	10000437          	lui	s0,0x10000
    2322:	055a0d63          	beq	s4,s5,237c <_Z16vorcsr_testcase1v+0x86>
    2326:	86898613          	addi	a2,s3,-1944 # 10000868 <__rodata_start__+0xfff7228>
    232a:	02800693          	li	a3,40
    232e:	87c90593          	addi	a1,s2,-1924 # 1000087c <__rodata_start__+0xfff723c>
    2332:	01448513          	addi	a0,s1,20 # 10000014 <__rodata_start__+0xfff69d4>
    2336:	6f8040ef          	jal	6a2e <_Z7printf_PKcz>
    233a:	10000537          	lui	a0,0x10000
    233e:	85d2                	mv	a1,s4
    2340:	08c50513          	addi	a0,a0,140 # 1000008c <__rodata_start__+0xfff6a4c>
    2344:	6ea040ef          	jal	6a2e <_Z7printf_PKcz>
    2348:	03040513          	addi	a0,s0,48 # 10000030 <__rodata_start__+0xfff69f0>
    234c:	6e2040ef          	jal	6a2e <_Z7printf_PKcz>
    2350:	02900693          	li	a3,41
    2354:	86898613          	addi	a2,s3,-1944
    2358:	87c90593          	addi	a1,s2,-1924
    235c:	01448513          	addi	a0,s1,20
    2360:	6ce040ef          	jal	6a2e <_Z7printf_PKcz>
    2364:	10001537          	lui	a0,0x10001
    2368:	85d6                	mv	a1,s5
    236a:	89050513          	addi	a0,a0,-1904 # 10000890 <__rodata_start__+0xfff7250>
    236e:	6c0040ef          	jal	6a2e <_Z7printf_PKcz>
    2372:	03040513          	addi	a0,s0,48
    2376:	6b8040ef          	jal	6a2e <_Z7printf_PKcz>
    237a:	9002                	ebreak
    237c:	4aad                	li	s5,11
    237e:	101a878b          	vorcsr	a5,s5,257
    2382:	4a01                	li	s4,0
    2384:	101a3a0b          	vgetcsr	s4,s4,257
    2388:	055a0d63          	beq	s4,s5,23e2 <_Z16vorcsr_testcase1v+0xec>
    238c:	86898613          	addi	a2,s3,-1944
    2390:	02f00693          	li	a3,47
    2394:	87c90593          	addi	a1,s2,-1924
    2398:	01448513          	addi	a0,s1,20
    239c:	692040ef          	jal	6a2e <_Z7printf_PKcz>
    23a0:	10000537          	lui	a0,0x10000
    23a4:	85d2                	mv	a1,s4
    23a6:	08c50513          	addi	a0,a0,140 # 1000008c <__rodata_start__+0xfff6a4c>
    23aa:	684040ef          	jal	6a2e <_Z7printf_PKcz>
    23ae:	03040513          	addi	a0,s0,48
    23b2:	67c040ef          	jal	6a2e <_Z7printf_PKcz>
    23b6:	03000693          	li	a3,48
    23ba:	86898613          	addi	a2,s3,-1944
    23be:	87c90593          	addi	a1,s2,-1924
    23c2:	01448513          	addi	a0,s1,20
    23c6:	668040ef          	jal	6a2e <_Z7printf_PKcz>
    23ca:	10001537          	lui	a0,0x10001
    23ce:	85d6                	mv	a1,s5
    23d0:	89050513          	addi	a0,a0,-1904 # 10000890 <__rodata_start__+0xfff7250>
    23d4:	65a040ef          	jal	6a2e <_Z7printf_PKcz>
    23d8:	03040513          	addi	a0,s0,48
    23dc:	652040ef          	jal	6a2e <_Z7printf_PKcz>
    23e0:	9002                	ebreak
    23e2:	86898613          	addi	a2,s3,-1944
    23e6:	87c90593          	addi	a1,s2,-1924
    23ea:	03300693          	li	a3,51
    23ee:	01448513          	addi	a0,s1,20
    23f2:	63c040ef          	jal	6a2e <_Z7printf_PKcz>
    23f6:	10001537          	lui	a0,0x10001
    23fa:	8ac50513          	addi	a0,a0,-1876 # 100008ac <__rodata_start__+0xfff726c>
    23fe:	630040ef          	jal	6a2e <_Z7printf_PKcz>
    2402:	03040513          	addi	a0,s0,48
    2406:	4462                	lw	s0,24(sp)
    2408:	40f2                	lw	ra,28(sp)
    240a:	44d2                	lw	s1,20(sp)
    240c:	4942                	lw	s2,16(sp)
    240e:	49b2                	lw	s3,12(sp)
    2410:	4a22                	lw	s4,8(sp)
    2412:	4a92                	lw	s5,4(sp)
    2414:	6105                	addi	sp,sp,32
    2416:	6180406f          	j	6a2e <_Z7printf_PKcz>

0000241a <_Z17vandcsr_testcase1v>:
    241a:	1101                	addi	sp,sp,-32
    241c:	c256                	sw	s5,4(sp)
    241e:	4aad                	li	s5,11
    2420:	ce06                	sw	ra,28(sp)
    2422:	cc22                	sw	s0,24(sp)
    2424:	ca26                	sw	s1,20(sp)
    2426:	c84a                	sw	s2,16(sp)
    2428:	c64e                	sw	s3,12(sp)
    242a:	c452                	sw	s4,8(sp)
    242c:	101aa00b          	vsetcsr	zero,s5,257
    2430:	4a01                	li	s4,0
    2432:	101a3a0b          	vgetcsr	s4,s4,257
    2436:	100019b7          	lui	s3,0x10001
    243a:	10001937          	lui	s2,0x10001
    243e:	100004b7          	lui	s1,0x10000
    2442:	10000437          	lui	s0,0x10000
    2446:	055a0d63          	beq	s4,s5,24a0 <_Z17vandcsr_testcase1v+0x86>
    244a:	8bc98613          	addi	a2,s3,-1860 # 100008bc <__rodata_start__+0xfff727c>
    244e:	03e00693          	li	a3,62
    2452:	87c90593          	addi	a1,s2,-1924 # 1000087c <__rodata_start__+0xfff723c>
    2456:	01448513          	addi	a0,s1,20 # 10000014 <__rodata_start__+0xfff69d4>
    245a:	5d4040ef          	jal	6a2e <_Z7printf_PKcz>
    245e:	10000537          	lui	a0,0x10000
    2462:	85d2                	mv	a1,s4
    2464:	08c50513          	addi	a0,a0,140 # 1000008c <__rodata_start__+0xfff6a4c>
    2468:	5c6040ef          	jal	6a2e <_Z7printf_PKcz>
    246c:	03040513          	addi	a0,s0,48 # 10000030 <__rodata_start__+0xfff69f0>
    2470:	5be040ef          	jal	6a2e <_Z7printf_PKcz>
    2474:	03f00693          	li	a3,63
    2478:	8bc98613          	addi	a2,s3,-1860
    247c:	87c90593          	addi	a1,s2,-1924
    2480:	01448513          	addi	a0,s1,20
    2484:	5aa040ef          	jal	6a2e <_Z7printf_PKcz>
    2488:	10001537          	lui	a0,0x10001
    248c:	85d6                	mv	a1,s5
    248e:	89050513          	addi	a0,a0,-1904 # 10000890 <__rodata_start__+0xfff7250>
    2492:	59c040ef          	jal	6a2e <_Z7printf_PKcz>
    2496:	03040513          	addi	a0,s0,48
    249a:	594040ef          	jal	6a2e <_Z7printf_PKcz>
    249e:	9002                	ebreak
    24a0:	4aa9                	li	s5,10
    24a2:	101a978b          	vandcsr	a5,s5,257
    24a6:	4a01                	li	s4,0
    24a8:	101a3a0b          	vgetcsr	s4,s4,257
    24ac:	055a0d63          	beq	s4,s5,2506 <_Z17vandcsr_testcase1v+0xec>
    24b0:	8bc98613          	addi	a2,s3,-1860
    24b4:	04500693          	li	a3,69
    24b8:	87c90593          	addi	a1,s2,-1924
    24bc:	01448513          	addi	a0,s1,20
    24c0:	56e040ef          	jal	6a2e <_Z7printf_PKcz>
    24c4:	10000537          	lui	a0,0x10000
    24c8:	85d2                	mv	a1,s4
    24ca:	08c50513          	addi	a0,a0,140 # 1000008c <__rodata_start__+0xfff6a4c>
    24ce:	560040ef          	jal	6a2e <_Z7printf_PKcz>
    24d2:	03040513          	addi	a0,s0,48
    24d6:	558040ef          	jal	6a2e <_Z7printf_PKcz>
    24da:	04600693          	li	a3,70
    24de:	8bc98613          	addi	a2,s3,-1860
    24e2:	87c90593          	addi	a1,s2,-1924
    24e6:	01448513          	addi	a0,s1,20
    24ea:	544040ef          	jal	6a2e <_Z7printf_PKcz>
    24ee:	10001537          	lui	a0,0x10001
    24f2:	85d6                	mv	a1,s5
    24f4:	89050513          	addi	a0,a0,-1904 # 10000890 <__rodata_start__+0xfff7250>
    24f8:	536040ef          	jal	6a2e <_Z7printf_PKcz>
    24fc:	03040513          	addi	a0,s0,48
    2500:	52e040ef          	jal	6a2e <_Z7printf_PKcz>
    2504:	9002                	ebreak
    2506:	8bc98613          	addi	a2,s3,-1860
    250a:	87c90593          	addi	a1,s2,-1924
    250e:	04900693          	li	a3,73
    2512:	01448513          	addi	a0,s1,20
    2516:	518040ef          	jal	6a2e <_Z7printf_PKcz>
    251a:	10001537          	lui	a0,0x10001
    251e:	8d050513          	addi	a0,a0,-1840 # 100008d0 <__rodata_start__+0xfff7290>
    2522:	50c040ef          	jal	6a2e <_Z7printf_PKcz>
    2526:	03040513          	addi	a0,s0,48
    252a:	4462                	lw	s0,24(sp)
    252c:	40f2                	lw	ra,28(sp)
    252e:	44d2                	lw	s1,20(sp)
    2530:	4942                	lw	s2,16(sp)
    2532:	49b2                	lw	s3,12(sp)
    2534:	4a22                	lw	s4,8(sp)
    2536:	4a92                	lw	s5,4(sp)
    2538:	6105                	addi	sp,sp,32
    253a:	4f40406f          	j	6a2e <_Z7printf_PKcz>

0000253e <_Z17vsetcsr_testcase1v>:
    253e:	1101                	addi	sp,sp,-32
    2540:	c256                	sw	s5,4(sp)
    2542:	4aa9                	li	s5,10
    2544:	ce06                	sw	ra,28(sp)
    2546:	cc22                	sw	s0,24(sp)
    2548:	ca26                	sw	s1,20(sp)
    254a:	c84a                	sw	s2,16(sp)
    254c:	c64e                	sw	s3,12(sp)
    254e:	c452                	sw	s4,8(sp)
    2550:	101aa00b          	vsetcsr	zero,s5,257
    2554:	4a01                	li	s4,0
    2556:	101a3a0b          	vgetcsr	s4,s4,257
    255a:	100019b7          	lui	s3,0x10001
    255e:	10001937          	lui	s2,0x10001
    2562:	100004b7          	lui	s1,0x10000
    2566:	10000437          	lui	s0,0x10000
    256a:	055a0d63          	beq	s4,s5,25c4 <_Z17vsetcsr_testcase1v+0x86>
    256e:	8e098613          	addi	a2,s3,-1824 # 100008e0 <__rodata_start__+0xfff72a0>
    2572:	05400693          	li	a3,84
    2576:	87c90593          	addi	a1,s2,-1924 # 1000087c <__rodata_start__+0xfff723c>
    257a:	01448513          	addi	a0,s1,20 # 10000014 <__rodata_start__+0xfff69d4>
    257e:	4b0040ef          	jal	6a2e <_Z7printf_PKcz>
    2582:	10000537          	lui	a0,0x10000
    2586:	85d2                	mv	a1,s4
    2588:	08c50513          	addi	a0,a0,140 # 1000008c <__rodata_start__+0xfff6a4c>
    258c:	4a2040ef          	jal	6a2e <_Z7printf_PKcz>
    2590:	03040513          	addi	a0,s0,48 # 10000030 <__rodata_start__+0xfff69f0>
    2594:	49a040ef          	jal	6a2e <_Z7printf_PKcz>
    2598:	05500693          	li	a3,85
    259c:	8e098613          	addi	a2,s3,-1824
    25a0:	87c90593          	addi	a1,s2,-1924
    25a4:	01448513          	addi	a0,s1,20
    25a8:	486040ef          	jal	6a2e <_Z7printf_PKcz>
    25ac:	10001537          	lui	a0,0x10001
    25b0:	85d6                	mv	a1,s5
    25b2:	89050513          	addi	a0,a0,-1904 # 10000890 <__rodata_start__+0xfff7250>
    25b6:	478040ef          	jal	6a2e <_Z7printf_PKcz>
    25ba:	03040513          	addi	a0,s0,48
    25be:	470040ef          	jal	6a2e <_Z7printf_PKcz>
    25c2:	9002                	ebreak
    25c4:	4aad                	li	s5,11
    25c6:	101aa00b          	vsetcsr	zero,s5,257
    25ca:	4a01                	li	s4,0
    25cc:	101a3a0b          	vgetcsr	s4,s4,257
    25d0:	055a0d63          	beq	s4,s5,262a <_Z17vsetcsr_testcase1v+0xec>
    25d4:	8e098613          	addi	a2,s3,-1824
    25d8:	05b00693          	li	a3,91
    25dc:	87c90593          	addi	a1,s2,-1924
    25e0:	01448513          	addi	a0,s1,20
    25e4:	44a040ef          	jal	6a2e <_Z7printf_PKcz>
    25e8:	10000537          	lui	a0,0x10000
    25ec:	85d2                	mv	a1,s4
    25ee:	08c50513          	addi	a0,a0,140 # 1000008c <__rodata_start__+0xfff6a4c>
    25f2:	43c040ef          	jal	6a2e <_Z7printf_PKcz>
    25f6:	03040513          	addi	a0,s0,48
    25fa:	434040ef          	jal	6a2e <_Z7printf_PKcz>
    25fe:	05c00693          	li	a3,92
    2602:	8e098613          	addi	a2,s3,-1824
    2606:	87c90593          	addi	a1,s2,-1924
    260a:	01448513          	addi	a0,s1,20
    260e:	420040ef          	jal	6a2e <_Z7printf_PKcz>
    2612:	10001537          	lui	a0,0x10001
    2616:	85d6                	mv	a1,s5
    2618:	89050513          	addi	a0,a0,-1904 # 10000890 <__rodata_start__+0xfff7250>
    261c:	412040ef          	jal	6a2e <_Z7printf_PKcz>
    2620:	03040513          	addi	a0,s0,48
    2624:	40a040ef          	jal	6a2e <_Z7printf_PKcz>
    2628:	9002                	ebreak
    262a:	8e098613          	addi	a2,s3,-1824
    262e:	87c90593          	addi	a1,s2,-1924
    2632:	05f00693          	li	a3,95
    2636:	01448513          	addi	a0,s1,20
    263a:	3f4040ef          	jal	6a2e <_Z7printf_PKcz>
    263e:	10001537          	lui	a0,0x10001
    2642:	8f450513          	addi	a0,a0,-1804 # 100008f4 <__rodata_start__+0xfff72b4>
    2646:	3e8040ef          	jal	6a2e <_Z7printf_PKcz>
    264a:	03040513          	addi	a0,s0,48
    264e:	4462                	lw	s0,24(sp)
    2650:	40f2                	lw	ra,28(sp)
    2652:	44d2                	lw	s1,20(sp)
    2654:	4942                	lw	s2,16(sp)
    2656:	49b2                	lw	s3,12(sp)
    2658:	4a22                	lw	s4,8(sp)
    265a:	4a92                	lw	s5,4(sp)
    265c:	6105                	addi	sp,sp,32
    265e:	3d00406f          	j	6a2e <_Z7printf_PKcz>

00002662 <_Z17vgetcsr_testcase1v>:
    2662:	1101                	addi	sp,sp,-32
    2664:	c256                	sw	s5,4(sp)
    2666:	4aa9                	li	s5,10
    2668:	ce06                	sw	ra,28(sp)
    266a:	cc22                	sw	s0,24(sp)
    266c:	ca26                	sw	s1,20(sp)
    266e:	c84a                	sw	s2,16(sp)
    2670:	c64e                	sw	s3,12(sp)
    2672:	c452                	sw	s4,8(sp)
    2674:	101aa00b          	vsetcsr	zero,s5,257
    2678:	4a01                	li	s4,0
    267a:	101a3a0b          	vgetcsr	s4,s4,257
    267e:	100019b7          	lui	s3,0x10001
    2682:	10001937          	lui	s2,0x10001
    2686:	100004b7          	lui	s1,0x10000
    268a:	10000437          	lui	s0,0x10000
    268e:	055a0d63          	beq	s4,s5,26e8 <_Z17vgetcsr_testcase1v+0x86>
    2692:	90498613          	addi	a2,s3,-1788 # 10000904 <__rodata_start__+0xfff72c4>
    2696:	06a00693          	li	a3,106
    269a:	87c90593          	addi	a1,s2,-1924 # 1000087c <__rodata_start__+0xfff723c>
    269e:	01448513          	addi	a0,s1,20 # 10000014 <__rodata_start__+0xfff69d4>
    26a2:	38c040ef          	jal	6a2e <_Z7printf_PKcz>
    26a6:	10000537          	lui	a0,0x10000
    26aa:	85d2                	mv	a1,s4
    26ac:	08c50513          	addi	a0,a0,140 # 1000008c <__rodata_start__+0xfff6a4c>
    26b0:	37e040ef          	jal	6a2e <_Z7printf_PKcz>
    26b4:	03040513          	addi	a0,s0,48 # 10000030 <__rodata_start__+0xfff69f0>
    26b8:	376040ef          	jal	6a2e <_Z7printf_PKcz>
    26bc:	06b00693          	li	a3,107
    26c0:	90498613          	addi	a2,s3,-1788
    26c4:	87c90593          	addi	a1,s2,-1924
    26c8:	01448513          	addi	a0,s1,20
    26cc:	362040ef          	jal	6a2e <_Z7printf_PKcz>
    26d0:	10001537          	lui	a0,0x10001
    26d4:	85d6                	mv	a1,s5
    26d6:	89050513          	addi	a0,a0,-1904 # 10000890 <__rodata_start__+0xfff7250>
    26da:	354040ef          	jal	6a2e <_Z7printf_PKcz>
    26de:	03040513          	addi	a0,s0,48
    26e2:	34c040ef          	jal	6a2e <_Z7printf_PKcz>
    26e6:	9002                	ebreak
    26e8:	4aad                	li	s5,11
    26ea:	101aa00b          	vsetcsr	zero,s5,257
    26ee:	4a01                	li	s4,0
    26f0:	101a3a0b          	vgetcsr	s4,s4,257
    26f4:	055a0d63          	beq	s4,s5,274e <_Z17vgetcsr_testcase1v+0xec>
    26f8:	90498613          	addi	a2,s3,-1788
    26fc:	07100693          	li	a3,113
    2700:	87c90593          	addi	a1,s2,-1924
    2704:	01448513          	addi	a0,s1,20
    2708:	326040ef          	jal	6a2e <_Z7printf_PKcz>
    270c:	10000537          	lui	a0,0x10000
    2710:	85d2                	mv	a1,s4
    2712:	08c50513          	addi	a0,a0,140 # 1000008c <__rodata_start__+0xfff6a4c>
    2716:	318040ef          	jal	6a2e <_Z7printf_PKcz>
    271a:	03040513          	addi	a0,s0,48
    271e:	310040ef          	jal	6a2e <_Z7printf_PKcz>
    2722:	07200693          	li	a3,114
    2726:	90498613          	addi	a2,s3,-1788
    272a:	87c90593          	addi	a1,s2,-1924
    272e:	01448513          	addi	a0,s1,20
    2732:	2fc040ef          	jal	6a2e <_Z7printf_PKcz>
    2736:	10001537          	lui	a0,0x10001
    273a:	85d6                	mv	a1,s5
    273c:	89050513          	addi	a0,a0,-1904 # 10000890 <__rodata_start__+0xfff7250>
    2740:	2ee040ef          	jal	6a2e <_Z7printf_PKcz>
    2744:	03040513          	addi	a0,s0,48
    2748:	2e6040ef          	jal	6a2e <_Z7printf_PKcz>
    274c:	9002                	ebreak
    274e:	90498613          	addi	a2,s3,-1788
    2752:	87c90593          	addi	a1,s2,-1924
    2756:	07500693          	li	a3,117
    275a:	01448513          	addi	a0,s1,20
    275e:	2d0040ef          	jal	6a2e <_Z7printf_PKcz>
    2762:	10001537          	lui	a0,0x10001
    2766:	91850513          	addi	a0,a0,-1768 # 10000918 <__rodata_start__+0xfff72d8>
    276a:	2c4040ef          	jal	6a2e <_Z7printf_PKcz>
    276e:	03040513          	addi	a0,s0,48
    2772:	4462                	lw	s0,24(sp)
    2774:	40f2                	lw	ra,28(sp)
    2776:	44d2                	lw	s1,20(sp)
    2778:	4942                	lw	s2,16(sp)
    277a:	49b2                	lw	s3,12(sp)
    277c:	4a22                	lw	s4,8(sp)
    277e:	4a92                	lw	s5,4(sp)
    2780:	6105                	addi	sp,sp,32
    2782:	2ac0406f          	j	6a2e <_Z7printf_PKcz>

00002786 <_Z14vadd_testcase1v>:
    2786:	7139                	addi	sp,sp,-64
    2788:	dc22                	sw	s0,56(sp)
    278a:	de06                	sw	ra,60(sp)
    278c:	da26                	sw	s1,52(sp)
    278e:	d84a                	sw	s2,48(sp)
    2790:	d64e                	sw	s3,44(sp)
    2792:	d452                	sw	s4,40(sp)
    2794:	d256                	sw	s5,36(sp)
    2796:	d05a                	sw	s6,32(sp)
    2798:	ce5e                	sw	s7,28(sp)
    279a:	cc62                	sw	s8,24(sp)
    279c:	ca66                	sw	s9,20(sp)
    279e:	c86a                	sw	s10,16(sp)
    27a0:	c66e                	sw	s11,12(sp)
    27a2:	4781                	li	a5,0
    27a4:	10007437          	lui	s0,0x10007
    27a8:	10000693          	li	a3,256
    27ac:	e3040713          	addi	a4,s0,-464 # 10006e30 <waddr>
    27b0:	973e                	add	a4,a4,a5
    27b2:	00070023          	sb	zero,0(a4)
    27b6:	0785                	addi	a5,a5,1
    27b8:	e3040c13          	addi	s8,s0,-464
    27bc:	fed798e3          	bne	a5,a3,27ac <_Z14vadd_testcase1v+0x26>
    27c0:	70000793          	li	a5,1792
    27c4:	1047a00b          	vsetcsr	zero,a5,260
    27c8:	08000793          	li	a5,128
    27cc:	1057a00b          	vsetcsr	zero,a5,261
    27d0:	57fd                	li	a5,-1
    27d2:	1067a00b          	vsetcsr	zero,a5,262
    27d6:	103c200b          	vsetcsr	zero,s8,259
    27da:	10007ab7          	lui	s5,0x10007
    27de:	b20a8d13          	addi	s10,s5,-1248 # 10006b20 <raddr1>
    27e2:	100c0c93          	addi	s9,s8,256
    27e6:	019d006b          	vadd	zero,s10,s9
    27ea:	e3040993          	addi	s3,s0,-464
    27ee:	b20a8913          	addi	s2,s5,-1248
    27f2:	84e6                	mv	s1,s9
    27f4:	8de6                	mv	s11,s9
    27f6:	b20a8a93          	addi	s5,s5,-1248
    27fa:	e3040413          	addi	s0,s0,-464
    27fe:	4a01                	li	s4,0
    2800:	100018b7          	lui	a7,0x10001
    2804:	10001337          	lui	t1,0x10001
    2808:	10000e37          	lui	t3,0x10000
    280c:	10001b37          	lui	s6,0x10001
    2810:	10000bb7          	lui	s7,0x10000
    2814:	4841                	li	a6,16
    2816:	000d8703          	lb	a4,0(s11)
    281a:	000a8783          	lb	a5,0(s5)
    281e:	97ba                	add	a5,a5,a4
    2820:	00040703          	lb	a4,0(s0)
    2824:	8fb9                	xor	a5,a5,a4
    2826:	0ff7f793          	zext.b	a5,a5
    282a:	c7b9                	beqz	a5,2878 <_Z14vadd_testcase1v+0xf2>
    282c:	92888613          	addi	a2,a7,-1752 # 10000928 <__rodata_start__+0xfff72e8>
    2830:	87c30593          	addi	a1,t1,-1924 # 1000087c <__rodata_start__+0xfff723c>
    2834:	014e0513          	addi	a0,t3,20 # 10000014 <__rodata_start__+0xfff69d4>
    2838:	08b00693          	li	a3,139
    283c:	1f2040ef          	jal	6a2e <_Z7printf_PKcz>
    2840:	000d8703          	lb	a4,0(s11)
    2844:	000a8783          	lb	a5,0(s5)
    2848:	86d2                	mv	a3,s4
    284a:	8652                	mv	a2,s4
    284c:	97ba                	add	a5,a5,a4
    284e:	00044703          	lbu	a4,0(s0)
    2852:	0ff7f793          	zext.b	a5,a5
    2856:	85d2                	mv	a1,s4
    2858:	938b0513          	addi	a0,s6,-1736 # 10000938 <__rodata_start__+0xfff72f8>
    285c:	1d2040ef          	jal	6a2e <_Z7printf_PKcz>
    2860:	030b8513          	addi	a0,s7,48 # 10000030 <__rodata_start__+0xfff69f0>
    2864:	1ca040ef          	jal	6a2e <_Z7printf_PKcz>
    2868:	9002                	ebreak
    286a:	4841                	li	a6,16
    286c:	100018b7          	lui	a7,0x10001
    2870:	10001337          	lui	t1,0x10001
    2874:	10000e37          	lui	t3,0x10000
    2878:	0a05                	addi	s4,s4,1
    287a:	0405                	addi	s0,s0,1
    287c:	0a85                	addi	s5,s5,1
    287e:	0d85                	addi	s11,s11,1
    2880:	f90a1be3          	bne	s4,a6,2816 <_Z14vadd_testcase1v+0x90>
    2884:	4781                	li	a5,0
    2886:	10000713          	li	a4,256
    288a:	00fc06b3          	add	a3,s8,a5
    288e:	00068023          	sb	zero,0(a3) # 2200000 <__rodata_start__+0x21f69c0>
    2892:	0785                	addi	a5,a5,1
    2894:	fee79be3          	bne	a5,a4,288a <_Z14vadd_testcase1v+0x104>
    2898:	70000793          	li	a5,1792
    289c:	1047a00b          	vsetcsr	zero,a5,260
    28a0:	6785                	lui	a5,0x1
    28a2:	80078793          	addi	a5,a5,-2048 # 800 <_Z21minimum_pwconv_singlePaS_S_+0xc6>
    28a6:	1057a00b          	vsetcsr	zero,a5,261
    28aa:	57fd                	li	a5,-1
    28ac:	1067a00b          	vsetcsr	zero,a5,262
    28b0:	103c200b          	vsetcsr	zero,s8,259
    28b4:	019d006b          	vadd	zero,s10,s9
    28b8:	4401                	li	s0,0
    28ba:	10001bb7          	lui	s7,0x10001
    28be:	10001c37          	lui	s8,0x10001
    28c2:	10000cb7          	lui	s9,0x10000
    28c6:	10001a37          	lui	s4,0x10001
    28ca:	10000ab7          	lui	s5,0x10000
    28ce:	10000b13          	li	s6,256
    28d2:	00048703          	lb	a4,0(s1)
    28d6:	00090783          	lb	a5,0(s2)
    28da:	97ba                	add	a5,a5,a4
    28dc:	00098703          	lb	a4,0(s3)
    28e0:	8fb9                	xor	a5,a5,a4
    28e2:	0ff7f793          	zext.b	a5,a5
    28e6:	c3a1                	beqz	a5,2926 <_Z14vadd_testcase1v+0x1a0>
    28e8:	928b8613          	addi	a2,s7,-1752 # 10000928 <__rodata_start__+0xfff72e8>
    28ec:	87cc0593          	addi	a1,s8,-1924 # 1000087c <__rodata_start__+0xfff723c>
    28f0:	0a000693          	li	a3,160
    28f4:	014c8513          	addi	a0,s9,20 # 10000014 <__rodata_start__+0xfff69d4>
    28f8:	136040ef          	jal	6a2e <_Z7printf_PKcz>
    28fc:	00048703          	lb	a4,0(s1)
    2900:	00090783          	lb	a5,0(s2)
    2904:	86a2                	mv	a3,s0
    2906:	8622                	mv	a2,s0
    2908:	97ba                	add	a5,a5,a4
    290a:	0009c703          	lbu	a4,0(s3)
    290e:	0ff7f793          	zext.b	a5,a5
    2912:	85a2                	mv	a1,s0
    2914:	96ca0513          	addi	a0,s4,-1684 # 1000096c <__rodata_start__+0xfff732c>
    2918:	116040ef          	jal	6a2e <_Z7printf_PKcz>
    291c:	030a8513          	addi	a0,s5,48 # 10000030 <__rodata_start__+0xfff69f0>
    2920:	10e040ef          	jal	6a2e <_Z7printf_PKcz>
    2924:	9002                	ebreak
    2926:	0405                	addi	s0,s0,1
    2928:	0985                	addi	s3,s3,1
    292a:	0905                	addi	s2,s2,1
    292c:	0485                	addi	s1,s1,1
    292e:	fb6412e3          	bne	s0,s6,28d2 <_Z14vadd_testcase1v+0x14c>
    2932:	10001637          	lui	a2,0x10001
    2936:	100015b7          	lui	a1,0x10001
    293a:	10000537          	lui	a0,0x10000
    293e:	0a400693          	li	a3,164
    2942:	92860613          	addi	a2,a2,-1752 # 10000928 <__rodata_start__+0xfff72e8>
    2946:	87c58593          	addi	a1,a1,-1924 # 1000087c <__rodata_start__+0xfff723c>
    294a:	01450513          	addi	a0,a0,20 # 10000014 <__rodata_start__+0xfff69d4>
    294e:	0e0040ef          	jal	6a2e <_Z7printf_PKcz>
    2952:	10001537          	lui	a0,0x10001
    2956:	99c50513          	addi	a0,a0,-1636 # 1000099c <__rodata_start__+0xfff735c>
    295a:	0d4040ef          	jal	6a2e <_Z7printf_PKcz>
    295e:	5462                	lw	s0,56(sp)
    2960:	50f2                	lw	ra,60(sp)
    2962:	54d2                	lw	s1,52(sp)
    2964:	5942                	lw	s2,48(sp)
    2966:	59b2                	lw	s3,44(sp)
    2968:	5a22                	lw	s4,40(sp)
    296a:	5a92                	lw	s5,36(sp)
    296c:	5b02                	lw	s6,32(sp)
    296e:	4bf2                	lw	s7,28(sp)
    2970:	4c62                	lw	s8,24(sp)
    2972:	4cd2                	lw	s9,20(sp)
    2974:	4d42                	lw	s10,16(sp)
    2976:	4db2                	lw	s11,12(sp)
    2978:	10000537          	lui	a0,0x10000
    297c:	03050513          	addi	a0,a0,48 # 10000030 <__rodata_start__+0xfff69f0>
    2980:	6121                	addi	sp,sp,64
    2982:	0ac0406f          	j	6a2e <_Z7printf_PKcz>

00002986 <_Z14vadd_testcase2v>:
    2986:	7179                	addi	sp,sp,-48
    2988:	d226                	sw	s1,36(sp)
    298a:	d606                	sw	ra,44(sp)
    298c:	d422                	sw	s0,40(sp)
    298e:	d04a                	sw	s2,32(sp)
    2990:	ce4e                	sw	s3,28(sp)
    2992:	cc52                	sw	s4,24(sp)
    2994:	ca56                	sw	s5,20(sp)
    2996:	c85a                	sw	s6,16(sp)
    2998:	c65e                	sw	s7,12(sp)
    299a:	c462                	sw	s8,8(sp)
    299c:	4781                	li	a5,0
    299e:	100074b7          	lui	s1,0x10007
    29a2:	10000713          	li	a4,256
    29a6:	e3048413          	addi	s0,s1,-464 # 10006e30 <waddr>
    29aa:	00f406b3          	add	a3,s0,a5
    29ae:	00068023          	sb	zero,0(a3)
    29b2:	0785                	addi	a5,a5,1
    29b4:	fee799e3          	bne	a5,a4,29a6 <_Z14vadd_testcase2v+0x20>
    29b8:	6785                	lui	a5,0x1
    29ba:	f0078793          	addi	a5,a5,-256 # f00 <_Z24minimum_matmul_multi_8x8PaS_S_+0x3e>
    29be:	1047a00b          	vsetcsr	zero,a5,260
    29c2:	20000793          	li	a5,512
    29c6:	1057a00b          	vsetcsr	zero,a5,261
    29ca:	57fd                	li	a5,-1
    29cc:	1067a00b          	vsetcsr	zero,a5,262
    29d0:	1034200b          	vsetcsr	zero,s0,259
    29d4:	10040413          	addi	s0,s0,256
    29d8:	0ff00793          	li	a5,255
    29dc:	0087806b          	vadd	zero,a5,s0
    29e0:	e3048493          	addi	s1,s1,-464
    29e4:	4901                	li	s2,0
    29e6:	10001b37          	lui	s6,0x10001
    29ea:	10001bb7          	lui	s7,0x10001
    29ee:	10000c37          	lui	s8,0x10000
    29f2:	10001a37          	lui	s4,0x10001
    29f6:	10000ab7          	lui	s5,0x10000
    29fa:	04000993          	li	s3,64
    29fe:	00040783          	lb	a5,0(s0)
    2a02:	00048703          	lb	a4,0(s1)
    2a06:	0ff78793          	addi	a5,a5,255
    2a0a:	8fb9                	xor	a5,a5,a4
    2a0c:	0ff7f793          	zext.b	a5,a5
    2a10:	cf95                	beqz	a5,2a4c <_Z14vadd_testcase2v+0xc6>
    2a12:	9a8b0613          	addi	a2,s6,-1624 # 100009a8 <__rodata_start__+0xfff7368>
    2a16:	87cb8593          	addi	a1,s7,-1924 # 1000087c <__rodata_start__+0xfff723c>
    2a1a:	0b900693          	li	a3,185
    2a1e:	014c0513          	addi	a0,s8,20 # 10000014 <__rodata_start__+0xfff69d4>
    2a22:	00c040ef          	jal	6a2e <_Z7printf_PKcz>
    2a26:	00040703          	lb	a4,0(s0)
    2a2a:	0004c683          	lbu	a3,0(s1)
    2a2e:	864a                	mv	a2,s2
    2a30:	0ff70713          	addi	a4,a4,255
    2a34:	0ff77713          	zext.b	a4,a4
    2a38:	85ca                	mv	a1,s2
    2a3a:	9b8a0513          	addi	a0,s4,-1608 # 100009b8 <__rodata_start__+0xfff7378>
    2a3e:	7f1030ef          	jal	6a2e <_Z7printf_PKcz>
    2a42:	030a8513          	addi	a0,s5,48 # 10000030 <__rodata_start__+0xfff69f0>
    2a46:	7e9030ef          	jal	6a2e <_Z7printf_PKcz>
    2a4a:	9002                	ebreak
    2a4c:	0905                	addi	s2,s2,1
    2a4e:	0485                	addi	s1,s1,1
    2a50:	0405                	addi	s0,s0,1
    2a52:	fb3916e3          	bne	s2,s3,29fe <_Z14vadd_testcase2v+0x78>
    2a56:	10001637          	lui	a2,0x10001
    2a5a:	100015b7          	lui	a1,0x10001
    2a5e:	10000537          	lui	a0,0x10000
    2a62:	0d600693          	li	a3,214
    2a66:	9a860613          	addi	a2,a2,-1624 # 100009a8 <__rodata_start__+0xfff7368>
    2a6a:	87c58593          	addi	a1,a1,-1924 # 1000087c <__rodata_start__+0xfff723c>
    2a6e:	01450513          	addi	a0,a0,20 # 10000014 <__rodata_start__+0xfff69d4>
    2a72:	7bd030ef          	jal	6a2e <_Z7printf_PKcz>
    2a76:	10001537          	lui	a0,0x10001
    2a7a:	99c50513          	addi	a0,a0,-1636 # 1000099c <__rodata_start__+0xfff735c>
    2a7e:	7b1030ef          	jal	6a2e <_Z7printf_PKcz>
    2a82:	5422                	lw	s0,40(sp)
    2a84:	50b2                	lw	ra,44(sp)
    2a86:	5492                	lw	s1,36(sp)
    2a88:	5902                	lw	s2,32(sp)
    2a8a:	49f2                	lw	s3,28(sp)
    2a8c:	4a62                	lw	s4,24(sp)
    2a8e:	4ad2                	lw	s5,20(sp)
    2a90:	4b42                	lw	s6,16(sp)
    2a92:	4bb2                	lw	s7,12(sp)
    2a94:	4c22                	lw	s8,8(sp)
    2a96:	10000537          	lui	a0,0x10000
    2a9a:	03050513          	addi	a0,a0,48 # 10000030 <__rodata_start__+0xfff69f0>
    2a9e:	6145                	addi	sp,sp,48
    2aa0:	78f0306f          	j	6a2e <_Z7printf_PKcz>

00002aa4 <_Z14vsub_testcase1v>:
    2aa4:	7139                	addi	sp,sp,-64
    2aa6:	da26                	sw	s1,52(sp)
    2aa8:	de06                	sw	ra,60(sp)
    2aaa:	dc22                	sw	s0,56(sp)
    2aac:	d84a                	sw	s2,48(sp)
    2aae:	d64e                	sw	s3,44(sp)
    2ab0:	d452                	sw	s4,40(sp)
    2ab2:	d256                	sw	s5,36(sp)
    2ab4:	d05a                	sw	s6,32(sp)
    2ab6:	ce5e                	sw	s7,28(sp)
    2ab8:	cc62                	sw	s8,24(sp)
    2aba:	ca66                	sw	s9,20(sp)
    2abc:	c86a                	sw	s10,16(sp)
    2abe:	c66e                	sw	s11,12(sp)
    2ac0:	4781                	li	a5,0
    2ac2:	100074b7          	lui	s1,0x10007
    2ac6:	10000693          	li	a3,256
    2aca:	e3048713          	addi	a4,s1,-464 # 10006e30 <waddr>
    2ace:	973e                	add	a4,a4,a5
    2ad0:	00070023          	sb	zero,0(a4)
    2ad4:	0785                	addi	a5,a5,1
    2ad6:	e3048c93          	addi	s9,s1,-464
    2ada:	fed798e3          	bne	a5,a3,2aca <_Z14vsub_testcase1v+0x26>
    2ade:	70000793          	li	a5,1792
    2ae2:	1047a00b          	vsetcsr	zero,a5,260
    2ae6:	08000793          	li	a5,128
    2aea:	1057a00b          	vsetcsr	zero,a5,261
    2aee:	57fd                	li	a5,-1
    2af0:	1067a00b          	vsetcsr	zero,a5,262
    2af4:	103ca00b          	vsetcsr	zero,s9,259
    2af8:	10007437          	lui	s0,0x10007
    2afc:	b2040413          	addi	s0,s0,-1248 # 10006b20 <raddr1>
    2b00:	10040c13          	addi	s8,s0,256
    2b04:	20040413          	addi	s0,s0,512
    2b08:	028c006b          	vsub	zero,s8,s0
    2b0c:	e3048a13          	addi	s4,s1,-464
    2b10:	89e2                	mv	s3,s8
    2b12:	8922                	mv	s2,s0
    2b14:	8d22                	mv	s10,s0
    2b16:	8de2                	mv	s11,s8
    2b18:	e3048493          	addi	s1,s1,-464
    2b1c:	4a81                	li	s5,0
    2b1e:	100018b7          	lui	a7,0x10001
    2b22:	10001337          	lui	t1,0x10001
    2b26:	10000e37          	lui	t3,0x10000
    2b2a:	10001b37          	lui	s6,0x10001
    2b2e:	10000bb7          	lui	s7,0x10000
    2b32:	4841                	li	a6,16
    2b34:	000d0703          	lb	a4,0(s10)
    2b38:	000d8783          	lb	a5,0(s11)
    2b3c:	8f99                	sub	a5,a5,a4
    2b3e:	00048703          	lb	a4,0(s1)
    2b42:	8fb9                	xor	a5,a5,a4
    2b44:	0ff7f793          	zext.b	a5,a5
    2b48:	c7b9                	beqz	a5,2b96 <_Z14vsub_testcase1v+0xf2>
    2b4a:	9e488613          	addi	a2,a7,-1564 # 100009e4 <__rodata_start__+0xfff73a4>
    2b4e:	87c30593          	addi	a1,t1,-1924 # 1000087c <__rodata_start__+0xfff723c>
    2b52:	014e0513          	addi	a0,t3,20 # 10000014 <__rodata_start__+0xfff69d4>
    2b56:	0ec00693          	li	a3,236
    2b5a:	6d5030ef          	jal	6a2e <_Z7printf_PKcz>
    2b5e:	000d0703          	lb	a4,0(s10)
    2b62:	000d8783          	lb	a5,0(s11)
    2b66:	86d6                	mv	a3,s5
    2b68:	8656                	mv	a2,s5
    2b6a:	8f99                	sub	a5,a5,a4
    2b6c:	0004c703          	lbu	a4,0(s1)
    2b70:	0ff7f793          	zext.b	a5,a5
    2b74:	85d6                	mv	a1,s5
    2b76:	9f4b0513          	addi	a0,s6,-1548 # 100009f4 <__rodata_start__+0xfff73b4>
    2b7a:	6b5030ef          	jal	6a2e <_Z7printf_PKcz>
    2b7e:	030b8513          	addi	a0,s7,48 # 10000030 <__rodata_start__+0xfff69f0>
    2b82:	6ad030ef          	jal	6a2e <_Z7printf_PKcz>
    2b86:	9002                	ebreak
    2b88:	4841                	li	a6,16
    2b8a:	100018b7          	lui	a7,0x10001
    2b8e:	10001337          	lui	t1,0x10001
    2b92:	10000e37          	lui	t3,0x10000
    2b96:	0a85                	addi	s5,s5,1
    2b98:	0485                	addi	s1,s1,1
    2b9a:	0d85                	addi	s11,s11,1
    2b9c:	0d05                	addi	s10,s10,1
    2b9e:	f90a9be3          	bne	s5,a6,2b34 <_Z14vsub_testcase1v+0x90>
    2ba2:	4781                	li	a5,0
    2ba4:	10000713          	li	a4,256
    2ba8:	00fc86b3          	add	a3,s9,a5
    2bac:	00068023          	sb	zero,0(a3)
    2bb0:	0785                	addi	a5,a5,1
    2bb2:	fee79be3          	bne	a5,a4,2ba8 <_Z14vsub_testcase1v+0x104>
    2bb6:	70000793          	li	a5,1792
    2bba:	1047a00b          	vsetcsr	zero,a5,260
    2bbe:	6785                	lui	a5,0x1
    2bc0:	80078793          	addi	a5,a5,-2048 # 800 <_Z21minimum_pwconv_singlePaS_S_+0xc6>
    2bc4:	1057a00b          	vsetcsr	zero,a5,261
    2bc8:	57fd                	li	a5,-1
    2bca:	1067a00b          	vsetcsr	zero,a5,262
    2bce:	103ca00b          	vsetcsr	zero,s9,259
    2bd2:	028c006b          	vsub	zero,s8,s0
    2bd6:	4401                	li	s0,0
    2bd8:	10001bb7          	lui	s7,0x10001
    2bdc:	10001c37          	lui	s8,0x10001
    2be0:	10000cb7          	lui	s9,0x10000
    2be4:	100014b7          	lui	s1,0x10001
    2be8:	10000ab7          	lui	s5,0x10000
    2bec:	10000b13          	li	s6,256
    2bf0:	00090703          	lb	a4,0(s2)
    2bf4:	00098783          	lb	a5,0(s3)
    2bf8:	8f99                	sub	a5,a5,a4
    2bfa:	000a0703          	lb	a4,0(s4)
    2bfe:	8fb9                	xor	a5,a5,a4
    2c00:	0ff7f793          	zext.b	a5,a5
    2c04:	c3a1                	beqz	a5,2c44 <_Z14vsub_testcase1v+0x1a0>
    2c06:	9e4b8613          	addi	a2,s7,-1564 # 100009e4 <__rodata_start__+0xfff73a4>
    2c0a:	87cc0593          	addi	a1,s8,-1924 # 1000087c <__rodata_start__+0xfff723c>
    2c0e:	10100693          	li	a3,257
    2c12:	014c8513          	addi	a0,s9,20 # 10000014 <__rodata_start__+0xfff69d4>
    2c16:	619030ef          	jal	6a2e <_Z7printf_PKcz>
    2c1a:	00090703          	lb	a4,0(s2)
    2c1e:	00098783          	lb	a5,0(s3)
    2c22:	86a2                	mv	a3,s0
    2c24:	8622                	mv	a2,s0
    2c26:	8f99                	sub	a5,a5,a4
    2c28:	000a4703          	lbu	a4,0(s4)
    2c2c:	0ff7f793          	zext.b	a5,a5
    2c30:	85a2                	mv	a1,s0
    2c32:	9f448513          	addi	a0,s1,-1548 # 100009f4 <__rodata_start__+0xfff73b4>
    2c36:	5f9030ef          	jal	6a2e <_Z7printf_PKcz>
    2c3a:	030a8513          	addi	a0,s5,48 # 10000030 <__rodata_start__+0xfff69f0>
    2c3e:	5f1030ef          	jal	6a2e <_Z7printf_PKcz>
    2c42:	9002                	ebreak
    2c44:	0405                	addi	s0,s0,1
    2c46:	0a05                	addi	s4,s4,1
    2c48:	0985                	addi	s3,s3,1
    2c4a:	0905                	addi	s2,s2,1
    2c4c:	fb6412e3          	bne	s0,s6,2bf0 <_Z14vsub_testcase1v+0x14c>
    2c50:	10001637          	lui	a2,0x10001
    2c54:	100015b7          	lui	a1,0x10001
    2c58:	10000537          	lui	a0,0x10000
    2c5c:	10500693          	li	a3,261
    2c60:	9e460613          	addi	a2,a2,-1564 # 100009e4 <__rodata_start__+0xfff73a4>
    2c64:	87c58593          	addi	a1,a1,-1924 # 1000087c <__rodata_start__+0xfff723c>
    2c68:	01450513          	addi	a0,a0,20 # 10000014 <__rodata_start__+0xfff69d4>
    2c6c:	5c3030ef          	jal	6a2e <_Z7printf_PKcz>
    2c70:	10001537          	lui	a0,0x10001
    2c74:	a2850513          	addi	a0,a0,-1496 # 10000a28 <__rodata_start__+0xfff73e8>
    2c78:	5b7030ef          	jal	6a2e <_Z7printf_PKcz>
    2c7c:	5462                	lw	s0,56(sp)
    2c7e:	50f2                	lw	ra,60(sp)
    2c80:	54d2                	lw	s1,52(sp)
    2c82:	5942                	lw	s2,48(sp)
    2c84:	59b2                	lw	s3,44(sp)
    2c86:	5a22                	lw	s4,40(sp)
    2c88:	5a92                	lw	s5,36(sp)
    2c8a:	5b02                	lw	s6,32(sp)
    2c8c:	4bf2                	lw	s7,28(sp)
    2c8e:	4c62                	lw	s8,24(sp)
    2c90:	4cd2                	lw	s9,20(sp)
    2c92:	4d42                	lw	s10,16(sp)
    2c94:	4db2                	lw	s11,12(sp)
    2c96:	10000537          	lui	a0,0x10000
    2c9a:	03050513          	addi	a0,a0,48 # 10000030 <__rodata_start__+0xfff69f0>
    2c9e:	6121                	addi	sp,sp,64
    2ca0:	58f0306f          	j	6a2e <_Z7printf_PKcz>

00002ca4 <_Z14vmin_testcase1v>:
    2ca4:	7139                	addi	sp,sp,-64
    2ca6:	dc22                	sw	s0,56(sp)
    2ca8:	de06                	sw	ra,60(sp)
    2caa:	da26                	sw	s1,52(sp)
    2cac:	d84a                	sw	s2,48(sp)
    2cae:	d64e                	sw	s3,44(sp)
    2cb0:	d452                	sw	s4,40(sp)
    2cb2:	d256                	sw	s5,36(sp)
    2cb4:	d05a                	sw	s6,32(sp)
    2cb6:	ce5e                	sw	s7,28(sp)
    2cb8:	cc62                	sw	s8,24(sp)
    2cba:	ca66                	sw	s9,20(sp)
    2cbc:	c86a                	sw	s10,16(sp)
    2cbe:	c66e                	sw	s11,12(sp)
    2cc0:	4781                	li	a5,0
    2cc2:	10007437          	lui	s0,0x10007
    2cc6:	10000693          	li	a3,256
    2cca:	e3040713          	addi	a4,s0,-464 # 10006e30 <waddr>
    2cce:	973e                	add	a4,a4,a5
    2cd0:	00070023          	sb	zero,0(a4)
    2cd4:	0785                	addi	a5,a5,1
    2cd6:	e3040b93          	addi	s7,s0,-464
    2cda:	fed798e3          	bne	a5,a3,2cca <_Z14vmin_testcase1v+0x26>
    2cde:	70000793          	li	a5,1792
    2ce2:	1047a00b          	vsetcsr	zero,a5,260
    2ce6:	08000793          	li	a5,128
    2cea:	1057a00b          	vsetcsr	zero,a5,261
    2cee:	57fd                	li	a5,-1
    2cf0:	1067a00b          	vsetcsr	zero,a5,262
    2cf4:	103ba00b          	vsetcsr	zero,s7,259
    2cf8:	10007ab7          	lui	s5,0x10007
    2cfc:	b20a8a93          	addi	s5,s5,-1248 # 10006b20 <raddr1>
    2d00:	200a8b13          	addi	s6,s5,512
    2d04:	100a8a93          	addi	s5,s5,256
    2d08:	055b006b          	vmin	zero,s6,s5
    2d0c:	10007a37          	lui	s4,0x10007
    2d10:	e3040993          	addi	s3,s0,-464
    2d14:	895a                	mv	s2,s6
    2d16:	8c5a                	mv	s8,s6
    2d18:	e3040413          	addi	s0,s0,-464
    2d1c:	4481                	li	s1,0
    2d1e:	c20a0a13          	addi	s4,s4,-992 # 10006c20 <raddr4>
    2d22:	10000cb7          	lui	s9,0x10000
    2d26:	10001d37          	lui	s10,0x10001
    2d2a:	10000db7          	lui	s11,0x10000
    2d2e:	00044703          	lbu	a4,0(s0)
    2d32:	000c4783          	lbu	a5,0(s8)
    2d36:	04f70763          	beq	a4,a5,2d84 <_Z14vmin_testcase1v+0xe0>
    2d3a:	100017b7          	lui	a5,0x10001
    2d3e:	a3478613          	addi	a2,a5,-1484 # 10000a34 <__rodata_start__+0xfff73f4>
    2d42:	100017b7          	lui	a5,0x10001
    2d46:	87c78593          	addi	a1,a5,-1924 # 1000087c <__rodata_start__+0xfff723c>
    2d4a:	11b00693          	li	a3,283
    2d4e:	014c8513          	addi	a0,s9,20 # 10000014 <__rodata_start__+0xfff69d4>
    2d52:	4dd030ef          	jal	6a2e <_Z7printf_PKcz>
    2d56:	009a07b3          	add	a5,s4,s1
    2d5a:	000c4703          	lbu	a4,0(s8)
    2d5e:	0007c783          	lbu	a5,0(a5)
    2d62:	00f75363          	bge	a4,a5,2d68 <_Z14vmin_testcase1v+0xc4>
    2d66:	87ba                	mv	a5,a4
    2d68:	00044703          	lbu	a4,0(s0)
    2d6c:	86a6                	mv	a3,s1
    2d6e:	8626                	mv	a2,s1
    2d70:	85a6                	mv	a1,s1
    2d72:	a44d0513          	addi	a0,s10,-1468 # 10000a44 <__rodata_start__+0xfff7404>
    2d76:	4b9030ef          	jal	6a2e <_Z7printf_PKcz>
    2d7a:	030d8513          	addi	a0,s11,48 # 10000030 <__rodata_start__+0xfff69f0>
    2d7e:	4b1030ef          	jal	6a2e <_Z7printf_PKcz>
    2d82:	9002                	ebreak
    2d84:	0485                	addi	s1,s1,1
    2d86:	47c1                	li	a5,16
    2d88:	0405                	addi	s0,s0,1
    2d8a:	0c05                	addi	s8,s8,1
    2d8c:	faf491e3          	bne	s1,a5,2d2e <_Z14vmin_testcase1v+0x8a>
    2d90:	4781                	li	a5,0
    2d92:	10000713          	li	a4,256
    2d96:	00fb86b3          	add	a3,s7,a5
    2d9a:	00068023          	sb	zero,0(a3)
    2d9e:	0785                	addi	a5,a5,1
    2da0:	fee79be3          	bne	a5,a4,2d96 <_Z14vmin_testcase1v+0xf2>
    2da4:	70000793          	li	a5,1792
    2da8:	1047a00b          	vsetcsr	zero,a5,260
    2dac:	6785                	lui	a5,0x1
    2dae:	80078793          	addi	a5,a5,-2048 # 800 <_Z21minimum_pwconv_singlePaS_S_+0xc6>
    2db2:	1057a00b          	vsetcsr	zero,a5,261
    2db6:	57fd                	li	a5,-1
    2db8:	1067a00b          	vsetcsr	zero,a5,262
    2dbc:	103ba00b          	vsetcsr	zero,s7,259
    2dc0:	055b006b          	vmin	zero,s6,s5
    2dc4:	4401                	li	s0,0
    2dc6:	10001ab7          	lui	s5,0x10001
    2dca:	10001b37          	lui	s6,0x10001
    2dce:	10000bb7          	lui	s7,0x10000
    2dd2:	10001c37          	lui	s8,0x10001
    2dd6:	10000cb7          	lui	s9,0x10000
    2dda:	10000493          	li	s1,256
    2dde:	0009c703          	lbu	a4,0(s3)
    2de2:	00094783          	lbu	a5,0(s2)
    2de6:	04f70363          	beq	a4,a5,2e2c <_Z14vmin_testcase1v+0x188>
    2dea:	13000693          	li	a3,304
    2dee:	a34a8613          	addi	a2,s5,-1484 # 10000a34 <__rodata_start__+0xfff73f4>
    2df2:	87cb0593          	addi	a1,s6,-1924 # 1000087c <__rodata_start__+0xfff723c>
    2df6:	014b8513          	addi	a0,s7,20 # 10000014 <__rodata_start__+0xfff69d4>
    2dfa:	435030ef          	jal	6a2e <_Z7printf_PKcz>
    2dfe:	008a07b3          	add	a5,s4,s0
    2e02:	00094703          	lbu	a4,0(s2)
    2e06:	0007c783          	lbu	a5,0(a5)
    2e0a:	00f75363          	bge	a4,a5,2e10 <_Z14vmin_testcase1v+0x16c>
    2e0e:	87ba                	mv	a5,a4
    2e10:	0009c703          	lbu	a4,0(s3)
    2e14:	86a2                	mv	a3,s0
    2e16:	8622                	mv	a2,s0
    2e18:	85a2                	mv	a1,s0
    2e1a:	a78c0513          	addi	a0,s8,-1416 # 10000a78 <__rodata_start__+0xfff7438>
    2e1e:	411030ef          	jal	6a2e <_Z7printf_PKcz>
    2e22:	030c8513          	addi	a0,s9,48 # 10000030 <__rodata_start__+0xfff69f0>
    2e26:	409030ef          	jal	6a2e <_Z7printf_PKcz>
    2e2a:	9002                	ebreak
    2e2c:	0405                	addi	s0,s0,1
    2e2e:	0985                	addi	s3,s3,1
    2e30:	0905                	addi	s2,s2,1
    2e32:	fa9416e3          	bne	s0,s1,2dde <_Z14vmin_testcase1v+0x13a>
    2e36:	10001637          	lui	a2,0x10001
    2e3a:	100015b7          	lui	a1,0x10001
    2e3e:	10000537          	lui	a0,0x10000
    2e42:	13400693          	li	a3,308
    2e46:	a3460613          	addi	a2,a2,-1484 # 10000a34 <__rodata_start__+0xfff73f4>
    2e4a:	87c58593          	addi	a1,a1,-1924 # 1000087c <__rodata_start__+0xfff723c>
    2e4e:	01450513          	addi	a0,a0,20 # 10000014 <__rodata_start__+0xfff69d4>
    2e52:	3dd030ef          	jal	6a2e <_Z7printf_PKcz>
    2e56:	10001537          	lui	a0,0x10001
    2e5a:	aac50513          	addi	a0,a0,-1364 # 10000aac <__rodata_start__+0xfff746c>
    2e5e:	3d1030ef          	jal	6a2e <_Z7printf_PKcz>
    2e62:	5462                	lw	s0,56(sp)
    2e64:	50f2                	lw	ra,60(sp)
    2e66:	54d2                	lw	s1,52(sp)
    2e68:	5942                	lw	s2,48(sp)
    2e6a:	59b2                	lw	s3,44(sp)
    2e6c:	5a22                	lw	s4,40(sp)
    2e6e:	5a92                	lw	s5,36(sp)
    2e70:	5b02                	lw	s6,32(sp)
    2e72:	4bf2                	lw	s7,28(sp)
    2e74:	4c62                	lw	s8,24(sp)
    2e76:	4cd2                	lw	s9,20(sp)
    2e78:	4d42                	lw	s10,16(sp)
    2e7a:	4db2                	lw	s11,12(sp)
    2e7c:	10000537          	lui	a0,0x10000
    2e80:	03050513          	addi	a0,a0,48 # 10000030 <__rodata_start__+0xfff69f0>
    2e84:	6121                	addi	sp,sp,64
    2e86:	3a90306f          	j	6a2e <_Z7printf_PKcz>

00002e8a <_Z15vminu_testcase1v>:
    2e8a:	7139                	addi	sp,sp,-64
    2e8c:	dc22                	sw	s0,56(sp)
    2e8e:	de06                	sw	ra,60(sp)
    2e90:	da26                	sw	s1,52(sp)
    2e92:	d84a                	sw	s2,48(sp)
    2e94:	d64e                	sw	s3,44(sp)
    2e96:	d452                	sw	s4,40(sp)
    2e98:	d256                	sw	s5,36(sp)
    2e9a:	d05a                	sw	s6,32(sp)
    2e9c:	ce5e                	sw	s7,28(sp)
    2e9e:	cc62                	sw	s8,24(sp)
    2ea0:	ca66                	sw	s9,20(sp)
    2ea2:	c86a                	sw	s10,16(sp)
    2ea4:	c66e                	sw	s11,12(sp)
    2ea6:	4781                	li	a5,0
    2ea8:	10007437          	lui	s0,0x10007
    2eac:	10000693          	li	a3,256
    2eb0:	e3040713          	addi	a4,s0,-464 # 10006e30 <waddr>
    2eb4:	973e                	add	a4,a4,a5
    2eb6:	00070023          	sb	zero,0(a4)
    2eba:	0785                	addi	a5,a5,1
    2ebc:	e3040b93          	addi	s7,s0,-464
    2ec0:	fed798e3          	bne	a5,a3,2eb0 <_Z15vminu_testcase1v+0x26>
    2ec4:	60000793          	li	a5,1536
    2ec8:	1047a00b          	vsetcsr	zero,a5,260
    2ecc:	08000793          	li	a5,128
    2ed0:	1057a00b          	vsetcsr	zero,a5,261
    2ed4:	57fd                	li	a5,-1
    2ed6:	1067a00b          	vsetcsr	zero,a5,262
    2eda:	103ba00b          	vsetcsr	zero,s7,259
    2ede:	10007ab7          	lui	s5,0x10007
    2ee2:	b20a8a93          	addi	s5,s5,-1248 # 10006b20 <raddr1>
    2ee6:	200a8b13          	addi	s6,s5,512
    2eea:	100a8a93          	addi	s5,s5,256
    2eee:	055b006b          	vmin	zero,s6,s5
    2ef2:	10007a37          	lui	s4,0x10007
    2ef6:	e3040993          	addi	s3,s0,-464
    2efa:	895a                	mv	s2,s6
    2efc:	8c5a                	mv	s8,s6
    2efe:	e3040413          	addi	s0,s0,-464
    2f02:	4481                	li	s1,0
    2f04:	c20a0a13          	addi	s4,s4,-992 # 10006c20 <raddr4>
    2f08:	10000cb7          	lui	s9,0x10000
    2f0c:	10001d37          	lui	s10,0x10001
    2f10:	10000db7          	lui	s11,0x10000
    2f14:	00044703          	lbu	a4,0(s0)
    2f18:	000c4783          	lbu	a5,0(s8)
    2f1c:	04f70763          	beq	a4,a5,2f6a <_Z15vminu_testcase1v+0xe0>
    2f20:	100017b7          	lui	a5,0x10001
    2f24:	ab878613          	addi	a2,a5,-1352 # 10000ab8 <__rodata_start__+0xfff7478>
    2f28:	100017b7          	lui	a5,0x10001
    2f2c:	87c78593          	addi	a1,a5,-1924 # 1000087c <__rodata_start__+0xfff723c>
    2f30:	14a00693          	li	a3,330
    2f34:	014c8513          	addi	a0,s9,20 # 10000014 <__rodata_start__+0xfff69d4>
    2f38:	2f7030ef          	jal	6a2e <_Z7printf_PKcz>
    2f3c:	009a07b3          	add	a5,s4,s1
    2f40:	000c4703          	lbu	a4,0(s8)
    2f44:	0007c783          	lbu	a5,0(a5)
    2f48:	00f75363          	bge	a4,a5,2f4e <_Z15vminu_testcase1v+0xc4>
    2f4c:	87ba                	mv	a5,a4
    2f4e:	00044703          	lbu	a4,0(s0)
    2f52:	86a6                	mv	a3,s1
    2f54:	8626                	mv	a2,s1
    2f56:	85a6                	mv	a1,s1
    2f58:	ac8d0513          	addi	a0,s10,-1336 # 10000ac8 <__rodata_start__+0xfff7488>
    2f5c:	2d3030ef          	jal	6a2e <_Z7printf_PKcz>
    2f60:	030d8513          	addi	a0,s11,48 # 10000030 <__rodata_start__+0xfff69f0>
    2f64:	2cb030ef          	jal	6a2e <_Z7printf_PKcz>
    2f68:	9002                	ebreak
    2f6a:	0485                	addi	s1,s1,1
    2f6c:	47c1                	li	a5,16
    2f6e:	0405                	addi	s0,s0,1
    2f70:	0c05                	addi	s8,s8,1
    2f72:	faf491e3          	bne	s1,a5,2f14 <_Z15vminu_testcase1v+0x8a>
    2f76:	4781                	li	a5,0
    2f78:	10000713          	li	a4,256
    2f7c:	00fb86b3          	add	a3,s7,a5
    2f80:	00068023          	sb	zero,0(a3)
    2f84:	0785                	addi	a5,a5,1
    2f86:	fee79be3          	bne	a5,a4,2f7c <_Z15vminu_testcase1v+0xf2>
    2f8a:	60000793          	li	a5,1536
    2f8e:	1047a00b          	vsetcsr	zero,a5,260
    2f92:	6785                	lui	a5,0x1
    2f94:	80078793          	addi	a5,a5,-2048 # 800 <_Z21minimum_pwconv_singlePaS_S_+0xc6>
    2f98:	1057a00b          	vsetcsr	zero,a5,261
    2f9c:	57fd                	li	a5,-1
    2f9e:	1067a00b          	vsetcsr	zero,a5,262
    2fa2:	103ba00b          	vsetcsr	zero,s7,259
    2fa6:	055b006b          	vmin	zero,s6,s5
    2faa:	4401                	li	s0,0
    2fac:	10001ab7          	lui	s5,0x10001
    2fb0:	10001b37          	lui	s6,0x10001
    2fb4:	10000bb7          	lui	s7,0x10000
    2fb8:	10001c37          	lui	s8,0x10001
    2fbc:	10000cb7          	lui	s9,0x10000
    2fc0:	10000493          	li	s1,256
    2fc4:	0009c703          	lbu	a4,0(s3)
    2fc8:	00094783          	lbu	a5,0(s2)
    2fcc:	04f70363          	beq	a4,a5,3012 <_Z15vminu_testcase1v+0x188>
    2fd0:	15f00693          	li	a3,351
    2fd4:	ab8a8613          	addi	a2,s5,-1352 # 10000ab8 <__rodata_start__+0xfff7478>
    2fd8:	87cb0593          	addi	a1,s6,-1924 # 1000087c <__rodata_start__+0xfff723c>
    2fdc:	014b8513          	addi	a0,s7,20 # 10000014 <__rodata_start__+0xfff69d4>
    2fe0:	24f030ef          	jal	6a2e <_Z7printf_PKcz>
    2fe4:	008a07b3          	add	a5,s4,s0
    2fe8:	00094703          	lbu	a4,0(s2)
    2fec:	0007c783          	lbu	a5,0(a5)
    2ff0:	00f75363          	bge	a4,a5,2ff6 <_Z15vminu_testcase1v+0x16c>
    2ff4:	87ba                	mv	a5,a4
    2ff6:	0009c703          	lbu	a4,0(s3)
    2ffa:	86a2                	mv	a3,s0
    2ffc:	8622                	mv	a2,s0
    2ffe:	85a2                	mv	a1,s0
    3000:	afcc0513          	addi	a0,s8,-1284 # 10000afc <__rodata_start__+0xfff74bc>
    3004:	22b030ef          	jal	6a2e <_Z7printf_PKcz>
    3008:	030c8513          	addi	a0,s9,48 # 10000030 <__rodata_start__+0xfff69f0>
    300c:	223030ef          	jal	6a2e <_Z7printf_PKcz>
    3010:	9002                	ebreak
    3012:	0405                	addi	s0,s0,1
    3014:	0985                	addi	s3,s3,1
    3016:	0905                	addi	s2,s2,1
    3018:	fa9416e3          	bne	s0,s1,2fc4 <_Z15vminu_testcase1v+0x13a>
    301c:	10001637          	lui	a2,0x10001
    3020:	100015b7          	lui	a1,0x10001
    3024:	10000537          	lui	a0,0x10000
    3028:	16300693          	li	a3,355
    302c:	ab860613          	addi	a2,a2,-1352 # 10000ab8 <__rodata_start__+0xfff7478>
    3030:	87c58593          	addi	a1,a1,-1924 # 1000087c <__rodata_start__+0xfff723c>
    3034:	01450513          	addi	a0,a0,20 # 10000014 <__rodata_start__+0xfff69d4>
    3038:	1f7030ef          	jal	6a2e <_Z7printf_PKcz>
    303c:	10001537          	lui	a0,0x10001
    3040:	b3050513          	addi	a0,a0,-1232 # 10000b30 <__rodata_start__+0xfff74f0>
    3044:	1eb030ef          	jal	6a2e <_Z7printf_PKcz>
    3048:	5462                	lw	s0,56(sp)
    304a:	50f2                	lw	ra,60(sp)
    304c:	54d2                	lw	s1,52(sp)
    304e:	5942                	lw	s2,48(sp)
    3050:	59b2                	lw	s3,44(sp)
    3052:	5a22                	lw	s4,40(sp)
    3054:	5a92                	lw	s5,36(sp)
    3056:	5b02                	lw	s6,32(sp)
    3058:	4bf2                	lw	s7,28(sp)
    305a:	4c62                	lw	s8,24(sp)
    305c:	4cd2                	lw	s9,20(sp)
    305e:	4d42                	lw	s10,16(sp)
    3060:	4db2                	lw	s11,12(sp)
    3062:	10000537          	lui	a0,0x10000
    3066:	03050513          	addi	a0,a0,48 # 10000030 <__rodata_start__+0xfff69f0>
    306a:	6121                	addi	sp,sp,64
    306c:	1c30306f          	j	6a2e <_Z7printf_PKcz>

00003070 <_Z14vmax_testcase1v>:
    3070:	7139                	addi	sp,sp,-64
    3072:	da26                	sw	s1,52(sp)
    3074:	de06                	sw	ra,60(sp)
    3076:	dc22                	sw	s0,56(sp)
    3078:	d84a                	sw	s2,48(sp)
    307a:	d64e                	sw	s3,44(sp)
    307c:	d452                	sw	s4,40(sp)
    307e:	d256                	sw	s5,36(sp)
    3080:	d05a                	sw	s6,32(sp)
    3082:	ce5e                	sw	s7,28(sp)
    3084:	cc62                	sw	s8,24(sp)
    3086:	ca66                	sw	s9,20(sp)
    3088:	c86a                	sw	s10,16(sp)
    308a:	c66e                	sw	s11,12(sp)
    308c:	4781                	li	a5,0
    308e:	100074b7          	lui	s1,0x10007
    3092:	10000693          	li	a3,256
    3096:	e3048713          	addi	a4,s1,-464 # 10006e30 <waddr>
    309a:	973e                	add	a4,a4,a5
    309c:	00070023          	sb	zero,0(a4)
    30a0:	0785                	addi	a5,a5,1
    30a2:	e3048b13          	addi	s6,s1,-464
    30a6:	fed798e3          	bne	a5,a3,3096 <_Z14vmax_testcase1v+0x26>
    30aa:	70000793          	li	a5,1792
    30ae:	1047a00b          	vsetcsr	zero,a5,260
    30b2:	08000793          	li	a5,128
    30b6:	1057a00b          	vsetcsr	zero,a5,261
    30ba:	57fd                	li	a5,-1
    30bc:	1067a00b          	vsetcsr	zero,a5,262
    30c0:	103b200b          	vsetcsr	zero,s6,259
    30c4:	10007437          	lui	s0,0x10007
    30c8:	b2040413          	addi	s0,s0,-1248 # 10006b20 <raddr1>
    30cc:	20040a93          	addi	s5,s0,512
    30d0:	10040413          	addi	s0,s0,256
    30d4:	068a806b          	vmax	zero,s5,s0
    30d8:	10007a37          	lui	s4,0x10007
    30dc:	e3048993          	addi	s3,s1,-464
    30e0:	8922                	mv	s2,s0
    30e2:	8c22                	mv	s8,s0
    30e4:	e3048493          	addi	s1,s1,-464
    30e8:	4b81                	li	s7,0
    30ea:	d20a0a13          	addi	s4,s4,-736 # 10006d20 <raddr3>
    30ee:	10000cb7          	lui	s9,0x10000
    30f2:	10001d37          	lui	s10,0x10001
    30f6:	10000db7          	lui	s11,0x10000
    30fa:	0004c703          	lbu	a4,0(s1)
    30fe:	000c4783          	lbu	a5,0(s8)
    3102:	04f70763          	beq	a4,a5,3150 <_Z14vmax_testcase1v+0xe0>
    3106:	100017b7          	lui	a5,0x10001
    310a:	b3c78613          	addi	a2,a5,-1220 # 10000b3c <__rodata_start__+0xfff74fc>
    310e:	100017b7          	lui	a5,0x10001
    3112:	87c78593          	addi	a1,a5,-1924 # 1000087c <__rodata_start__+0xfff723c>
    3116:	17900693          	li	a3,377
    311a:	014c8513          	addi	a0,s9,20 # 10000014 <__rodata_start__+0xfff69d4>
    311e:	111030ef          	jal	6a2e <_Z7printf_PKcz>
    3122:	017a07b3          	add	a5,s4,s7
    3126:	000c4703          	lbu	a4,0(s8)
    312a:	0007c783          	lbu	a5,0(a5)
    312e:	00e7d363          	bge	a5,a4,3134 <_Z14vmax_testcase1v+0xc4>
    3132:	87ba                	mv	a5,a4
    3134:	0004c703          	lbu	a4,0(s1)
    3138:	86de                	mv	a3,s7
    313a:	865e                	mv	a2,s7
    313c:	85de                	mv	a1,s7
    313e:	b4cd0513          	addi	a0,s10,-1204 # 10000b4c <__rodata_start__+0xfff750c>
    3142:	0ed030ef          	jal	6a2e <_Z7printf_PKcz>
    3146:	030d8513          	addi	a0,s11,48 # 10000030 <__rodata_start__+0xfff69f0>
    314a:	0e5030ef          	jal	6a2e <_Z7printf_PKcz>
    314e:	9002                	ebreak
    3150:	0b85                	addi	s7,s7,1
    3152:	47c1                	li	a5,16
    3154:	0485                	addi	s1,s1,1
    3156:	0c05                	addi	s8,s8,1
    3158:	fafb91e3          	bne	s7,a5,30fa <_Z14vmax_testcase1v+0x8a>
    315c:	4781                	li	a5,0
    315e:	10000713          	li	a4,256
    3162:	00fb06b3          	add	a3,s6,a5
    3166:	00068023          	sb	zero,0(a3)
    316a:	0785                	addi	a5,a5,1
    316c:	fee79be3          	bne	a5,a4,3162 <_Z14vmax_testcase1v+0xf2>
    3170:	70000793          	li	a5,1792
    3174:	1047a00b          	vsetcsr	zero,a5,260
    3178:	6785                	lui	a5,0x1
    317a:	80078793          	addi	a5,a5,-2048 # 800 <_Z21minimum_pwconv_singlePaS_S_+0xc6>
    317e:	1057a00b          	vsetcsr	zero,a5,261
    3182:	57fd                	li	a5,-1
    3184:	1067a00b          	vsetcsr	zero,a5,262
    3188:	103b200b          	vsetcsr	zero,s6,259
    318c:	068a806b          	vmax	zero,s5,s0
    3190:	4401                	li	s0,0
    3192:	10001ab7          	lui	s5,0x10001
    3196:	10001b37          	lui	s6,0x10001
    319a:	10000bb7          	lui	s7,0x10000
    319e:	10001c37          	lui	s8,0x10001
    31a2:	10000cb7          	lui	s9,0x10000
    31a6:	10000493          	li	s1,256
    31aa:	0009c703          	lbu	a4,0(s3)
    31ae:	00094783          	lbu	a5,0(s2)
    31b2:	04f70363          	beq	a4,a5,31f8 <_Z14vmax_testcase1v+0x188>
    31b6:	18e00693          	li	a3,398
    31ba:	b3ca8613          	addi	a2,s5,-1220 # 10000b3c <__rodata_start__+0xfff74fc>
    31be:	87cb0593          	addi	a1,s6,-1924 # 1000087c <__rodata_start__+0xfff723c>
    31c2:	014b8513          	addi	a0,s7,20 # 10000014 <__rodata_start__+0xfff69d4>
    31c6:	069030ef          	jal	6a2e <_Z7printf_PKcz>
    31ca:	008a07b3          	add	a5,s4,s0
    31ce:	00094703          	lbu	a4,0(s2)
    31d2:	0007c783          	lbu	a5,0(a5)
    31d6:	00e7d363          	bge	a5,a4,31dc <_Z14vmax_testcase1v+0x16c>
    31da:	87ba                	mv	a5,a4
    31dc:	0009c703          	lbu	a4,0(s3)
    31e0:	86a2                	mv	a3,s0
    31e2:	8622                	mv	a2,s0
    31e4:	85a2                	mv	a1,s0
    31e6:	b80c0513          	addi	a0,s8,-1152 # 10000b80 <__rodata_start__+0xfff7540>
    31ea:	045030ef          	jal	6a2e <_Z7printf_PKcz>
    31ee:	030c8513          	addi	a0,s9,48 # 10000030 <__rodata_start__+0xfff69f0>
    31f2:	03d030ef          	jal	6a2e <_Z7printf_PKcz>
    31f6:	9002                	ebreak
    31f8:	0405                	addi	s0,s0,1
    31fa:	0985                	addi	s3,s3,1
    31fc:	0905                	addi	s2,s2,1
    31fe:	fa9416e3          	bne	s0,s1,31aa <_Z14vmax_testcase1v+0x13a>
    3202:	10001637          	lui	a2,0x10001
    3206:	100015b7          	lui	a1,0x10001
    320a:	10000537          	lui	a0,0x10000
    320e:	19200693          	li	a3,402
    3212:	b3c60613          	addi	a2,a2,-1220 # 10000b3c <__rodata_start__+0xfff74fc>
    3216:	87c58593          	addi	a1,a1,-1924 # 1000087c <__rodata_start__+0xfff723c>
    321a:	01450513          	addi	a0,a0,20 # 10000014 <__rodata_start__+0xfff69d4>
    321e:	011030ef          	jal	6a2e <_Z7printf_PKcz>
    3222:	10001537          	lui	a0,0x10001
    3226:	bb450513          	addi	a0,a0,-1100 # 10000bb4 <__rodata_start__+0xfff7574>
    322a:	005030ef          	jal	6a2e <_Z7printf_PKcz>
    322e:	5462                	lw	s0,56(sp)
    3230:	50f2                	lw	ra,60(sp)
    3232:	54d2                	lw	s1,52(sp)
    3234:	5942                	lw	s2,48(sp)
    3236:	59b2                	lw	s3,44(sp)
    3238:	5a22                	lw	s4,40(sp)
    323a:	5a92                	lw	s5,36(sp)
    323c:	5b02                	lw	s6,32(sp)
    323e:	4bf2                	lw	s7,28(sp)
    3240:	4c62                	lw	s8,24(sp)
    3242:	4cd2                	lw	s9,20(sp)
    3244:	4d42                	lw	s10,16(sp)
    3246:	4db2                	lw	s11,12(sp)
    3248:	10000537          	lui	a0,0x10000
    324c:	03050513          	addi	a0,a0,48 # 10000030 <__rodata_start__+0xfff69f0>
    3250:	6121                	addi	sp,sp,64
    3252:	7dc0306f          	j	6a2e <_Z7printf_PKcz>

00003256 <_Z15vmaxu_testcase1v>:
    3256:	7139                	addi	sp,sp,-64
    3258:	da26                	sw	s1,52(sp)
    325a:	de06                	sw	ra,60(sp)
    325c:	dc22                	sw	s0,56(sp)
    325e:	d84a                	sw	s2,48(sp)
    3260:	d64e                	sw	s3,44(sp)
    3262:	d452                	sw	s4,40(sp)
    3264:	d256                	sw	s5,36(sp)
    3266:	d05a                	sw	s6,32(sp)
    3268:	ce5e                	sw	s7,28(sp)
    326a:	cc62                	sw	s8,24(sp)
    326c:	ca66                	sw	s9,20(sp)
    326e:	c86a                	sw	s10,16(sp)
    3270:	c66e                	sw	s11,12(sp)
    3272:	4781                	li	a5,0
    3274:	100074b7          	lui	s1,0x10007
    3278:	10000693          	li	a3,256
    327c:	e3048713          	addi	a4,s1,-464 # 10006e30 <waddr>
    3280:	973e                	add	a4,a4,a5
    3282:	00070023          	sb	zero,0(a4)
    3286:	0785                	addi	a5,a5,1
    3288:	e3048b13          	addi	s6,s1,-464
    328c:	fed798e3          	bne	a5,a3,327c <_Z15vmaxu_testcase1v+0x26>
    3290:	60000793          	li	a5,1536
    3294:	1047a00b          	vsetcsr	zero,a5,260
    3298:	08000793          	li	a5,128
    329c:	1057a00b          	vsetcsr	zero,a5,261
    32a0:	57fd                	li	a5,-1
    32a2:	1067a00b          	vsetcsr	zero,a5,262
    32a6:	103b200b          	vsetcsr	zero,s6,259
    32aa:	10007437          	lui	s0,0x10007
    32ae:	b2040413          	addi	s0,s0,-1248 # 10006b20 <raddr1>
    32b2:	20040a93          	addi	s5,s0,512
    32b6:	10040413          	addi	s0,s0,256
    32ba:	068a806b          	vmax	zero,s5,s0
    32be:	10007a37          	lui	s4,0x10007
    32c2:	e3048993          	addi	s3,s1,-464
    32c6:	8922                	mv	s2,s0
    32c8:	8c22                	mv	s8,s0
    32ca:	e3048493          	addi	s1,s1,-464
    32ce:	4b81                	li	s7,0
    32d0:	d20a0a13          	addi	s4,s4,-736 # 10006d20 <raddr3>
    32d4:	10000cb7          	lui	s9,0x10000
    32d8:	10001d37          	lui	s10,0x10001
    32dc:	10000db7          	lui	s11,0x10000
    32e0:	0004c703          	lbu	a4,0(s1)
    32e4:	000c4783          	lbu	a5,0(s8)
    32e8:	04f70763          	beq	a4,a5,3336 <_Z15vmaxu_testcase1v+0xe0>
    32ec:	100017b7          	lui	a5,0x10001
    32f0:	bc078613          	addi	a2,a5,-1088 # 10000bc0 <__rodata_start__+0xfff7580>
    32f4:	100017b7          	lui	a5,0x10001
    32f8:	87c78593          	addi	a1,a5,-1924 # 1000087c <__rodata_start__+0xfff723c>
    32fc:	1a800693          	li	a3,424
    3300:	014c8513          	addi	a0,s9,20 # 10000014 <__rodata_start__+0xfff69d4>
    3304:	72a030ef          	jal	6a2e <_Z7printf_PKcz>
    3308:	017a07b3          	add	a5,s4,s7
    330c:	000c4703          	lbu	a4,0(s8)
    3310:	0007c783          	lbu	a5,0(a5)
    3314:	00e7d363          	bge	a5,a4,331a <_Z15vmaxu_testcase1v+0xc4>
    3318:	87ba                	mv	a5,a4
    331a:	0004c703          	lbu	a4,0(s1)
    331e:	86de                	mv	a3,s7
    3320:	865e                	mv	a2,s7
    3322:	85de                	mv	a1,s7
    3324:	bd0d0513          	addi	a0,s10,-1072 # 10000bd0 <__rodata_start__+0xfff7590>
    3328:	706030ef          	jal	6a2e <_Z7printf_PKcz>
    332c:	030d8513          	addi	a0,s11,48 # 10000030 <__rodata_start__+0xfff69f0>
    3330:	6fe030ef          	jal	6a2e <_Z7printf_PKcz>
    3334:	9002                	ebreak
    3336:	0b85                	addi	s7,s7,1
    3338:	47c1                	li	a5,16
    333a:	0485                	addi	s1,s1,1
    333c:	0c05                	addi	s8,s8,1
    333e:	fafb91e3          	bne	s7,a5,32e0 <_Z15vmaxu_testcase1v+0x8a>
    3342:	4781                	li	a5,0
    3344:	10000713          	li	a4,256
    3348:	00fb06b3          	add	a3,s6,a5
    334c:	00068023          	sb	zero,0(a3)
    3350:	0785                	addi	a5,a5,1
    3352:	fee79be3          	bne	a5,a4,3348 <_Z15vmaxu_testcase1v+0xf2>
    3356:	60000793          	li	a5,1536
    335a:	1047a00b          	vsetcsr	zero,a5,260
    335e:	6785                	lui	a5,0x1
    3360:	80078793          	addi	a5,a5,-2048 # 800 <_Z21minimum_pwconv_singlePaS_S_+0xc6>
    3364:	1057a00b          	vsetcsr	zero,a5,261
    3368:	57fd                	li	a5,-1
    336a:	1067a00b          	vsetcsr	zero,a5,262
    336e:	103b200b          	vsetcsr	zero,s6,259
    3372:	068a806b          	vmax	zero,s5,s0
    3376:	4401                	li	s0,0
    3378:	10001ab7          	lui	s5,0x10001
    337c:	10001b37          	lui	s6,0x10001
    3380:	10000bb7          	lui	s7,0x10000
    3384:	10001c37          	lui	s8,0x10001
    3388:	10000cb7          	lui	s9,0x10000
    338c:	10000493          	li	s1,256
    3390:	0009c703          	lbu	a4,0(s3)
    3394:	00094783          	lbu	a5,0(s2)
    3398:	04f70363          	beq	a4,a5,33de <_Z15vmaxu_testcase1v+0x188>
    339c:	1bd00693          	li	a3,445
    33a0:	bc0a8613          	addi	a2,s5,-1088 # 10000bc0 <__rodata_start__+0xfff7580>
    33a4:	87cb0593          	addi	a1,s6,-1924 # 1000087c <__rodata_start__+0xfff723c>
    33a8:	014b8513          	addi	a0,s7,20 # 10000014 <__rodata_start__+0xfff69d4>
    33ac:	682030ef          	jal	6a2e <_Z7printf_PKcz>
    33b0:	008a07b3          	add	a5,s4,s0
    33b4:	00094703          	lbu	a4,0(s2)
    33b8:	0007c783          	lbu	a5,0(a5)
    33bc:	00e7d363          	bge	a5,a4,33c2 <_Z15vmaxu_testcase1v+0x16c>
    33c0:	87ba                	mv	a5,a4
    33c2:	0009c703          	lbu	a4,0(s3)
    33c6:	86a2                	mv	a3,s0
    33c8:	8622                	mv	a2,s0
    33ca:	85a2                	mv	a1,s0
    33cc:	c04c0513          	addi	a0,s8,-1020 # 10000c04 <__rodata_start__+0xfff75c4>
    33d0:	65e030ef          	jal	6a2e <_Z7printf_PKcz>
    33d4:	030c8513          	addi	a0,s9,48 # 10000030 <__rodata_start__+0xfff69f0>
    33d8:	656030ef          	jal	6a2e <_Z7printf_PKcz>
    33dc:	9002                	ebreak
    33de:	0405                	addi	s0,s0,1
    33e0:	0985                	addi	s3,s3,1
    33e2:	0905                	addi	s2,s2,1
    33e4:	fa9416e3          	bne	s0,s1,3390 <_Z15vmaxu_testcase1v+0x13a>
    33e8:	10001637          	lui	a2,0x10001
    33ec:	100015b7          	lui	a1,0x10001
    33f0:	10000537          	lui	a0,0x10000
    33f4:	1c100693          	li	a3,449
    33f8:	bc060613          	addi	a2,a2,-1088 # 10000bc0 <__rodata_start__+0xfff7580>
    33fc:	87c58593          	addi	a1,a1,-1924 # 1000087c <__rodata_start__+0xfff723c>
    3400:	01450513          	addi	a0,a0,20 # 10000014 <__rodata_start__+0xfff69d4>
    3404:	62a030ef          	jal	6a2e <_Z7printf_PKcz>
    3408:	10001537          	lui	a0,0x10001
    340c:	c3850513          	addi	a0,a0,-968 # 10000c38 <__rodata_start__+0xfff75f8>
    3410:	61e030ef          	jal	6a2e <_Z7printf_PKcz>
    3414:	5462                	lw	s0,56(sp)
    3416:	50f2                	lw	ra,60(sp)
    3418:	54d2                	lw	s1,52(sp)
    341a:	5942                	lw	s2,48(sp)
    341c:	59b2                	lw	s3,44(sp)
    341e:	5a22                	lw	s4,40(sp)
    3420:	5a92                	lw	s5,36(sp)
    3422:	5b02                	lw	s6,32(sp)
    3424:	4bf2                	lw	s7,28(sp)
    3426:	4c62                	lw	s8,24(sp)
    3428:	4cd2                	lw	s9,20(sp)
    342a:	4d42                	lw	s10,16(sp)
    342c:	4db2                	lw	s11,12(sp)
    342e:	10000537          	lui	a0,0x10000
    3432:	03050513          	addi	a0,a0,48 # 10000030 <__rodata_start__+0xfff69f0>
    3436:	6121                	addi	sp,sp,64
    3438:	5f60306f          	j	6a2e <_Z7printf_PKcz>

0000343c <_Z14vand_testcase1v>:
    343c:	7139                	addi	sp,sp,-64
    343e:	da26                	sw	s1,52(sp)
    3440:	de06                	sw	ra,60(sp)
    3442:	dc22                	sw	s0,56(sp)
    3444:	d84a                	sw	s2,48(sp)
    3446:	d64e                	sw	s3,44(sp)
    3448:	d452                	sw	s4,40(sp)
    344a:	d256                	sw	s5,36(sp)
    344c:	d05a                	sw	s6,32(sp)
    344e:	ce5e                	sw	s7,28(sp)
    3450:	cc62                	sw	s8,24(sp)
    3452:	ca66                	sw	s9,20(sp)
    3454:	c86a                	sw	s10,16(sp)
    3456:	c66e                	sw	s11,12(sp)
    3458:	4781                	li	a5,0
    345a:	100074b7          	lui	s1,0x10007
    345e:	10000693          	li	a3,256
    3462:	e3048713          	addi	a4,s1,-464 # 10006e30 <waddr>
    3466:	973e                	add	a4,a4,a5
    3468:	00070023          	sb	zero,0(a4)
    346c:	0785                	addi	a5,a5,1
    346e:	e3048c93          	addi	s9,s1,-464
    3472:	fed798e3          	bne	a5,a3,3462 <_Z14vand_testcase1v+0x26>
    3476:	70000793          	li	a5,1792
    347a:	1047a00b          	vsetcsr	zero,a5,260
    347e:	08000793          	li	a5,128
    3482:	1057a00b          	vsetcsr	zero,a5,261
    3486:	57fd                	li	a5,-1
    3488:	1067a00b          	vsetcsr	zero,a5,262
    348c:	103ca00b          	vsetcsr	zero,s9,259
    3490:	10007437          	lui	s0,0x10007
    3494:	b2040413          	addi	s0,s0,-1248 # 10006b20 <raddr1>
    3498:	20040c13          	addi	s8,s0,512
    349c:	10040413          	addi	s0,s0,256
    34a0:	0c8c006b          	vand	zero,s8,s0
    34a4:	e3048a93          	addi	s5,s1,-464
    34a8:	8a62                	mv	s4,s8
    34aa:	89a2                	mv	s3,s0
    34ac:	8b22                	mv	s6,s0
    34ae:	8be2                	mv	s7,s8
    34b0:	e3048493          	addi	s1,s1,-464
    34b4:	4901                	li	s2,0
    34b6:	100018b7          	lui	a7,0x10001
    34ba:	10001337          	lui	t1,0x10001
    34be:	10000e37          	lui	t3,0x10000
    34c2:	10001d37          	lui	s10,0x10001
    34c6:	10000db7          	lui	s11,0x10000
    34ca:	4841                	li	a6,16
    34cc:	000b4703          	lbu	a4,0(s6)
    34d0:	000bc783          	lbu	a5,0(s7)
    34d4:	8ff9                	and	a5,a5,a4
    34d6:	0004c703          	lbu	a4,0(s1)
    34da:	04e78663          	beq	a5,a4,3526 <_Z14vand_testcase1v+0xea>
    34de:	c4488613          	addi	a2,a7,-956 # 10000c44 <__rodata_start__+0xfff7604>
    34e2:	87c30593          	addi	a1,t1,-1924 # 1000087c <__rodata_start__+0xfff723c>
    34e6:	014e0513          	addi	a0,t3,20 # 10000014 <__rodata_start__+0xfff69d4>
    34ea:	1d700693          	li	a3,471
    34ee:	540030ef          	jal	6a2e <_Z7printf_PKcz>
    34f2:	000bc703          	lbu	a4,0(s7)
    34f6:	000b4783          	lbu	a5,0(s6)
    34fa:	86ca                	mv	a3,s2
    34fc:	864a                	mv	a2,s2
    34fe:	8ff9                	and	a5,a5,a4
    3500:	0004c703          	lbu	a4,0(s1)
    3504:	85ca                	mv	a1,s2
    3506:	c54d0513          	addi	a0,s10,-940 # 10000c54 <__rodata_start__+0xfff7614>
    350a:	524030ef          	jal	6a2e <_Z7printf_PKcz>
    350e:	030d8513          	addi	a0,s11,48 # 10000030 <__rodata_start__+0xfff69f0>
    3512:	51c030ef          	jal	6a2e <_Z7printf_PKcz>
    3516:	9002                	ebreak
    3518:	4841                	li	a6,16
    351a:	100018b7          	lui	a7,0x10001
    351e:	10001337          	lui	t1,0x10001
    3522:	10000e37          	lui	t3,0x10000
    3526:	0905                	addi	s2,s2,1
    3528:	0485                	addi	s1,s1,1
    352a:	0b85                	addi	s7,s7,1
    352c:	0b05                	addi	s6,s6,1
    352e:	f9091fe3          	bne	s2,a6,34cc <_Z14vand_testcase1v+0x90>
    3532:	4781                	li	a5,0
    3534:	10000713          	li	a4,256
    3538:	00fc86b3          	add	a3,s9,a5
    353c:	00068023          	sb	zero,0(a3)
    3540:	0785                	addi	a5,a5,1
    3542:	fee79be3          	bne	a5,a4,3538 <_Z14vand_testcase1v+0xfc>
    3546:	70000793          	li	a5,1792
    354a:	1047a00b          	vsetcsr	zero,a5,260
    354e:	6785                	lui	a5,0x1
    3550:	80078793          	addi	a5,a5,-2048 # 800 <_Z21minimum_pwconv_singlePaS_S_+0xc6>
    3554:	1057a00b          	vsetcsr	zero,a5,261
    3558:	57fd                	li	a5,-1
    355a:	1067a00b          	vsetcsr	zero,a5,262
    355e:	103ca00b          	vsetcsr	zero,s9,259
    3562:	0c8c006b          	vand	zero,s8,s0
    3566:	4401                	li	s0,0
    3568:	10001937          	lui	s2,0x10001
    356c:	10001b37          	lui	s6,0x10001
    3570:	10000bb7          	lui	s7,0x10000
    3574:	10001c37          	lui	s8,0x10001
    3578:	10000cb7          	lui	s9,0x10000
    357c:	10000493          	li	s1,256
    3580:	0009c703          	lbu	a4,0(s3)
    3584:	000a4783          	lbu	a5,0(s4)
    3588:	8ff9                	and	a5,a5,a4
    358a:	000ac703          	lbu	a4,0(s5)
    358e:	02e78f63          	beq	a5,a4,35cc <_Z14vand_testcase1v+0x190>
    3592:	c4490613          	addi	a2,s2,-956 # 10000c44 <__rodata_start__+0xfff7604>
    3596:	87cb0593          	addi	a1,s6,-1924 # 1000087c <__rodata_start__+0xfff723c>
    359a:	1ec00693          	li	a3,492
    359e:	014b8513          	addi	a0,s7,20 # 10000014 <__rodata_start__+0xfff69d4>
    35a2:	48c030ef          	jal	6a2e <_Z7printf_PKcz>
    35a6:	000a4703          	lbu	a4,0(s4)
    35aa:	0009c783          	lbu	a5,0(s3)
    35ae:	86a2                	mv	a3,s0
    35b0:	8622                	mv	a2,s0
    35b2:	8ff9                	and	a5,a5,a4
    35b4:	000ac703          	lbu	a4,0(s5)
    35b8:	85a2                	mv	a1,s0
    35ba:	c54c0513          	addi	a0,s8,-940 # 10000c54 <__rodata_start__+0xfff7614>
    35be:	470030ef          	jal	6a2e <_Z7printf_PKcz>
    35c2:	030c8513          	addi	a0,s9,48 # 10000030 <__rodata_start__+0xfff69f0>
    35c6:	468030ef          	jal	6a2e <_Z7printf_PKcz>
    35ca:	9002                	ebreak
    35cc:	0405                	addi	s0,s0,1
    35ce:	0a85                	addi	s5,s5,1
    35d0:	0a05                	addi	s4,s4,1
    35d2:	0985                	addi	s3,s3,1
    35d4:	fa9416e3          	bne	s0,s1,3580 <_Z14vand_testcase1v+0x144>
    35d8:	10001637          	lui	a2,0x10001
    35dc:	100015b7          	lui	a1,0x10001
    35e0:	10000537          	lui	a0,0x10000
    35e4:	1f000693          	li	a3,496
    35e8:	c4460613          	addi	a2,a2,-956 # 10000c44 <__rodata_start__+0xfff7604>
    35ec:	87c58593          	addi	a1,a1,-1924 # 1000087c <__rodata_start__+0xfff723c>
    35f0:	01450513          	addi	a0,a0,20 # 10000014 <__rodata_start__+0xfff69d4>
    35f4:	43a030ef          	jal	6a2e <_Z7printf_PKcz>
    35f8:	10001537          	lui	a0,0x10001
    35fc:	c8850513          	addi	a0,a0,-888 # 10000c88 <__rodata_start__+0xfff7648>
    3600:	42e030ef          	jal	6a2e <_Z7printf_PKcz>
    3604:	5462                	lw	s0,56(sp)
    3606:	50f2                	lw	ra,60(sp)
    3608:	54d2                	lw	s1,52(sp)
    360a:	5942                	lw	s2,48(sp)
    360c:	59b2                	lw	s3,44(sp)
    360e:	5a22                	lw	s4,40(sp)
    3610:	5a92                	lw	s5,36(sp)
    3612:	5b02                	lw	s6,32(sp)
    3614:	4bf2                	lw	s7,28(sp)
    3616:	4c62                	lw	s8,24(sp)
    3618:	4cd2                	lw	s9,20(sp)
    361a:	4d42                	lw	s10,16(sp)
    361c:	4db2                	lw	s11,12(sp)
    361e:	10000537          	lui	a0,0x10000
    3622:	03050513          	addi	a0,a0,48 # 10000030 <__rodata_start__+0xfff69f0>
    3626:	6121                	addi	sp,sp,64
    3628:	4060306f          	j	6a2e <_Z7printf_PKcz>

0000362c <_Z13vor_testcase1v>:
    362c:	7139                	addi	sp,sp,-64
    362e:	da26                	sw	s1,52(sp)
    3630:	de06                	sw	ra,60(sp)
    3632:	dc22                	sw	s0,56(sp)
    3634:	d84a                	sw	s2,48(sp)
    3636:	d64e                	sw	s3,44(sp)
    3638:	d452                	sw	s4,40(sp)
    363a:	d256                	sw	s5,36(sp)
    363c:	d05a                	sw	s6,32(sp)
    363e:	ce5e                	sw	s7,28(sp)
    3640:	cc62                	sw	s8,24(sp)
    3642:	ca66                	sw	s9,20(sp)
    3644:	c86a                	sw	s10,16(sp)
    3646:	c66e                	sw	s11,12(sp)
    3648:	4781                	li	a5,0
    364a:	100074b7          	lui	s1,0x10007
    364e:	10000693          	li	a3,256
    3652:	e3048713          	addi	a4,s1,-464 # 10006e30 <waddr>
    3656:	973e                	add	a4,a4,a5
    3658:	00070023          	sb	zero,0(a4)
    365c:	0785                	addi	a5,a5,1
    365e:	e3048c93          	addi	s9,s1,-464
    3662:	fed798e3          	bne	a5,a3,3652 <_Z13vor_testcase1v+0x26>
    3666:	70000793          	li	a5,1792
    366a:	1047a00b          	vsetcsr	zero,a5,260
    366e:	08000793          	li	a5,128
    3672:	1057a00b          	vsetcsr	zero,a5,261
    3676:	57fd                	li	a5,-1
    3678:	1067a00b          	vsetcsr	zero,a5,262
    367c:	103ca00b          	vsetcsr	zero,s9,259
    3680:	10007437          	lui	s0,0x10007
    3684:	b2040413          	addi	s0,s0,-1248 # 10006b20 <raddr1>
    3688:	20040c13          	addi	s8,s0,512
    368c:	10040413          	addi	s0,s0,256
    3690:	0e8c006b          	vor	zero,s8,s0
    3694:	e3048a93          	addi	s5,s1,-464
    3698:	8a62                	mv	s4,s8
    369a:	89a2                	mv	s3,s0
    369c:	8b22                	mv	s6,s0
    369e:	8be2                	mv	s7,s8
    36a0:	e3048493          	addi	s1,s1,-464
    36a4:	4901                	li	s2,0
    36a6:	100018b7          	lui	a7,0x10001
    36aa:	10001337          	lui	t1,0x10001
    36ae:	10000e37          	lui	t3,0x10000
    36b2:	10001d37          	lui	s10,0x10001
    36b6:	10000db7          	lui	s11,0x10000
    36ba:	4841                	li	a6,16
    36bc:	000b4703          	lbu	a4,0(s6)
    36c0:	000bc783          	lbu	a5,0(s7)
    36c4:	8fd9                	or	a5,a5,a4
    36c6:	0004c703          	lbu	a4,0(s1)
    36ca:	04e78663          	beq	a5,a4,3716 <_Z13vor_testcase1v+0xea>
    36ce:	c9488613          	addi	a2,a7,-876 # 10000c94 <__rodata_start__+0xfff7654>
    36d2:	87c30593          	addi	a1,t1,-1924 # 1000087c <__rodata_start__+0xfff723c>
    36d6:	014e0513          	addi	a0,t3,20 # 10000014 <__rodata_start__+0xfff69d4>
    36da:	20600693          	li	a3,518
    36de:	350030ef          	jal	6a2e <_Z7printf_PKcz>
    36e2:	000bc703          	lbu	a4,0(s7)
    36e6:	000b4783          	lbu	a5,0(s6)
    36ea:	86ca                	mv	a3,s2
    36ec:	864a                	mv	a2,s2
    36ee:	8fd9                	or	a5,a5,a4
    36f0:	0004c703          	lbu	a4,0(s1)
    36f4:	85ca                	mv	a1,s2
    36f6:	ca4d0513          	addi	a0,s10,-860 # 10000ca4 <__rodata_start__+0xfff7664>
    36fa:	334030ef          	jal	6a2e <_Z7printf_PKcz>
    36fe:	030d8513          	addi	a0,s11,48 # 10000030 <__rodata_start__+0xfff69f0>
    3702:	32c030ef          	jal	6a2e <_Z7printf_PKcz>
    3706:	9002                	ebreak
    3708:	4841                	li	a6,16
    370a:	100018b7          	lui	a7,0x10001
    370e:	10001337          	lui	t1,0x10001
    3712:	10000e37          	lui	t3,0x10000
    3716:	0905                	addi	s2,s2,1
    3718:	0485                	addi	s1,s1,1
    371a:	0b85                	addi	s7,s7,1
    371c:	0b05                	addi	s6,s6,1
    371e:	f9091fe3          	bne	s2,a6,36bc <_Z13vor_testcase1v+0x90>
    3722:	4781                	li	a5,0
    3724:	10000713          	li	a4,256
    3728:	00fc86b3          	add	a3,s9,a5
    372c:	00068023          	sb	zero,0(a3)
    3730:	0785                	addi	a5,a5,1
    3732:	fee79be3          	bne	a5,a4,3728 <_Z13vor_testcase1v+0xfc>
    3736:	70000793          	li	a5,1792
    373a:	1047a00b          	vsetcsr	zero,a5,260
    373e:	6785                	lui	a5,0x1
    3740:	80078793          	addi	a5,a5,-2048 # 800 <_Z21minimum_pwconv_singlePaS_S_+0xc6>
    3744:	1057a00b          	vsetcsr	zero,a5,261
    3748:	57fd                	li	a5,-1
    374a:	1067a00b          	vsetcsr	zero,a5,262
    374e:	103ca00b          	vsetcsr	zero,s9,259
    3752:	0e8c006b          	vor	zero,s8,s0
    3756:	4401                	li	s0,0
    3758:	10001937          	lui	s2,0x10001
    375c:	10001b37          	lui	s6,0x10001
    3760:	10000bb7          	lui	s7,0x10000
    3764:	10001c37          	lui	s8,0x10001
    3768:	10000cb7          	lui	s9,0x10000
    376c:	10000493          	li	s1,256
    3770:	0009c703          	lbu	a4,0(s3)
    3774:	000a4783          	lbu	a5,0(s4)
    3778:	8fd9                	or	a5,a5,a4
    377a:	000ac703          	lbu	a4,0(s5)
    377e:	02e78f63          	beq	a5,a4,37bc <_Z13vor_testcase1v+0x190>
    3782:	c9490613          	addi	a2,s2,-876 # 10000c94 <__rodata_start__+0xfff7654>
    3786:	87cb0593          	addi	a1,s6,-1924 # 1000087c <__rodata_start__+0xfff723c>
    378a:	21b00693          	li	a3,539
    378e:	014b8513          	addi	a0,s7,20 # 10000014 <__rodata_start__+0xfff69d4>
    3792:	29c030ef          	jal	6a2e <_Z7printf_PKcz>
    3796:	000a4703          	lbu	a4,0(s4)
    379a:	0009c783          	lbu	a5,0(s3)
    379e:	86a2                	mv	a3,s0
    37a0:	8622                	mv	a2,s0
    37a2:	8fd9                	or	a5,a5,a4
    37a4:	000ac703          	lbu	a4,0(s5)
    37a8:	85a2                	mv	a1,s0
    37aa:	ca4c0513          	addi	a0,s8,-860 # 10000ca4 <__rodata_start__+0xfff7664>
    37ae:	280030ef          	jal	6a2e <_Z7printf_PKcz>
    37b2:	030c8513          	addi	a0,s9,48 # 10000030 <__rodata_start__+0xfff69f0>
    37b6:	278030ef          	jal	6a2e <_Z7printf_PKcz>
    37ba:	9002                	ebreak
    37bc:	0405                	addi	s0,s0,1
    37be:	0a85                	addi	s5,s5,1
    37c0:	0a05                	addi	s4,s4,1
    37c2:	0985                	addi	s3,s3,1
    37c4:	fa9416e3          	bne	s0,s1,3770 <_Z13vor_testcase1v+0x144>
    37c8:	10001637          	lui	a2,0x10001
    37cc:	100015b7          	lui	a1,0x10001
    37d0:	10000537          	lui	a0,0x10000
    37d4:	21f00693          	li	a3,543
    37d8:	c9460613          	addi	a2,a2,-876 # 10000c94 <__rodata_start__+0xfff7654>
    37dc:	87c58593          	addi	a1,a1,-1924 # 1000087c <__rodata_start__+0xfff723c>
    37e0:	01450513          	addi	a0,a0,20 # 10000014 <__rodata_start__+0xfff69d4>
    37e4:	24a030ef          	jal	6a2e <_Z7printf_PKcz>
    37e8:	10001537          	lui	a0,0x10001
    37ec:	cd850513          	addi	a0,a0,-808 # 10000cd8 <__rodata_start__+0xfff7698>
    37f0:	23e030ef          	jal	6a2e <_Z7printf_PKcz>
    37f4:	5462                	lw	s0,56(sp)
    37f6:	50f2                	lw	ra,60(sp)
    37f8:	54d2                	lw	s1,52(sp)
    37fa:	5942                	lw	s2,48(sp)
    37fc:	59b2                	lw	s3,44(sp)
    37fe:	5a22                	lw	s4,40(sp)
    3800:	5a92                	lw	s5,36(sp)
    3802:	5b02                	lw	s6,32(sp)
    3804:	4bf2                	lw	s7,28(sp)
    3806:	4c62                	lw	s8,24(sp)
    3808:	4cd2                	lw	s9,20(sp)
    380a:	4d42                	lw	s10,16(sp)
    380c:	4db2                	lw	s11,12(sp)
    380e:	10000537          	lui	a0,0x10000
    3812:	03050513          	addi	a0,a0,48 # 10000030 <__rodata_start__+0xfff69f0>
    3816:	6121                	addi	sp,sp,64
    3818:	2160306f          	j	6a2e <_Z7printf_PKcz>

0000381c <_Z14vxor_testcase1v>:
    381c:	7139                	addi	sp,sp,-64
    381e:	da26                	sw	s1,52(sp)
    3820:	de06                	sw	ra,60(sp)
    3822:	dc22                	sw	s0,56(sp)
    3824:	d84a                	sw	s2,48(sp)
    3826:	d64e                	sw	s3,44(sp)
    3828:	d452                	sw	s4,40(sp)
    382a:	d256                	sw	s5,36(sp)
    382c:	d05a                	sw	s6,32(sp)
    382e:	ce5e                	sw	s7,28(sp)
    3830:	cc62                	sw	s8,24(sp)
    3832:	ca66                	sw	s9,20(sp)
    3834:	c86a                	sw	s10,16(sp)
    3836:	c66e                	sw	s11,12(sp)
    3838:	4781                	li	a5,0
    383a:	100074b7          	lui	s1,0x10007
    383e:	10000693          	li	a3,256
    3842:	e3048713          	addi	a4,s1,-464 # 10006e30 <waddr>
    3846:	973e                	add	a4,a4,a5
    3848:	00070023          	sb	zero,0(a4)
    384c:	0785                	addi	a5,a5,1
    384e:	e3048c93          	addi	s9,s1,-464
    3852:	fed798e3          	bne	a5,a3,3842 <_Z14vxor_testcase1v+0x26>
    3856:	70000793          	li	a5,1792
    385a:	1047a00b          	vsetcsr	zero,a5,260
    385e:	08000793          	li	a5,128
    3862:	1057a00b          	vsetcsr	zero,a5,261
    3866:	57fd                	li	a5,-1
    3868:	1067a00b          	vsetcsr	zero,a5,262
    386c:	103ca00b          	vsetcsr	zero,s9,259
    3870:	10007437          	lui	s0,0x10007
    3874:	b2040413          	addi	s0,s0,-1248 # 10006b20 <raddr1>
    3878:	20040c13          	addi	s8,s0,512
    387c:	10040413          	addi	s0,s0,256
    3880:	108c006b          	vxor	zero,s8,s0
    3884:	e3048a93          	addi	s5,s1,-464
    3888:	8a62                	mv	s4,s8
    388a:	89a2                	mv	s3,s0
    388c:	8b22                	mv	s6,s0
    388e:	8be2                	mv	s7,s8
    3890:	e3048493          	addi	s1,s1,-464
    3894:	4901                	li	s2,0
    3896:	100018b7          	lui	a7,0x10001
    389a:	10001337          	lui	t1,0x10001
    389e:	10000e37          	lui	t3,0x10000
    38a2:	10001d37          	lui	s10,0x10001
    38a6:	10000db7          	lui	s11,0x10000
    38aa:	4841                	li	a6,16
    38ac:	000bc703          	lbu	a4,0(s7)
    38b0:	0004c783          	lbu	a5,0(s1)
    38b4:	8fb9                	xor	a5,a5,a4
    38b6:	000b4703          	lbu	a4,0(s6)
    38ba:	04e78663          	beq	a5,a4,3906 <_Z14vxor_testcase1v+0xea>
    38be:	ce488613          	addi	a2,a7,-796 # 10000ce4 <__rodata_start__+0xfff76a4>
    38c2:	87c30593          	addi	a1,t1,-1924 # 1000087c <__rodata_start__+0xfff723c>
    38c6:	014e0513          	addi	a0,t3,20 # 10000014 <__rodata_start__+0xfff69d4>
    38ca:	23500693          	li	a3,565
    38ce:	160030ef          	jal	6a2e <_Z7printf_PKcz>
    38d2:	000bc703          	lbu	a4,0(s7)
    38d6:	000b4783          	lbu	a5,0(s6)
    38da:	86ca                	mv	a3,s2
    38dc:	864a                	mv	a2,s2
    38de:	8fb9                	xor	a5,a5,a4
    38e0:	0004c703          	lbu	a4,0(s1)
    38e4:	85ca                	mv	a1,s2
    38e6:	cf4d0513          	addi	a0,s10,-780 # 10000cf4 <__rodata_start__+0xfff76b4>
    38ea:	144030ef          	jal	6a2e <_Z7printf_PKcz>
    38ee:	030d8513          	addi	a0,s11,48 # 10000030 <__rodata_start__+0xfff69f0>
    38f2:	13c030ef          	jal	6a2e <_Z7printf_PKcz>
    38f6:	9002                	ebreak
    38f8:	4841                	li	a6,16
    38fa:	100018b7          	lui	a7,0x10001
    38fe:	10001337          	lui	t1,0x10001
    3902:	10000e37          	lui	t3,0x10000
    3906:	0905                	addi	s2,s2,1
    3908:	0485                	addi	s1,s1,1
    390a:	0b85                	addi	s7,s7,1
    390c:	0b05                	addi	s6,s6,1
    390e:	f9091fe3          	bne	s2,a6,38ac <_Z14vxor_testcase1v+0x90>
    3912:	4781                	li	a5,0
    3914:	10000713          	li	a4,256
    3918:	00fc86b3          	add	a3,s9,a5
    391c:	00068023          	sb	zero,0(a3)
    3920:	0785                	addi	a5,a5,1
    3922:	fee79be3          	bne	a5,a4,3918 <_Z14vxor_testcase1v+0xfc>
    3926:	70000793          	li	a5,1792
    392a:	1047a00b          	vsetcsr	zero,a5,260
    392e:	6785                	lui	a5,0x1
    3930:	80078793          	addi	a5,a5,-2048 # 800 <_Z21minimum_pwconv_singlePaS_S_+0xc6>
    3934:	1057a00b          	vsetcsr	zero,a5,261
    3938:	57fd                	li	a5,-1
    393a:	1067a00b          	vsetcsr	zero,a5,262
    393e:	103ca00b          	vsetcsr	zero,s9,259
    3942:	108c006b          	vxor	zero,s8,s0
    3946:	4401                	li	s0,0
    3948:	10001937          	lui	s2,0x10001
    394c:	10001b37          	lui	s6,0x10001
    3950:	10000bb7          	lui	s7,0x10000
    3954:	10001c37          	lui	s8,0x10001
    3958:	10000cb7          	lui	s9,0x10000
    395c:	10000493          	li	s1,256
    3960:	000a4703          	lbu	a4,0(s4)
    3964:	000ac783          	lbu	a5,0(s5)
    3968:	8fb9                	xor	a5,a5,a4
    396a:	0009c703          	lbu	a4,0(s3)
    396e:	02e78f63          	beq	a5,a4,39ac <_Z14vxor_testcase1v+0x190>
    3972:	ce490613          	addi	a2,s2,-796 # 10000ce4 <__rodata_start__+0xfff76a4>
    3976:	87cb0593          	addi	a1,s6,-1924 # 1000087c <__rodata_start__+0xfff723c>
    397a:	24a00693          	li	a3,586
    397e:	014b8513          	addi	a0,s7,20 # 10000014 <__rodata_start__+0xfff69d4>
    3982:	0ac030ef          	jal	6a2e <_Z7printf_PKcz>
    3986:	000a4703          	lbu	a4,0(s4)
    398a:	0009c783          	lbu	a5,0(s3)
    398e:	86a2                	mv	a3,s0
    3990:	8622                	mv	a2,s0
    3992:	8fb9                	xor	a5,a5,a4
    3994:	000ac703          	lbu	a4,0(s5)
    3998:	85a2                	mv	a1,s0
    399a:	cf4c0513          	addi	a0,s8,-780 # 10000cf4 <__rodata_start__+0xfff76b4>
    399e:	090030ef          	jal	6a2e <_Z7printf_PKcz>
    39a2:	030c8513          	addi	a0,s9,48 # 10000030 <__rodata_start__+0xfff69f0>
    39a6:	088030ef          	jal	6a2e <_Z7printf_PKcz>
    39aa:	9002                	ebreak
    39ac:	0405                	addi	s0,s0,1
    39ae:	0a85                	addi	s5,s5,1
    39b0:	0a05                	addi	s4,s4,1
    39b2:	0985                	addi	s3,s3,1
    39b4:	fa9416e3          	bne	s0,s1,3960 <_Z14vxor_testcase1v+0x144>
    39b8:	10001637          	lui	a2,0x10001
    39bc:	100015b7          	lui	a1,0x10001
    39c0:	10000537          	lui	a0,0x10000
    39c4:	24e00693          	li	a3,590
    39c8:	ce460613          	addi	a2,a2,-796 # 10000ce4 <__rodata_start__+0xfff76a4>
    39cc:	87c58593          	addi	a1,a1,-1924 # 1000087c <__rodata_start__+0xfff723c>
    39d0:	01450513          	addi	a0,a0,20 # 10000014 <__rodata_start__+0xfff69d4>
    39d4:	05a030ef          	jal	6a2e <_Z7printf_PKcz>
    39d8:	10001537          	lui	a0,0x10001
    39dc:	d2850513          	addi	a0,a0,-728 # 10000d28 <__rodata_start__+0xfff76e8>
    39e0:	04e030ef          	jal	6a2e <_Z7printf_PKcz>
    39e4:	5462                	lw	s0,56(sp)
    39e6:	50f2                	lw	ra,60(sp)
    39e8:	54d2                	lw	s1,52(sp)
    39ea:	5942                	lw	s2,48(sp)
    39ec:	59b2                	lw	s3,44(sp)
    39ee:	5a22                	lw	s4,40(sp)
    39f0:	5a92                	lw	s5,36(sp)
    39f2:	5b02                	lw	s6,32(sp)
    39f4:	4bf2                	lw	s7,28(sp)
    39f6:	4c62                	lw	s8,24(sp)
    39f8:	4cd2                	lw	s9,20(sp)
    39fa:	4d42                	lw	s10,16(sp)
    39fc:	4db2                	lw	s11,12(sp)
    39fe:	10000537          	lui	a0,0x10000
    3a02:	03050513          	addi	a0,a0,48 # 10000030 <__rodata_start__+0xfff69f0>
    3a06:	6121                	addi	sp,sp,64
    3a08:	0260306f          	j	6a2e <_Z7printf_PKcz>

00003a0c <_Z13vmv_testcase1v>:
    3a0c:	7139                	addi	sp,sp,-64
    3a0e:	dc22                	sw	s0,56(sp)
    3a10:	de06                	sw	ra,60(sp)
    3a12:	da26                	sw	s1,52(sp)
    3a14:	d84a                	sw	s2,48(sp)
    3a16:	d64e                	sw	s3,44(sp)
    3a18:	d452                	sw	s4,40(sp)
    3a1a:	d256                	sw	s5,36(sp)
    3a1c:	d05a                	sw	s6,32(sp)
    3a1e:	ce5e                	sw	s7,28(sp)
    3a20:	cc62                	sw	s8,24(sp)
    3a22:	ca66                	sw	s9,20(sp)
    3a24:	c86a                	sw	s10,16(sp)
    3a26:	c66e                	sw	s11,12(sp)
    3a28:	4781                	li	a5,0
    3a2a:	10007437          	lui	s0,0x10007
    3a2e:	10000693          	li	a3,256
    3a32:	e3040713          	addi	a4,s0,-464 # 10006e30 <waddr>
    3a36:	973e                	add	a4,a4,a5
    3a38:	00070023          	sb	zero,0(a4)
    3a3c:	0785                	addi	a5,a5,1
    3a3e:	e3040b13          	addi	s6,s0,-464
    3a42:	fed798e3          	bne	a5,a3,3a32 <_Z13vmv_testcase1v+0x26>
    3a46:	70000793          	li	a5,1792
    3a4a:	1047a00b          	vsetcsr	zero,a5,260
    3a4e:	08000793          	li	a5,128
    3a52:	1057a00b          	vsetcsr	zero,a5,261
    3a56:	57fd                	li	a5,-1
    3a58:	1067a00b          	vsetcsr	zero,a5,262
    3a5c:	100074b7          	lui	s1,0x10007
    3a60:	c2048493          	addi	s1,s1,-992 # 10006c20 <raddr4>
    3a64:	1764806b          	vmv	zero,s1,s6
    3a68:	e3040a13          	addi	s4,s0,-464
    3a6c:	89a6                	mv	s3,s1
    3a6e:	8aa6                	mv	s5,s1
    3a70:	e3040413          	addi	s0,s0,-464
    3a74:	4901                	li	s2,0
    3a76:	10001c37          	lui	s8,0x10001
    3a7a:	10001cb7          	lui	s9,0x10001
    3a7e:	100007b7          	lui	a5,0x10000
    3a82:	10001d37          	lui	s10,0x10001
    3a86:	10000db7          	lui	s11,0x10000
    3a8a:	4bc1                	li	s7,16
    3a8c:	00044683          	lbu	a3,0(s0)
    3a90:	000ac703          	lbu	a4,0(s5)
    3a94:	02e68d63          	beq	a3,a4,3ace <_Z13vmv_testcase1v+0xc2>
    3a98:	01478513          	addi	a0,a5,20 # 10000014 <__rodata_start__+0xfff69d4>
    3a9c:	d34c0613          	addi	a2,s8,-716 # 10000d34 <__rodata_start__+0xfff76f4>
    3aa0:	87cc8593          	addi	a1,s9,-1924 # 1000087c <__rodata_start__+0xfff723c>
    3aa4:	26200693          	li	a3,610
    3aa8:	787020ef          	jal	6a2e <_Z7printf_PKcz>
    3aac:	000ac703          	lbu	a4,0(s5)
    3ab0:	00044683          	lbu	a3,0(s0)
    3ab4:	864a                	mv	a2,s2
    3ab6:	85ca                	mv	a1,s2
    3ab8:	d44d0513          	addi	a0,s10,-700 # 10000d44 <__rodata_start__+0xfff7704>
    3abc:	773020ef          	jal	6a2e <_Z7printf_PKcz>
    3ac0:	030d8513          	addi	a0,s11,48 # 10000030 <__rodata_start__+0xfff69f0>
    3ac4:	76b020ef          	jal	6a2e <_Z7printf_PKcz>
    3ac8:	9002                	ebreak
    3aca:	100007b7          	lui	a5,0x10000
    3ace:	0905                	addi	s2,s2,1
    3ad0:	0405                	addi	s0,s0,1
    3ad2:	0a85                	addi	s5,s5,1
    3ad4:	fb791ce3          	bne	s2,s7,3a8c <_Z13vmv_testcase1v+0x80>
    3ad8:	4781                	li	a5,0
    3ada:	10000713          	li	a4,256
    3ade:	00fb06b3          	add	a3,s6,a5
    3ae2:	00068023          	sb	zero,0(a3)
    3ae6:	0785                	addi	a5,a5,1 # 10000001 <__rodata_start__+0xfff69c1>
    3ae8:	fee79be3          	bne	a5,a4,3ade <_Z13vmv_testcase1v+0xd2>
    3aec:	70000793          	li	a5,1792
    3af0:	1047a00b          	vsetcsr	zero,a5,260
    3af4:	6785                	lui	a5,0x1
    3af6:	80078793          	addi	a5,a5,-2048 # 800 <_Z21minimum_pwconv_singlePaS_S_+0xc6>
    3afa:	1057a00b          	vsetcsr	zero,a5,261
    3afe:	57fd                	li	a5,-1
    3b00:	1067a00b          	vsetcsr	zero,a5,262
    3b04:	1764806b          	vmv	zero,s1,s6
    3b08:	4401                	li	s0,0
    3b0a:	10001937          	lui	s2,0x10001
    3b0e:	10001ab7          	lui	s5,0x10001
    3b12:	10000b37          	lui	s6,0x10000
    3b16:	10001bb7          	lui	s7,0x10001
    3b1a:	10000c37          	lui	s8,0x10000
    3b1e:	10000493          	li	s1,256
    3b22:	000a4703          	lbu	a4,0(s4)
    3b26:	0009c783          	lbu	a5,0(s3)
    3b2a:	02f70b63          	beq	a4,a5,3b60 <_Z13vmv_testcase1v+0x154>
    3b2e:	d3490613          	addi	a2,s2,-716 # 10000d34 <__rodata_start__+0xfff76f4>
    3b32:	87ca8593          	addi	a1,s5,-1924 # 1000087c <__rodata_start__+0xfff723c>
    3b36:	27600693          	li	a3,630
    3b3a:	014b0513          	addi	a0,s6,20 # 10000014 <__rodata_start__+0xfff69d4>
    3b3e:	6f1020ef          	jal	6a2e <_Z7printf_PKcz>
    3b42:	0009c703          	lbu	a4,0(s3)
    3b46:	000a4683          	lbu	a3,0(s4)
    3b4a:	8622                	mv	a2,s0
    3b4c:	85a2                	mv	a1,s0
    3b4e:	d44b8513          	addi	a0,s7,-700 # 10000d44 <__rodata_start__+0xfff7704>
    3b52:	6dd020ef          	jal	6a2e <_Z7printf_PKcz>
    3b56:	030c0513          	addi	a0,s8,48 # 10000030 <__rodata_start__+0xfff69f0>
    3b5a:	6d5020ef          	jal	6a2e <_Z7printf_PKcz>
    3b5e:	9002                	ebreak
    3b60:	0405                	addi	s0,s0,1
    3b62:	0a05                	addi	s4,s4,1
    3b64:	0985                	addi	s3,s3,1
    3b66:	fa941ee3          	bne	s0,s1,3b22 <_Z13vmv_testcase1v+0x116>
    3b6a:	10001637          	lui	a2,0x10001
    3b6e:	100015b7          	lui	a1,0x10001
    3b72:	10000537          	lui	a0,0x10000
    3b76:	27a00693          	li	a3,634
    3b7a:	d3460613          	addi	a2,a2,-716 # 10000d34 <__rodata_start__+0xfff76f4>
    3b7e:	87c58593          	addi	a1,a1,-1924 # 1000087c <__rodata_start__+0xfff723c>
    3b82:	01450513          	addi	a0,a0,20 # 10000014 <__rodata_start__+0xfff69d4>
    3b86:	6a9020ef          	jal	6a2e <_Z7printf_PKcz>
    3b8a:	10001537          	lui	a0,0x10001
    3b8e:	d6850513          	addi	a0,a0,-664 # 10000d68 <__rodata_start__+0xfff7728>
    3b92:	69d020ef          	jal	6a2e <_Z7printf_PKcz>
    3b96:	5462                	lw	s0,56(sp)
    3b98:	50f2                	lw	ra,60(sp)
    3b9a:	54d2                	lw	s1,52(sp)
    3b9c:	5942                	lw	s2,48(sp)
    3b9e:	59b2                	lw	s3,44(sp)
    3ba0:	5a22                	lw	s4,40(sp)
    3ba2:	5a92                	lw	s5,36(sp)
    3ba4:	5b02                	lw	s6,32(sp)
    3ba6:	4bf2                	lw	s7,28(sp)
    3ba8:	4c62                	lw	s8,24(sp)
    3baa:	4cd2                	lw	s9,20(sp)
    3bac:	4d42                	lw	s10,16(sp)
    3bae:	4db2                	lw	s11,12(sp)
    3bb0:	10000537          	lui	a0,0x10000
    3bb4:	03050513          	addi	a0,a0,48 # 10000030 <__rodata_start__+0xfff69f0>
    3bb8:	6121                	addi	sp,sp,64
    3bba:	6750206f          	j	6a2e <_Z7printf_PKcz>

00003bbe <_Z15vssrl_testcase1v>:
    3bbe:	7139                	addi	sp,sp,-64
    3bc0:	dc22                	sw	s0,56(sp)
    3bc2:	de06                	sw	ra,60(sp)
    3bc4:	da26                	sw	s1,52(sp)
    3bc6:	d84a                	sw	s2,48(sp)
    3bc8:	d64e                	sw	s3,44(sp)
    3bca:	d452                	sw	s4,40(sp)
    3bcc:	d256                	sw	s5,36(sp)
    3bce:	d05a                	sw	s6,32(sp)
    3bd0:	ce5e                	sw	s7,28(sp)
    3bd2:	cc62                	sw	s8,24(sp)
    3bd4:	ca66                	sw	s9,20(sp)
    3bd6:	c86a                	sw	s10,16(sp)
    3bd8:	c66e                	sw	s11,12(sp)
    3bda:	4781                	li	a5,0
    3bdc:	10007437          	lui	s0,0x10007
    3be0:	10000693          	li	a3,256
    3be4:	e3040713          	addi	a4,s0,-464 # 10006e30 <waddr>
    3be8:	973e                	add	a4,a4,a5
    3bea:	00070023          	sb	zero,0(a4)
    3bee:	0785                	addi	a5,a5,1
    3bf0:	e3040a93          	addi	s5,s0,-464
    3bf4:	fed798e3          	bne	a5,a3,3be4 <_Z15vssrl_testcase1v+0x26>
    3bf8:	70000793          	li	a5,1792
    3bfc:	1047a00b          	vsetcsr	zero,a5,260
    3c00:	08000793          	li	a5,128
    3c04:	1057a00b          	vsetcsr	zero,a5,261
    3c08:	57fd                	li	a5,-1
    3c0a:	1067a00b          	vsetcsr	zero,a5,262
    3c0e:	103aa00b          	vsetcsr	zero,s5,259
    3c12:	100074b7          	lui	s1,0x10007
    3c16:	b2048b13          	addi	s6,s1,-1248 # 10006b20 <raddr1>
    3c1a:	4785                	li	a5,1
    3c1c:	1967806b          	vssrl	zero,a5,s6
    3c20:	e3040a13          	addi	s4,s0,-464
    3c24:	b2048993          	addi	s3,s1,-1248
    3c28:	e3040413          	addi	s0,s0,-464
    3c2c:	b2048493          	addi	s1,s1,-1248
    3c30:	4901                	li	s2,0
    3c32:	10001d37          	lui	s10,0x10001
    3c36:	10001db7          	lui	s11,0x10001
    3c3a:	10000837          	lui	a6,0x10000
    3c3e:	10001c37          	lui	s8,0x10001
    3c42:	10000cb7          	lui	s9,0x10000
    3c46:	4bc1                	li	s7,16
    3c48:	0004c783          	lbu	a5,0(s1)
    3c4c:	00044703          	lbu	a4,0(s0)
    3c50:	8385                	srli	a5,a5,0x1
    3c52:	02f70e63          	beq	a4,a5,3c8e <_Z15vssrl_testcase1v+0xd0>
    3c56:	01480513          	addi	a0,a6,20 # 10000014 <__rodata_start__+0xfff69d4>
    3c5a:	d74d0613          	addi	a2,s10,-652 # 10000d74 <__rodata_start__+0xfff7734>
    3c5e:	87cd8593          	addi	a1,s11,-1924 # 1000087c <__rodata_start__+0xfff723c>
    3c62:	28e00693          	li	a3,654
    3c66:	5c9020ef          	jal	6a2e <_Z7printf_PKcz>
    3c6a:	0004c703          	lbu	a4,0(s1)
    3c6e:	00044683          	lbu	a3,0(s0)
    3c72:	864a                	mv	a2,s2
    3c74:	8305                	srli	a4,a4,0x1
    3c76:	85ca                	mv	a1,s2
    3c78:	d84c0513          	addi	a0,s8,-636 # 10000d84 <__rodata_start__+0xfff7744>
    3c7c:	5b3020ef          	jal	6a2e <_Z7printf_PKcz>
    3c80:	030c8513          	addi	a0,s9,48 # 10000030 <__rodata_start__+0xfff69f0>
    3c84:	5ab020ef          	jal	6a2e <_Z7printf_PKcz>
    3c88:	9002                	ebreak
    3c8a:	10000837          	lui	a6,0x10000
    3c8e:	0905                	addi	s2,s2,1
    3c90:	0405                	addi	s0,s0,1
    3c92:	0485                	addi	s1,s1,1
    3c94:	fb791ae3          	bne	s2,s7,3c48 <_Z15vssrl_testcase1v+0x8a>
    3c98:	4781                	li	a5,0
    3c9a:	10000713          	li	a4,256
    3c9e:	00fa86b3          	add	a3,s5,a5
    3ca2:	00068023          	sb	zero,0(a3)
    3ca6:	0785                	addi	a5,a5,1
    3ca8:	fee79be3          	bne	a5,a4,3c9e <_Z15vssrl_testcase1v+0xe0>
    3cac:	70000793          	li	a5,1792
    3cb0:	1047a00b          	vsetcsr	zero,a5,260
    3cb4:	6785                	lui	a5,0x1
    3cb6:	80078793          	addi	a5,a5,-2048 # 800 <_Z21minimum_pwconv_singlePaS_S_+0xc6>
    3cba:	1057a00b          	vsetcsr	zero,a5,261
    3cbe:	57fd                	li	a5,-1
    3cc0:	1067a00b          	vsetcsr	zero,a5,262
    3cc4:	103aa00b          	vsetcsr	zero,s5,259
    3cc8:	4785                	li	a5,1
    3cca:	1967806b          	vssrl	zero,a5,s6
    3cce:	4401                	li	s0,0
    3cd0:	10001937          	lui	s2,0x10001
    3cd4:	10001ab7          	lui	s5,0x10001
    3cd8:	10000b37          	lui	s6,0x10000
    3cdc:	10001bb7          	lui	s7,0x10001
    3ce0:	10000c37          	lui	s8,0x10000
    3ce4:	10000493          	li	s1,256
    3ce8:	0009c783          	lbu	a5,0(s3)
    3cec:	000a4703          	lbu	a4,0(s4)
    3cf0:	8385                	srli	a5,a5,0x1
    3cf2:	02f70c63          	beq	a4,a5,3d2a <_Z15vssrl_testcase1v+0x16c>
    3cf6:	d7490613          	addi	a2,s2,-652 # 10000d74 <__rodata_start__+0xfff7734>
    3cfa:	87ca8593          	addi	a1,s5,-1924 # 1000087c <__rodata_start__+0xfff723c>
    3cfe:	2a300693          	li	a3,675
    3d02:	014b0513          	addi	a0,s6,20 # 10000014 <__rodata_start__+0xfff69d4>
    3d06:	529020ef          	jal	6a2e <_Z7printf_PKcz>
    3d0a:	0009c703          	lbu	a4,0(s3)
    3d0e:	000a4683          	lbu	a3,0(s4)
    3d12:	8622                	mv	a2,s0
    3d14:	8305                	srli	a4,a4,0x1
    3d16:	85a2                	mv	a1,s0
    3d18:	d84b8513          	addi	a0,s7,-636 # 10000d84 <__rodata_start__+0xfff7744>
    3d1c:	513020ef          	jal	6a2e <_Z7printf_PKcz>
    3d20:	030c0513          	addi	a0,s8,48 # 10000030 <__rodata_start__+0xfff69f0>
    3d24:	50b020ef          	jal	6a2e <_Z7printf_PKcz>
    3d28:	9002                	ebreak
    3d2a:	0405                	addi	s0,s0,1
    3d2c:	0a05                	addi	s4,s4,1
    3d2e:	0985                	addi	s3,s3,1
    3d30:	fa941ce3          	bne	s0,s1,3ce8 <_Z15vssrl_testcase1v+0x12a>
    3d34:	10001637          	lui	a2,0x10001
    3d38:	100015b7          	lui	a1,0x10001
    3d3c:	10000537          	lui	a0,0x10000
    3d40:	2a700693          	li	a3,679
    3d44:	d7460613          	addi	a2,a2,-652 # 10000d74 <__rodata_start__+0xfff7734>
    3d48:	87c58593          	addi	a1,a1,-1924 # 1000087c <__rodata_start__+0xfff723c>
    3d4c:	01450513          	addi	a0,a0,20 # 10000014 <__rodata_start__+0xfff69d4>
    3d50:	4df020ef          	jal	6a2e <_Z7printf_PKcz>
    3d54:	10001537          	lui	a0,0x10001
    3d58:	db050513          	addi	a0,a0,-592 # 10000db0 <__rodata_start__+0xfff7770>
    3d5c:	4d3020ef          	jal	6a2e <_Z7printf_PKcz>
    3d60:	5462                	lw	s0,56(sp)
    3d62:	50f2                	lw	ra,60(sp)
    3d64:	54d2                	lw	s1,52(sp)
    3d66:	5942                	lw	s2,48(sp)
    3d68:	59b2                	lw	s3,44(sp)
    3d6a:	5a22                	lw	s4,40(sp)
    3d6c:	5a92                	lw	s5,36(sp)
    3d6e:	5b02                	lw	s6,32(sp)
    3d70:	4bf2                	lw	s7,28(sp)
    3d72:	4c62                	lw	s8,24(sp)
    3d74:	4cd2                	lw	s9,20(sp)
    3d76:	4d42                	lw	s10,16(sp)
    3d78:	4db2                	lw	s11,12(sp)
    3d7a:	10000537          	lui	a0,0x10000
    3d7e:	03050513          	addi	a0,a0,48 # 10000030 <__rodata_start__+0xfff69f0>
    3d82:	6121                	addi	sp,sp,64
    3d84:	4ab0206f          	j	6a2e <_Z7printf_PKcz>

00003d88 <_Z15vssra_testcase1v>:
    3d88:	7139                	addi	sp,sp,-64
    3d8a:	dc22                	sw	s0,56(sp)
    3d8c:	de06                	sw	ra,60(sp)
    3d8e:	da26                	sw	s1,52(sp)
    3d90:	d84a                	sw	s2,48(sp)
    3d92:	d64e                	sw	s3,44(sp)
    3d94:	d452                	sw	s4,40(sp)
    3d96:	d256                	sw	s5,36(sp)
    3d98:	d05a                	sw	s6,32(sp)
    3d9a:	ce5e                	sw	s7,28(sp)
    3d9c:	cc62                	sw	s8,24(sp)
    3d9e:	ca66                	sw	s9,20(sp)
    3da0:	c86a                	sw	s10,16(sp)
    3da2:	c66e                	sw	s11,12(sp)
    3da4:	4781                	li	a5,0
    3da6:	10007437          	lui	s0,0x10007
    3daa:	10000693          	li	a3,256
    3dae:	e3040713          	addi	a4,s0,-464 # 10006e30 <waddr>
    3db2:	973e                	add	a4,a4,a5
    3db4:	00070023          	sb	zero,0(a4)
    3db8:	0785                	addi	a5,a5,1
    3dba:	e3040a93          	addi	s5,s0,-464
    3dbe:	fed798e3          	bne	a5,a3,3dae <_Z15vssra_testcase1v+0x26>
    3dc2:	70000793          	li	a5,1792
    3dc6:	1047a00b          	vsetcsr	zero,a5,260
    3dca:	08000793          	li	a5,128
    3dce:	1057a00b          	vsetcsr	zero,a5,261
    3dd2:	57fd                	li	a5,-1
    3dd4:	1067a00b          	vsetcsr	zero,a5,262
    3dd8:	103aa00b          	vsetcsr	zero,s5,259
    3ddc:	100074b7          	lui	s1,0x10007
    3de0:	b2048c13          	addi	s8,s1,-1248 # 10006b20 <raddr1>
    3de4:	4785                	li	a5,1
    3de6:	1b87806b          	vssra	zero,a5,s8
    3dea:	e3040993          	addi	s3,s0,-464
    3dee:	b2048913          	addi	s2,s1,-1248
    3df2:	e3040413          	addi	s0,s0,-464
    3df6:	b2048493          	addi	s1,s1,-1248
    3dfa:	4a01                	li	s4,0
    3dfc:	10001d37          	lui	s10,0x10001
    3e00:	10001db7          	lui	s11,0x10001
    3e04:	10000837          	lui	a6,0x10000
    3e08:	10001b37          	lui	s6,0x10001
    3e0c:	10000bb7          	lui	s7,0x10000
    3e10:	4cc1                	li	s9,16
    3e12:	00048783          	lb	a5,0(s1)
    3e16:	00044703          	lbu	a4,0(s0)
    3e1a:	8785                	srai	a5,a5,0x1
    3e1c:	8fb9                	xor	a5,a5,a4
    3e1e:	0ff7f793          	zext.b	a5,a5
    3e22:	cf9d                	beqz	a5,3e60 <_Z15vssra_testcase1v+0xd8>
    3e24:	01480513          	addi	a0,a6,20 # 10000014 <__rodata_start__+0xfff69d4>
    3e28:	dbcd0613          	addi	a2,s10,-580 # 10000dbc <__rodata_start__+0xfff777c>
    3e2c:	87cd8593          	addi	a1,s11,-1924 # 1000087c <__rodata_start__+0xfff723c>
    3e30:	2bb00693          	li	a3,699
    3e34:	3fb020ef          	jal	6a2e <_Z7printf_PKcz>
    3e38:	00048703          	lb	a4,0(s1)
    3e3c:	00044683          	lbu	a3,0(s0)
    3e40:	8652                	mv	a2,s4
    3e42:	8705                	srai	a4,a4,0x1
    3e44:	0ff77713          	zext.b	a4,a4
    3e48:	85d2                	mv	a1,s4
    3e4a:	d84b0513          	addi	a0,s6,-636 # 10000d84 <__rodata_start__+0xfff7744>
    3e4e:	3e1020ef          	jal	6a2e <_Z7printf_PKcz>
    3e52:	030b8513          	addi	a0,s7,48 # 10000030 <__rodata_start__+0xfff69f0>
    3e56:	3d9020ef          	jal	6a2e <_Z7printf_PKcz>
    3e5a:	9002                	ebreak
    3e5c:	10000837          	lui	a6,0x10000
    3e60:	0a05                	addi	s4,s4,1
    3e62:	0405                	addi	s0,s0,1
    3e64:	0485                	addi	s1,s1,1
    3e66:	fb9a16e3          	bne	s4,s9,3e12 <_Z15vssra_testcase1v+0x8a>
    3e6a:	4781                	li	a5,0
    3e6c:	10000713          	li	a4,256
    3e70:	00fa86b3          	add	a3,s5,a5
    3e74:	00068023          	sb	zero,0(a3)
    3e78:	0785                	addi	a5,a5,1
    3e7a:	fee79be3          	bne	a5,a4,3e70 <_Z15vssra_testcase1v+0xe8>
    3e7e:	70000793          	li	a5,1792
    3e82:	1047a00b          	vsetcsr	zero,a5,260
    3e86:	6785                	lui	a5,0x1
    3e88:	80078793          	addi	a5,a5,-2048 # 800 <_Z21minimum_pwconv_singlePaS_S_+0xc6>
    3e8c:	1057a00b          	vsetcsr	zero,a5,261
    3e90:	57fd                	li	a5,-1
    3e92:	1067a00b          	vsetcsr	zero,a5,262
    3e96:	103aa00b          	vsetcsr	zero,s5,259
    3e9a:	4785                	li	a5,1
    3e9c:	1b87806b          	vssra	zero,a5,s8
    3ea0:	4401                	li	s0,0
    3ea2:	10001b37          	lui	s6,0x10001
    3ea6:	10001bb7          	lui	s7,0x10001
    3eaa:	10000c37          	lui	s8,0x10000
    3eae:	10001a37          	lui	s4,0x10001
    3eb2:	10000ab7          	lui	s5,0x10000
    3eb6:	44c1                	li	s1,16
    3eb8:	00090783          	lb	a5,0(s2)
    3ebc:	0009c703          	lbu	a4,0(s3)
    3ec0:	8785                	srai	a5,a5,0x1
    3ec2:	8fb9                	xor	a5,a5,a4
    3ec4:	0ff7f793          	zext.b	a5,a5
    3ec8:	cf8d                	beqz	a5,3f02 <_Z15vssra_testcase1v+0x17a>
    3eca:	dbcb0613          	addi	a2,s6,-580 # 10000dbc <__rodata_start__+0xfff777c>
    3ece:	87cb8593          	addi	a1,s7,-1924 # 1000087c <__rodata_start__+0xfff723c>
    3ed2:	2d000693          	li	a3,720
    3ed6:	014c0513          	addi	a0,s8,20 # 10000014 <__rodata_start__+0xfff69d4>
    3eda:	355020ef          	jal	6a2e <_Z7printf_PKcz>
    3ede:	00090703          	lb	a4,0(s2)
    3ee2:	0009c683          	lbu	a3,0(s3)
    3ee6:	8622                	mv	a2,s0
    3ee8:	8705                	srai	a4,a4,0x1
    3eea:	0ff77713          	zext.b	a4,a4
    3eee:	85a2                	mv	a1,s0
    3ef0:	d84a0513          	addi	a0,s4,-636 # 10000d84 <__rodata_start__+0xfff7744>
    3ef4:	33b020ef          	jal	6a2e <_Z7printf_PKcz>
    3ef8:	030a8513          	addi	a0,s5,48 # 10000030 <__rodata_start__+0xfff69f0>
    3efc:	333020ef          	jal	6a2e <_Z7printf_PKcz>
    3f00:	9002                	ebreak
    3f02:	0405                	addi	s0,s0,1
    3f04:	0985                	addi	s3,s3,1
    3f06:	0905                	addi	s2,s2,1
    3f08:	fa9418e3          	bne	s0,s1,3eb8 <_Z15vssra_testcase1v+0x130>
    3f0c:	10001637          	lui	a2,0x10001
    3f10:	100015b7          	lui	a1,0x10001
    3f14:	10000537          	lui	a0,0x10000
    3f18:	2d400693          	li	a3,724
    3f1c:	dbc60613          	addi	a2,a2,-580 # 10000dbc <__rodata_start__+0xfff777c>
    3f20:	87c58593          	addi	a1,a1,-1924 # 1000087c <__rodata_start__+0xfff723c>
    3f24:	01450513          	addi	a0,a0,20 # 10000014 <__rodata_start__+0xfff69d4>
    3f28:	307020ef          	jal	6a2e <_Z7printf_PKcz>
    3f2c:	10001537          	lui	a0,0x10001
    3f30:	dcc50513          	addi	a0,a0,-564 # 10000dcc <__rodata_start__+0xfff778c>
    3f34:	2fb020ef          	jal	6a2e <_Z7printf_PKcz>
    3f38:	5462                	lw	s0,56(sp)
    3f3a:	50f2                	lw	ra,60(sp)
    3f3c:	54d2                	lw	s1,52(sp)
    3f3e:	5942                	lw	s2,48(sp)
    3f40:	59b2                	lw	s3,44(sp)
    3f42:	5a22                	lw	s4,40(sp)
    3f44:	5a92                	lw	s5,36(sp)
    3f46:	5b02                	lw	s6,32(sp)
    3f48:	4bf2                	lw	s7,28(sp)
    3f4a:	4c62                	lw	s8,24(sp)
    3f4c:	4cd2                	lw	s9,20(sp)
    3f4e:	4d42                	lw	s10,16(sp)
    3f50:	4db2                	lw	s11,12(sp)
    3f52:	10000537          	lui	a0,0x10000
    3f56:	03050513          	addi	a0,a0,48 # 10000030 <__rodata_start__+0xfff69f0>
    3f5a:	6121                	addi	sp,sp,64
    3f5c:	2d30206f          	j	6a2e <_Z7printf_PKcz>

00003f60 <_Z16vnclip_testcase1v>:
    3f60:	7179                	addi	sp,sp,-48
    3f62:	d422                	sw	s0,40(sp)
    3f64:	d606                	sw	ra,44(sp)
    3f66:	d226                	sw	s1,36(sp)
    3f68:	d04a                	sw	s2,32(sp)
    3f6a:	ce4e                	sw	s3,28(sp)
    3f6c:	cc52                	sw	s4,24(sp)
    3f6e:	ca56                	sw	s5,20(sp)
    3f70:	c85a                	sw	s6,16(sp)
    3f72:	c65e                	sw	s7,12(sp)
    3f74:	c462                	sw	s8,8(sp)
    3f76:	4781                	li	a5,0
    3f78:	10007437          	lui	s0,0x10007
    3f7c:	577d                	li	a4,-1
    3f7e:	10000613          	li	a2,256
    3f82:	e3040693          	addi	a3,s0,-464 # 10006e30 <waddr>
    3f86:	96be                	add	a3,a3,a5
    3f88:	00e68023          	sb	a4,0(a3)
    3f8c:	0785                	addi	a5,a5,1
    3f8e:	e3040493          	addi	s1,s0,-464
    3f92:	fec798e3          	bne	a5,a2,3f82 <_Z16vnclip_testcase1v+0x22>
    3f96:	6785                	lui	a5,0x1
    3f98:	e0078793          	addi	a5,a5,-512 # e00 <_Z23matrix_csr_set_test_8x8v+0x38>
    3f9c:	1047a00b          	vsetcsr	zero,a5,260
    3fa0:	08000793          	li	a5,128
    3fa4:	1057a00b          	vsetcsr	zero,a5,261
    3fa8:	1067200b          	vsetcsr	zero,a4,262
    3fac:	1034a00b          	vsetcsr	zero,s1,259
    3fb0:	004007b7          	lui	a5,0x400
    3fb4:	0c078793          	addi	a5,a5,192 # 4000c0 <__rodata_start__+0x3f6a80>
    3fb8:	1c97806b          	vnclip	zero,a5,s1
    3fbc:	e3040913          	addi	s2,s0,-464
    3fc0:	4981                	li	s3,0
    3fc2:	e3040413          	addi	s0,s0,-464
    3fc6:	04000a13          	li	s4,64
    3fca:	10001ab7          	lui	s5,0x10001
    3fce:	10001b37          	lui	s6,0x10001
    3fd2:	10000bb7          	lui	s7,0x10000
    3fd6:	10001c37          	lui	s8,0x10001
    3fda:	00044783          	lbu	a5,0(s0)
    3fde:	03478e63          	beq	a5,s4,401a <_Z16vnclip_testcase1v+0xba>
    3fe2:	dd8a8613          	addi	a2,s5,-552 # 10000dd8 <__rodata_start__+0xfff7798>
    3fe6:	87cb0593          	addi	a1,s6,-1924 # 1000087c <__rodata_start__+0xfff723c>
    3fea:	2ec00693          	li	a3,748
    3fee:	014b8513          	addi	a0,s7,20 # 10000014 <__rodata_start__+0xfff69d4>
    3ff2:	23d020ef          	jal	6a2e <_Z7printf_PKcz>
    3ff6:	00044683          	lbu	a3,0(s0)
    3ffa:	04000713          	li	a4,64
    3ffe:	08000613          	li	a2,128
    4002:	85ce                	mv	a1,s3
    4004:	decc0513          	addi	a0,s8,-532 # 10000dec <__rodata_start__+0xfff77ac>
    4008:	227020ef          	jal	6a2e <_Z7printf_PKcz>
    400c:	10000537          	lui	a0,0x10000
    4010:	03050513          	addi	a0,a0,48 # 10000030 <__rodata_start__+0xfff69f0>
    4014:	21b020ef          	jal	6a2e <_Z7printf_PKcz>
    4018:	9002                	ebreak
    401a:	0985                	addi	s3,s3,1
    401c:	47c1                	li	a5,16
    401e:	0405                	addi	s0,s0,1
    4020:	faf99de3          	bne	s3,a5,3fda <_Z16vnclip_testcase1v+0x7a>
    4024:	4781                	li	a5,0
    4026:	577d                	li	a4,-1
    4028:	10000693          	li	a3,256
    402c:	00f48633          	add	a2,s1,a5
    4030:	00e60023          	sb	a4,0(a2)
    4034:	0785                	addi	a5,a5,1
    4036:	fed79be3          	bne	a5,a3,402c <_Z16vnclip_testcase1v+0xcc>
    403a:	6785                	lui	a5,0x1
    403c:	f0078793          	addi	a5,a5,-256 # f00 <_Z24minimum_matmul_multi_8x8PaS_S_+0x3e>
    4040:	1047a00b          	vsetcsr	zero,a5,260
    4044:	08000793          	li	a5,128
    4048:	1057a00b          	vsetcsr	zero,a5,261
    404c:	1067200b          	vsetcsr	zero,a4,262
    4050:	1034a00b          	vsetcsr	zero,s1,259
    4054:	004007b7          	lui	a5,0x400
    4058:	0c078793          	addi	a5,a5,192 # 4000c0 <__rodata_start__+0x3f6a80>
    405c:	1c97806b          	vnclip	zero,a5,s1
    4060:	4401                	li	s0,0
    4062:	0ff00493          	li	s1,255
    4066:	100019b7          	lui	s3,0x10001
    406a:	10001a37          	lui	s4,0x10001
    406e:	10000ab7          	lui	s5,0x10000
    4072:	00094783          	lbu	a5,0(s2)
    4076:	02978f63          	beq	a5,s1,40b4 <_Z16vnclip_testcase1v+0x154>
    407a:	dd898613          	addi	a2,s3,-552 # 10000dd8 <__rodata_start__+0xfff7798>
    407e:	87ca0593          	addi	a1,s4,-1924 # 1000087c <__rodata_start__+0xfff723c>
    4082:	30100693          	li	a3,769
    4086:	014a8513          	addi	a0,s5,20 # 10000014 <__rodata_start__+0xfff69d4>
    408a:	1a5020ef          	jal	6a2e <_Z7printf_PKcz>
    408e:	00094683          	lbu	a3,0(s2)
    4092:	10001537          	lui	a0,0x10001
    4096:	577d                	li	a4,-1
    4098:	08000613          	li	a2,128
    409c:	85a2                	mv	a1,s0
    409e:	dec50513          	addi	a0,a0,-532 # 10000dec <__rodata_start__+0xfff77ac>
    40a2:	18d020ef          	jal	6a2e <_Z7printf_PKcz>
    40a6:	10000537          	lui	a0,0x10000
    40aa:	03050513          	addi	a0,a0,48 # 10000030 <__rodata_start__+0xfff69f0>
    40ae:	181020ef          	jal	6a2e <_Z7printf_PKcz>
    40b2:	9002                	ebreak
    40b4:	0405                	addi	s0,s0,1
    40b6:	47c1                	li	a5,16
    40b8:	0905                	addi	s2,s2,1
    40ba:	faf41ce3          	bne	s0,a5,4072 <_Z16vnclip_testcase1v+0x112>
    40be:	10001637          	lui	a2,0x10001
    40c2:	100015b7          	lui	a1,0x10001
    40c6:	10000537          	lui	a0,0x10000
    40ca:	30500693          	li	a3,773
    40ce:	dd860613          	addi	a2,a2,-552 # 10000dd8 <__rodata_start__+0xfff7798>
    40d2:	87c58593          	addi	a1,a1,-1924 # 1000087c <__rodata_start__+0xfff723c>
    40d6:	01450513          	addi	a0,a0,20 # 10000014 <__rodata_start__+0xfff69d4>
    40da:	155020ef          	jal	6a2e <_Z7printf_PKcz>
    40de:	10001537          	lui	a0,0x10001
    40e2:	e0850513          	addi	a0,a0,-504 # 10000e08 <__rodata_start__+0xfff77c8>
    40e6:	149020ef          	jal	6a2e <_Z7printf_PKcz>
    40ea:	5422                	lw	s0,40(sp)
    40ec:	50b2                	lw	ra,44(sp)
    40ee:	5492                	lw	s1,36(sp)
    40f0:	5902                	lw	s2,32(sp)
    40f2:	49f2                	lw	s3,28(sp)
    40f4:	4a62                	lw	s4,24(sp)
    40f6:	4ad2                	lw	s5,20(sp)
    40f8:	4b42                	lw	s6,16(sp)
    40fa:	4bb2                	lw	s7,12(sp)
    40fc:	4c22                	lw	s8,8(sp)
    40fe:	10000537          	lui	a0,0x10000
    4102:	03050513          	addi	a0,a0,48 # 10000030 <__rodata_start__+0xfff69f0>
    4106:	6145                	addi	sp,sp,48
    4108:	1270206f          	j	6a2e <_Z7printf_PKcz>

0000410c <_Z18vwredsum_testcase1v>:
    410c:	1101                	addi	sp,sp,-32
    410e:	ce06                	sw	ra,28(sp)
    4110:	cc22                	sw	s0,24(sp)
    4112:	ca26                	sw	s1,20(sp)
    4114:	c84a                	sw	s2,16(sp)
    4116:	c64e                	sw	s3,12(sp)
    4118:	c452                	sw	s4,8(sp)
    411a:	c256                	sw	s5,4(sp)
    411c:	4781                	li	a5,0
    411e:	100076b7          	lui	a3,0x10007
    4122:	10000613          	li	a2,256
    4126:	e3068713          	addi	a4,a3,-464 # 10006e30 <waddr>
    412a:	973e                	add	a4,a4,a5
    412c:	00070023          	sb	zero,0(a4)
    4130:	0785                	addi	a5,a5,1
    4132:	e3068413          	addi	s0,a3,-464
    4136:	fec798e3          	bne	a5,a2,4126 <_Z18vwredsum_testcase1v+0x1a>
    413a:	4785                	li	a5,1
    413c:	1047a00b          	vsetcsr	zero,a5,260
    4140:	50000793          	li	a5,1280
    4144:	1047a00b          	vsetcsr	zero,a5,260
    4148:	08000793          	li	a5,128
    414c:	1057a00b          	vsetcsr	zero,a5,261
    4150:	57fd                	li	a5,-1
    4152:	1067a00b          	vsetcsr	zero,a5,262
    4156:	100074b7          	lui	s1,0x10007
    415a:	c2048493          	addi	s1,s1,-992 # 10006c20 <raddr4>
    415e:	1e84806b          	vwredsum	zero,s1,s0
    4162:	00044783          	lbu	a5,0(s0)
    4166:	02000913          	li	s2,32
    416a:	05278363          	beq	a5,s2,41b0 <_Z18vwredsum_testcase1v+0xa4>
    416e:	10001637          	lui	a2,0x10001
    4172:	100015b7          	lui	a1,0x10001
    4176:	10000537          	lui	a0,0x10000
    417a:	31c00693          	li	a3,796
    417e:	e1860613          	addi	a2,a2,-488 # 10000e18 <__rodata_start__+0xfff77d8>
    4182:	87c58593          	addi	a1,a1,-1924 # 1000087c <__rodata_start__+0xfff723c>
    4186:	01450513          	addi	a0,a0,20 # 10000014 <__rodata_start__+0xfff69d4>
    418a:	0a5020ef          	jal	6a2e <_Z7printf_PKcz>
    418e:	00044603          	lbu	a2,0(s0)
    4192:	10001537          	lui	a0,0x10001
    4196:	86ca                	mv	a3,s2
    4198:	4581                	li	a1,0
    419a:	e2c50513          	addi	a0,a0,-468 # 10000e2c <__rodata_start__+0xfff77ec>
    419e:	091020ef          	jal	6a2e <_Z7printf_PKcz>
    41a2:	10000537          	lui	a0,0x10000
    41a6:	03050513          	addi	a0,a0,48 # 10000030 <__rodata_start__+0xfff69f0>
    41aa:	085020ef          	jal	6a2e <_Z7printf_PKcz>
    41ae:	9002                	ebreak
    41b0:	00144783          	lbu	a5,1(s0)
    41b4:	c3b1                	beqz	a5,41f8 <_Z18vwredsum_testcase1v+0xec>
    41b6:	10001637          	lui	a2,0x10001
    41ba:	100015b7          	lui	a1,0x10001
    41be:	10000537          	lui	a0,0x10000
    41c2:	32000693          	li	a3,800
    41c6:	e1860613          	addi	a2,a2,-488 # 10000e18 <__rodata_start__+0xfff77d8>
    41ca:	87c58593          	addi	a1,a1,-1924 # 1000087c <__rodata_start__+0xfff723c>
    41ce:	01450513          	addi	a0,a0,20 # 10000014 <__rodata_start__+0xfff69d4>
    41d2:	05d020ef          	jal	6a2e <_Z7printf_PKcz>
    41d6:	00144603          	lbu	a2,1(s0)
    41da:	10001537          	lui	a0,0x10001
    41de:	4681                	li	a3,0
    41e0:	4585                	li	a1,1
    41e2:	e6050513          	addi	a0,a0,-416 # 10000e60 <__rodata_start__+0xfff7820>
    41e6:	049020ef          	jal	6a2e <_Z7printf_PKcz>
    41ea:	10000537          	lui	a0,0x10000
    41ee:	03050513          	addi	a0,a0,48 # 10000030 <__rodata_start__+0xfff69f0>
    41f2:	03d020ef          	jal	6a2e <_Z7printf_PKcz>
    41f6:	9002                	ebreak
    41f8:	4781                	li	a5,0
    41fa:	10000713          	li	a4,256
    41fe:	00f406b3          	add	a3,s0,a5
    4202:	00068023          	sb	zero,0(a3)
    4206:	0785                	addi	a5,a5,1
    4208:	fee79be3          	bne	a5,a4,41fe <_Z18vwredsum_testcase1v+0xf2>
    420c:	4785                	li	a5,1
    420e:	1047a00b          	vsetcsr	zero,a5,260
    4212:	50000793          	li	a5,1280
    4216:	1047a00b          	vsetcsr	zero,a5,260
    421a:	6785                	lui	a5,0x1
    421c:	80078793          	addi	a5,a5,-2048 # 800 <_Z21minimum_pwconv_singlePaS_S_+0xc6>
    4220:	1057a00b          	vsetcsr	zero,a5,261
    4224:	57fd                	li	a5,-1
    4226:	1067a00b          	vsetcsr	zero,a5,262
    422a:	1e84806b          	vwredsum	zero,s1,s0
    422e:	00044783          	lbu	a5,0(s0)
    4232:	10001a37          	lui	s4,0x10001
    4236:	100019b7          	lui	s3,0x10001
    423a:	10000937          	lui	s2,0x10000
    423e:	100004b7          	lui	s1,0x10000
    4242:	cb95                	beqz	a5,4276 <_Z18vwredsum_testcase1v+0x16a>
    4244:	e18a0613          	addi	a2,s4,-488 # 10000e18 <__rodata_start__+0xfff77d8>
    4248:	87c98593          	addi	a1,s3,-1924 # 1000087c <__rodata_start__+0xfff723c>
    424c:	33400693          	li	a3,820
    4250:	01490513          	addi	a0,s2,20 # 10000014 <__rodata_start__+0xfff69d4>
    4254:	7da020ef          	jal	6a2e <_Z7printf_PKcz>
    4258:	00044603          	lbu	a2,0(s0)
    425c:	10001537          	lui	a0,0x10001
    4260:	4681                	li	a3,0
    4262:	4581                	li	a1,0
    4264:	e9450513          	addi	a0,a0,-364 # 10000e94 <__rodata_start__+0xfff7854>
    4268:	7c6020ef          	jal	6a2e <_Z7printf_PKcz>
    426c:	03048513          	addi	a0,s1,48 # 10000030 <__rodata_start__+0xfff69f0>
    4270:	7be020ef          	jal	6a2e <_Z7printf_PKcz>
    4274:	9002                	ebreak
    4276:	00144783          	lbu	a5,1(s0)
    427a:	4a89                	li	s5,2
    427c:	03578b63          	beq	a5,s5,42b2 <_Z18vwredsum_testcase1v+0x1a6>
    4280:	e18a0613          	addi	a2,s4,-488
    4284:	87c98593          	addi	a1,s3,-1924
    4288:	33800693          	li	a3,824
    428c:	01490513          	addi	a0,s2,20
    4290:	79e020ef          	jal	6a2e <_Z7printf_PKcz>
    4294:	00144603          	lbu	a2,1(s0)
    4298:	10001537          	lui	a0,0x10001
    429c:	86d6                	mv	a3,s5
    429e:	4585                	li	a1,1
    42a0:	ec850513          	addi	a0,a0,-312 # 10000ec8 <__rodata_start__+0xfff7888>
    42a4:	78a020ef          	jal	6a2e <_Z7printf_PKcz>
    42a8:	03048513          	addi	a0,s1,48
    42ac:	782020ef          	jal	6a2e <_Z7printf_PKcz>
    42b0:	9002                	ebreak
    42b2:	e18a0613          	addi	a2,s4,-488
    42b6:	87c98593          	addi	a1,s3,-1924
    42ba:	33b00693          	li	a3,827
    42be:	01490513          	addi	a0,s2,20
    42c2:	76c020ef          	jal	6a2e <_Z7printf_PKcz>
    42c6:	10001537          	lui	a0,0x10001
    42ca:	efc50513          	addi	a0,a0,-260 # 10000efc <__rodata_start__+0xfff78bc>
    42ce:	760020ef          	jal	6a2e <_Z7printf_PKcz>
    42d2:	4462                	lw	s0,24(sp)
    42d4:	40f2                	lw	ra,28(sp)
    42d6:	4942                	lw	s2,16(sp)
    42d8:	49b2                	lw	s3,12(sp)
    42da:	4a22                	lw	s4,8(sp)
    42dc:	4a92                	lw	s5,4(sp)
    42de:	03048513          	addi	a0,s1,48
    42e2:	44d2                	lw	s1,20(sp)
    42e4:	6105                	addi	sp,sp,32
    42e6:	7480206f          	j	6a2e <_Z7printf_PKcz>

000042ea <_Z17vredsum_testcase1v>:
    42ea:	1101                	addi	sp,sp,-32
    42ec:	ce06                	sw	ra,28(sp)
    42ee:	cc22                	sw	s0,24(sp)
    42f0:	ca26                	sw	s1,20(sp)
    42f2:	c84a                	sw	s2,16(sp)
    42f4:	c64e                	sw	s3,12(sp)
    42f6:	c452                	sw	s4,8(sp)
    42f8:	c256                	sw	s5,4(sp)
    42fa:	4781                	li	a5,0
    42fc:	100076b7          	lui	a3,0x10007
    4300:	10000613          	li	a2,256
    4304:	e3068713          	addi	a4,a3,-464 # 10006e30 <waddr>
    4308:	973e                	add	a4,a4,a5
    430a:	00070023          	sb	zero,0(a4)
    430e:	0785                	addi	a5,a5,1
    4310:	e3068413          	addi	s0,a3,-464
    4314:	fec798e3          	bne	a5,a2,4304 <_Z17vredsum_testcase1v+0x1a>
    4318:	4785                	li	a5,1
    431a:	1047a00b          	vsetcsr	zero,a5,260
    431e:	50000793          	li	a5,1280
    4322:	1047a00b          	vsetcsr	zero,a5,260
    4326:	08000793          	li	a5,128
    432a:	1057a00b          	vsetcsr	zero,a5,261
    432e:	57fd                	li	a5,-1
    4330:	1067a00b          	vsetcsr	zero,a5,262
    4334:	100074b7          	lui	s1,0x10007
    4338:	c2048493          	addi	s1,s1,-992 # 10006c20 <raddr4>
    433c:	2084806b          	vredsum	zero,s1,s0
    4340:	00044783          	lbu	a5,0(s0)
    4344:	02000913          	li	s2,32
    4348:	05278363          	beq	a5,s2,438e <_Z17vredsum_testcase1v+0xa4>
    434c:	10001637          	lui	a2,0x10001
    4350:	100015b7          	lui	a1,0x10001
    4354:	10000537          	lui	a0,0x10000
    4358:	35200693          	li	a3,850
    435c:	f0c60613          	addi	a2,a2,-244 # 10000f0c <__rodata_start__+0xfff78cc>
    4360:	87c58593          	addi	a1,a1,-1924 # 1000087c <__rodata_start__+0xfff723c>
    4364:	01450513          	addi	a0,a0,20 # 10000014 <__rodata_start__+0xfff69d4>
    4368:	6c6020ef          	jal	6a2e <_Z7printf_PKcz>
    436c:	00044603          	lbu	a2,0(s0)
    4370:	10001537          	lui	a0,0x10001
    4374:	86ca                	mv	a3,s2
    4376:	4581                	li	a1,0
    4378:	e2c50513          	addi	a0,a0,-468 # 10000e2c <__rodata_start__+0xfff77ec>
    437c:	6b2020ef          	jal	6a2e <_Z7printf_PKcz>
    4380:	10000537          	lui	a0,0x10000
    4384:	03050513          	addi	a0,a0,48 # 10000030 <__rodata_start__+0xfff69f0>
    4388:	6a6020ef          	jal	6a2e <_Z7printf_PKcz>
    438c:	9002                	ebreak
    438e:	00144783          	lbu	a5,1(s0)
    4392:	c3b1                	beqz	a5,43d6 <_Z17vredsum_testcase1v+0xec>
    4394:	10001637          	lui	a2,0x10001
    4398:	100015b7          	lui	a1,0x10001
    439c:	10000537          	lui	a0,0x10000
    43a0:	35600693          	li	a3,854
    43a4:	f0c60613          	addi	a2,a2,-244 # 10000f0c <__rodata_start__+0xfff78cc>
    43a8:	87c58593          	addi	a1,a1,-1924 # 1000087c <__rodata_start__+0xfff723c>
    43ac:	01450513          	addi	a0,a0,20 # 10000014 <__rodata_start__+0xfff69d4>
    43b0:	67e020ef          	jal	6a2e <_Z7printf_PKcz>
    43b4:	00144603          	lbu	a2,1(s0)
    43b8:	10001537          	lui	a0,0x10001
    43bc:	4681                	li	a3,0
    43be:	4585                	li	a1,1
    43c0:	e6050513          	addi	a0,a0,-416 # 10000e60 <__rodata_start__+0xfff7820>
    43c4:	66a020ef          	jal	6a2e <_Z7printf_PKcz>
    43c8:	10000537          	lui	a0,0x10000
    43cc:	03050513          	addi	a0,a0,48 # 10000030 <__rodata_start__+0xfff69f0>
    43d0:	65e020ef          	jal	6a2e <_Z7printf_PKcz>
    43d4:	9002                	ebreak
    43d6:	00244783          	lbu	a5,2(s0)
    43da:	c3b1                	beqz	a5,441e <_Z17vredsum_testcase1v+0x134>
    43dc:	10001637          	lui	a2,0x10001
    43e0:	100015b7          	lui	a1,0x10001
    43e4:	10000537          	lui	a0,0x10000
    43e8:	35a00693          	li	a3,858
    43ec:	f0c60613          	addi	a2,a2,-244 # 10000f0c <__rodata_start__+0xfff78cc>
    43f0:	87c58593          	addi	a1,a1,-1924 # 1000087c <__rodata_start__+0xfff723c>
    43f4:	01450513          	addi	a0,a0,20 # 10000014 <__rodata_start__+0xfff69d4>
    43f8:	636020ef          	jal	6a2e <_Z7printf_PKcz>
    43fc:	00044603          	lbu	a2,0(s0)
    4400:	10001537          	lui	a0,0x10001
    4404:	4681                	li	a3,0
    4406:	4581                	li	a1,0
    4408:	e2c50513          	addi	a0,a0,-468 # 10000e2c <__rodata_start__+0xfff77ec>
    440c:	622020ef          	jal	6a2e <_Z7printf_PKcz>
    4410:	10000537          	lui	a0,0x10000
    4414:	03050513          	addi	a0,a0,48 # 10000030 <__rodata_start__+0xfff69f0>
    4418:	616020ef          	jal	6a2e <_Z7printf_PKcz>
    441c:	9002                	ebreak
    441e:	00344783          	lbu	a5,3(s0)
    4422:	c3b1                	beqz	a5,4466 <_Z17vredsum_testcase1v+0x17c>
    4424:	10001637          	lui	a2,0x10001
    4428:	100015b7          	lui	a1,0x10001
    442c:	10000537          	lui	a0,0x10000
    4430:	35e00693          	li	a3,862
    4434:	f0c60613          	addi	a2,a2,-244 # 10000f0c <__rodata_start__+0xfff78cc>
    4438:	87c58593          	addi	a1,a1,-1924 # 1000087c <__rodata_start__+0xfff723c>
    443c:	01450513          	addi	a0,a0,20 # 10000014 <__rodata_start__+0xfff69d4>
    4440:	5ee020ef          	jal	6a2e <_Z7printf_PKcz>
    4444:	00144603          	lbu	a2,1(s0)
    4448:	10001537          	lui	a0,0x10001
    444c:	4681                	li	a3,0
    444e:	4585                	li	a1,1
    4450:	e6050513          	addi	a0,a0,-416 # 10000e60 <__rodata_start__+0xfff7820>
    4454:	5da020ef          	jal	6a2e <_Z7printf_PKcz>
    4458:	10000537          	lui	a0,0x10000
    445c:	03050513          	addi	a0,a0,48 # 10000030 <__rodata_start__+0xfff69f0>
    4460:	5ce020ef          	jal	6a2e <_Z7printf_PKcz>
    4464:	9002                	ebreak
    4466:	4781                	li	a5,0
    4468:	10000713          	li	a4,256
    446c:	00f406b3          	add	a3,s0,a5
    4470:	00068023          	sb	zero,0(a3)
    4474:	0785                	addi	a5,a5,1
    4476:	fee79be3          	bne	a5,a4,446c <_Z17vredsum_testcase1v+0x182>
    447a:	4785                	li	a5,1
    447c:	1047a00b          	vsetcsr	zero,a5,260
    4480:	50000793          	li	a5,1280
    4484:	1047a00b          	vsetcsr	zero,a5,260
    4488:	6785                	lui	a5,0x1
    448a:	80078793          	addi	a5,a5,-2048 # 800 <_Z21minimum_pwconv_singlePaS_S_+0xc6>
    448e:	1057a00b          	vsetcsr	zero,a5,261
    4492:	57fd                	li	a5,-1
    4494:	1067a00b          	vsetcsr	zero,a5,262
    4498:	2084806b          	vredsum	zero,s1,s0
    449c:	00044783          	lbu	a5,0(s0)
    44a0:	10001a37          	lui	s4,0x10001
    44a4:	100019b7          	lui	s3,0x10001
    44a8:	10000937          	lui	s2,0x10000
    44ac:	100004b7          	lui	s1,0x10000
    44b0:	cb95                	beqz	a5,44e4 <_Z17vredsum_testcase1v+0x1fa>
    44b2:	f0ca0613          	addi	a2,s4,-244 # 10000f0c <__rodata_start__+0xfff78cc>
    44b6:	87c98593          	addi	a1,s3,-1924 # 1000087c <__rodata_start__+0xfff723c>
    44ba:	37200693          	li	a3,882
    44be:	01490513          	addi	a0,s2,20 # 10000014 <__rodata_start__+0xfff69d4>
    44c2:	56c020ef          	jal	6a2e <_Z7printf_PKcz>
    44c6:	00044603          	lbu	a2,0(s0)
    44ca:	10001537          	lui	a0,0x10001
    44ce:	4681                	li	a3,0
    44d0:	4581                	li	a1,0
    44d2:	f2050513          	addi	a0,a0,-224 # 10000f20 <__rodata_start__+0xfff78e0>
    44d6:	558020ef          	jal	6a2e <_Z7printf_PKcz>
    44da:	03048513          	addi	a0,s1,48 # 10000030 <__rodata_start__+0xfff69f0>
    44de:	550020ef          	jal	6a2e <_Z7printf_PKcz>
    44e2:	9002                	ebreak
    44e4:	00144783          	lbu	a5,1(s0)
    44e8:	4a89                	li	s5,2
    44ea:	03578b63          	beq	a5,s5,4520 <_Z17vredsum_testcase1v+0x236>
    44ee:	f0ca0613          	addi	a2,s4,-244
    44f2:	87c98593          	addi	a1,s3,-1924
    44f6:	37600693          	li	a3,886
    44fa:	01490513          	addi	a0,s2,20
    44fe:	530020ef          	jal	6a2e <_Z7printf_PKcz>
    4502:	00144603          	lbu	a2,1(s0)
    4506:	10001537          	lui	a0,0x10001
    450a:	86d6                	mv	a3,s5
    450c:	4585                	li	a1,1
    450e:	f5050513          	addi	a0,a0,-176 # 10000f50 <__rodata_start__+0xfff7910>
    4512:	51c020ef          	jal	6a2e <_Z7printf_PKcz>
    4516:	03048513          	addi	a0,s1,48
    451a:	514020ef          	jal	6a2e <_Z7printf_PKcz>
    451e:	9002                	ebreak
    4520:	00244783          	lbu	a5,2(s0)
    4524:	cb95                	beqz	a5,4558 <_Z17vredsum_testcase1v+0x26e>
    4526:	f0ca0613          	addi	a2,s4,-244
    452a:	87c98593          	addi	a1,s3,-1924
    452e:	37a00693          	li	a3,890
    4532:	01490513          	addi	a0,s2,20
    4536:	4f8020ef          	jal	6a2e <_Z7printf_PKcz>
    453a:	00244603          	lbu	a2,2(s0)
    453e:	10001537          	lui	a0,0x10001
    4542:	4681                	li	a3,0
    4544:	4589                	li	a1,2
    4546:	f8050513          	addi	a0,a0,-128 # 10000f80 <__rodata_start__+0xfff7940>
    454a:	4e4020ef          	jal	6a2e <_Z7printf_PKcz>
    454e:	03048513          	addi	a0,s1,48
    4552:	4dc020ef          	jal	6a2e <_Z7printf_PKcz>
    4556:	9002                	ebreak
    4558:	00344783          	lbu	a5,3(s0)
    455c:	cb95                	beqz	a5,4590 <_Z17vredsum_testcase1v+0x2a6>
    455e:	f0ca0613          	addi	a2,s4,-244
    4562:	87c98593          	addi	a1,s3,-1924
    4566:	37e00693          	li	a3,894
    456a:	01490513          	addi	a0,s2,20
    456e:	4c0020ef          	jal	6a2e <_Z7printf_PKcz>
    4572:	00344603          	lbu	a2,3(s0)
    4576:	10001537          	lui	a0,0x10001
    457a:	4681                	li	a3,0
    457c:	458d                	li	a1,3
    457e:	fb050513          	addi	a0,a0,-80 # 10000fb0 <__rodata_start__+0xfff7970>
    4582:	4ac020ef          	jal	6a2e <_Z7printf_PKcz>
    4586:	03048513          	addi	a0,s1,48
    458a:	4a4020ef          	jal	6a2e <_Z7printf_PKcz>
    458e:	9002                	ebreak
    4590:	f0ca0613          	addi	a2,s4,-244
    4594:	87c98593          	addi	a1,s3,-1924
    4598:	38100693          	li	a3,897
    459c:	01490513          	addi	a0,s2,20
    45a0:	48e020ef          	jal	6a2e <_Z7printf_PKcz>
    45a4:	10001537          	lui	a0,0x10001
    45a8:	fe050513          	addi	a0,a0,-32 # 10000fe0 <__rodata_start__+0xfff79a0>
    45ac:	482020ef          	jal	6a2e <_Z7printf_PKcz>
    45b0:	4462                	lw	s0,24(sp)
    45b2:	40f2                	lw	ra,28(sp)
    45b4:	4942                	lw	s2,16(sp)
    45b6:	49b2                	lw	s3,12(sp)
    45b8:	4a22                	lw	s4,8(sp)
    45ba:	4a92                	lw	s5,4(sp)
    45bc:	03048513          	addi	a0,s1,48
    45c0:	44d2                	lw	s1,20(sp)
    45c2:	6105                	addi	sp,sp,32
    45c4:	46a0206f          	j	6a2e <_Z7printf_PKcz>

000045c8 <_Z14vmac_testcase1v>:
    45c8:	7139                	addi	sp,sp,-64
    45ca:	da26                	sw	s1,52(sp)
    45cc:	de06                	sw	ra,60(sp)
    45ce:	dc22                	sw	s0,56(sp)
    45d0:	d84a                	sw	s2,48(sp)
    45d2:	d64e                	sw	s3,44(sp)
    45d4:	d452                	sw	s4,40(sp)
    45d6:	d256                	sw	s5,36(sp)
    45d8:	d05a                	sw	s6,32(sp)
    45da:	ce5e                	sw	s7,28(sp)
    45dc:	cc62                	sw	s8,24(sp)
    45de:	ca66                	sw	s9,20(sp)
    45e0:	c86a                	sw	s10,16(sp)
    45e2:	c66e                	sw	s11,12(sp)
    45e4:	4781                	li	a5,0
    45e6:	100074b7          	lui	s1,0x10007
    45ea:	10000693          	li	a3,256
    45ee:	e3048713          	addi	a4,s1,-464 # 10006e30 <waddr>
    45f2:	973e                	add	a4,a4,a5
    45f4:	00070023          	sb	zero,0(a4)
    45f8:	0785                	addi	a5,a5,1
    45fa:	e3048c93          	addi	s9,s1,-464
    45fe:	fed798e3          	bne	a5,a3,45ee <_Z14vmac_testcase1v+0x26>
    4602:	4785                	li	a5,1
    4604:	1047a00b          	vsetcsr	zero,a5,260
    4608:	50000793          	li	a5,1280
    460c:	1047a00b          	vsetcsr	zero,a5,260
    4610:	08000793          	li	a5,128
    4614:	1057a00b          	vsetcsr	zero,a5,261
    4618:	57fd                	li	a5,-1
    461a:	1067a00b          	vsetcsr	zero,a5,262
    461e:	103ca00b          	vsetcsr	zero,s9,259
    4622:	10007437          	lui	s0,0x10007
    4626:	b2040413          	addi	s0,s0,-1248 # 10006b20 <raddr1>
    462a:	10040c13          	addi	s8,s0,256
    462e:	20040413          	addi	s0,s0,512
    4632:	248c006b          	vmac	zero,s8,s0
    4636:	e3048a13          	addi	s4,s1,-464
    463a:	89e2                	mv	s3,s8
    463c:	8922                	mv	s2,s0
    463e:	8d22                	mv	s10,s0
    4640:	8de2                	mv	s11,s8
    4642:	e3048493          	addi	s1,s1,-464
    4646:	4a81                	li	s5,0
    4648:	100018b7          	lui	a7,0x10001
    464c:	10001337          	lui	t1,0x10001
    4650:	10000e37          	lui	t3,0x10000
    4654:	10001b37          	lui	s6,0x10001
    4658:	10000bb7          	lui	s7,0x10000
    465c:	4841                	li	a6,16
    465e:	000d0703          	lb	a4,0(s10)
    4662:	000d8783          	lb	a5,0(s11)
    4666:	02e787b3          	mul	a5,a5,a4
    466a:	00048703          	lb	a4,0(s1)
    466e:	8fb9                	xor	a5,a5,a4
    4670:	0ff7f793          	zext.b	a5,a5
    4674:	cba1                	beqz	a5,46c4 <_Z14vmac_testcase1v+0xfc>
    4676:	ff088613          	addi	a2,a7,-16 # 10000ff0 <__rodata_start__+0xfff79b0>
    467a:	87c30593          	addi	a1,t1,-1924 # 1000087c <__rodata_start__+0xfff723c>
    467e:	014e0513          	addi	a0,t3,20 # 10000014 <__rodata_start__+0xfff69d4>
    4682:	39800693          	li	a3,920
    4686:	3a8020ef          	jal	6a2e <_Z7printf_PKcz>
    468a:	000d0703          	lb	a4,0(s10)
    468e:	000d8783          	lb	a5,0(s11)
    4692:	86d6                	mv	a3,s5
    4694:	8656                	mv	a2,s5
    4696:	02e787b3          	mul	a5,a5,a4
    469a:	0004c703          	lbu	a4,0(s1)
    469e:	85d6                	mv	a1,s5
    46a0:	000b0513          	mv	a0,s6
    46a4:	0ff7f793          	zext.b	a5,a5
    46a8:	386020ef          	jal	6a2e <_Z7printf_PKcz>
    46ac:	030b8513          	addi	a0,s7,48 # 10000030 <__rodata_start__+0xfff69f0>
    46b0:	37e020ef          	jal	6a2e <_Z7printf_PKcz>
    46b4:	9002                	ebreak
    46b6:	4841                	li	a6,16
    46b8:	100018b7          	lui	a7,0x10001
    46bc:	10001337          	lui	t1,0x10001
    46c0:	10000e37          	lui	t3,0x10000
    46c4:	0a85                	addi	s5,s5,1
    46c6:	0485                	addi	s1,s1,1
    46c8:	0d85                	addi	s11,s11,1
    46ca:	0d05                	addi	s10,s10,1
    46cc:	f90a99e3          	bne	s5,a6,465e <_Z14vmac_testcase1v+0x96>
    46d0:	4781                	li	a5,0
    46d2:	10000713          	li	a4,256
    46d6:	00fc86b3          	add	a3,s9,a5
    46da:	00068023          	sb	zero,0(a3)
    46de:	0785                	addi	a5,a5,1
    46e0:	fee79be3          	bne	a5,a4,46d6 <_Z14vmac_testcase1v+0x10e>
    46e4:	4785                	li	a5,1
    46e6:	1047a00b          	vsetcsr	zero,a5,260
    46ea:	50000793          	li	a5,1280
    46ee:	1047a00b          	vsetcsr	zero,a5,260
    46f2:	6785                	lui	a5,0x1
    46f4:	80078793          	addi	a5,a5,-2048 # 800 <_Z21minimum_pwconv_singlePaS_S_+0xc6>
    46f8:	1057a00b          	vsetcsr	zero,a5,261
    46fc:	57fd                	li	a5,-1
    46fe:	1067a00b          	vsetcsr	zero,a5,262
    4702:	103ca00b          	vsetcsr	zero,s9,259
    4706:	248c006b          	vmac	zero,s8,s0
    470a:	4401                	li	s0,0
    470c:	10001bb7          	lui	s7,0x10001
    4710:	10001c37          	lui	s8,0x10001
    4714:	10000cb7          	lui	s9,0x10000
    4718:	100014b7          	lui	s1,0x10001
    471c:	10000ab7          	lui	s5,0x10000
    4720:	4b41                	li	s6,16
    4722:	00098783          	lb	a5,0(s3)
    4726:	00090683          	lb	a3,0(s2)
    472a:	000a4703          	lbu	a4,0(s4)
    472e:	02d787b3          	mul	a5,a5,a3
    4732:	0ff7f793          	zext.b	a5,a5
    4736:	0792                	slli	a5,a5,0x4
    4738:	04f70363          	beq	a4,a5,477e <_Z14vmac_testcase1v+0x1b6>
    473c:	ff0b8613          	addi	a2,s7,-16 # 10000ff0 <__rodata_start__+0xfff79b0>
    4740:	87cc0593          	addi	a1,s8,-1924 # 1000087c <__rodata_start__+0xfff723c>
    4744:	3ae00693          	li	a3,942
    4748:	014c8513          	addi	a0,s9,20 # 10000014 <__rodata_start__+0xfff69d4>
    474c:	2e2020ef          	jal	6a2e <_Z7printf_PKcz>
    4750:	00090703          	lb	a4,0(s2)
    4754:	00098783          	lb	a5,0(s3)
    4758:	86a2                	mv	a3,s0
    475a:	8622                	mv	a2,s0
    475c:	02e787b3          	mul	a5,a5,a4
    4760:	000a4703          	lbu	a4,0(s4)
    4764:	85a2                	mv	a1,s0
    4766:	03448513          	addi	a0,s1,52 # 10001034 <__rodata_start__+0xfff79f4>
    476a:	0792                	slli	a5,a5,0x4
    476c:	0f07f793          	andi	a5,a5,240
    4770:	2be020ef          	jal	6a2e <_Z7printf_PKcz>
    4774:	030a8513          	addi	a0,s5,48 # 10000030 <__rodata_start__+0xfff69f0>
    4778:	2b6020ef          	jal	6a2e <_Z7printf_PKcz>
    477c:	9002                	ebreak
    477e:	0405                	addi	s0,s0,1
    4780:	0a05                	addi	s4,s4,1
    4782:	0985                	addi	s3,s3,1
    4784:	0905                	addi	s2,s2,1
    4786:	f9641ee3          	bne	s0,s6,4722 <_Z14vmac_testcase1v+0x15a>
    478a:	10001637          	lui	a2,0x10001
    478e:	100015b7          	lui	a1,0x10001
    4792:	10000537          	lui	a0,0x10000
    4796:	3b200693          	li	a3,946
    479a:	ff060613          	addi	a2,a2,-16 # 10000ff0 <__rodata_start__+0xfff79b0>
    479e:	87c58593          	addi	a1,a1,-1924 # 1000087c <__rodata_start__+0xfff723c>
    47a2:	01450513          	addi	a0,a0,20 # 10000014 <__rodata_start__+0xfff69d4>
    47a6:	288020ef          	jal	6a2e <_Z7printf_PKcz>
    47aa:	10001537          	lui	a0,0x10001
    47ae:	06850513          	addi	a0,a0,104 # 10001068 <__rodata_start__+0xfff7a28>
    47b2:	27c020ef          	jal	6a2e <_Z7printf_PKcz>
    47b6:	5462                	lw	s0,56(sp)
    47b8:	50f2                	lw	ra,60(sp)
    47ba:	54d2                	lw	s1,52(sp)
    47bc:	5942                	lw	s2,48(sp)
    47be:	59b2                	lw	s3,44(sp)
    47c0:	5a22                	lw	s4,40(sp)
    47c2:	5a92                	lw	s5,36(sp)
    47c4:	5b02                	lw	s6,32(sp)
    47c6:	4bf2                	lw	s7,28(sp)
    47c8:	4c62                	lw	s8,24(sp)
    47ca:	4cd2                	lw	s9,20(sp)
    47cc:	4d42                	lw	s10,16(sp)
    47ce:	4db2                	lw	s11,12(sp)
    47d0:	10000537          	lui	a0,0x10000
    47d4:	03050513          	addi	a0,a0,48 # 10000030 <__rodata_start__+0xfff69f0>
    47d8:	6121                	addi	sp,sp,64
    47da:	2540206f          	j	6a2e <_Z7printf_PKcz>

000047de <_Z15vmadd_testcase1v>:
    47de:	7139                	addi	sp,sp,-64
    47e0:	da26                	sw	s1,52(sp)
    47e2:	de06                	sw	ra,60(sp)
    47e4:	dc22                	sw	s0,56(sp)
    47e6:	d84a                	sw	s2,48(sp)
    47e8:	d64e                	sw	s3,44(sp)
    47ea:	d452                	sw	s4,40(sp)
    47ec:	d256                	sw	s5,36(sp)
    47ee:	d05a                	sw	s6,32(sp)
    47f0:	ce5e                	sw	s7,28(sp)
    47f2:	cc62                	sw	s8,24(sp)
    47f4:	ca66                	sw	s9,20(sp)
    47f6:	c86a                	sw	s10,16(sp)
    47f8:	c66e                	sw	s11,12(sp)
    47fa:	4781                	li	a5,0
    47fc:	100074b7          	lui	s1,0x10007
    4800:	10000693          	li	a3,256
    4804:	e3048713          	addi	a4,s1,-464 # 10006e30 <waddr>
    4808:	973e                	add	a4,a4,a5
    480a:	00070023          	sb	zero,0(a4)
    480e:	0785                	addi	a5,a5,1
    4810:	e3048913          	addi	s2,s1,-464
    4814:	fed798e3          	bne	a5,a3,4804 <_Z15vmadd_testcase1v+0x26>
    4818:	70000793          	li	a5,1792
    481c:	1047a00b          	vsetcsr	zero,a5,260
    4820:	08000793          	li	a5,128
    4824:	1057a00b          	vsetcsr	zero,a5,261
    4828:	57fd                	li	a5,-1
    482a:	1067a00b          	vsetcsr	zero,a5,262
    482e:	1039200b          	vsetcsr	zero,s2,259
    4832:	10007437          	lui	s0,0x10007
    4836:	c2040413          	addi	s0,s0,-992 # 10006c20 <raddr4>
    483a:	2684006b          	vmadd	zero,s0,s0
    483e:	e3048993          	addi	s3,s1,-464
    4842:	8a22                	mv	s4,s0
    4844:	8b22                	mv	s6,s0
    4846:	e3048493          	addi	s1,s1,-464
    484a:	4a81                	li	s5,0
    484c:	10001d37          	lui	s10,0x10001
    4850:	10001db7          	lui	s11,0x10001
    4854:	10000837          	lui	a6,0x10000
    4858:	10001bb7          	lui	s7,0x10001
    485c:	10000c37          	lui	s8,0x10000
    4860:	4cc1                	li	s9,16
    4862:	000b0703          	lb	a4,0(s6) # 10001000 <__rodata_start__+0xfff79c0>
    4866:	00048783          	lb	a5,0(s1)
    486a:	02e70733          	mul	a4,a4,a4
    486e:	8fb9                	xor	a5,a5,a4
    4870:	0ff7f793          	zext.b	a5,a5
    4874:	c3a9                	beqz	a5,48b6 <_Z15vmadd_testcase1v+0xd8>
    4876:	01480513          	addi	a0,a6,20 # 10000014 <__rodata_start__+0xfff69d4>
    487a:	074d0613          	addi	a2,s10,116 # 10001074 <__rodata_start__+0xfff7a34>
    487e:	87cd8593          	addi	a1,s11,-1924 # 1000087c <__rodata_start__+0xfff723c>
    4882:	3c700693          	li	a3,967
    4886:	1a8020ef          	jal	6a2e <_Z7printf_PKcz>
    488a:	000b0783          	lb	a5,0(s6)
    488e:	0004c703          	lbu	a4,0(s1)
    4892:	86d6                	mv	a3,s5
    4894:	02f787b3          	mul	a5,a5,a5
    4898:	8656                	mv	a2,s5
    489a:	85d6                	mv	a1,s5
    489c:	084b8513          	addi	a0,s7,132 # 10001084 <__rodata_start__+0xfff7a44>
    48a0:	0ff7f793          	zext.b	a5,a5
    48a4:	18a020ef          	jal	6a2e <_Z7printf_PKcz>
    48a8:	030c0513          	addi	a0,s8,48 # 10000030 <__rodata_start__+0xfff69f0>
    48ac:	182020ef          	jal	6a2e <_Z7printf_PKcz>
    48b0:	9002                	ebreak
    48b2:	10000837          	lui	a6,0x10000
    48b6:	0a85                	addi	s5,s5,1
    48b8:	0485                	addi	s1,s1,1
    48ba:	0b05                	addi	s6,s6,1
    48bc:	fb9a93e3          	bne	s5,s9,4862 <_Z15vmadd_testcase1v+0x84>
    48c0:	4781                	li	a5,0
    48c2:	10000713          	li	a4,256
    48c6:	00f906b3          	add	a3,s2,a5
    48ca:	00068023          	sb	zero,0(a3)
    48ce:	0785                	addi	a5,a5,1
    48d0:	fee79be3          	bne	a5,a4,48c6 <_Z15vmadd_testcase1v+0xe8>
    48d4:	70200793          	li	a5,1794
    48d8:	1047a00b          	vsetcsr	zero,a5,260
    48dc:	08000793          	li	a5,128
    48e0:	1057a00b          	vsetcsr	zero,a5,261
    48e4:	57fd                	li	a5,-1
    48e6:	1067a00b          	vsetcsr	zero,a5,262
    48ea:	1039200b          	vsetcsr	zero,s2,259
    48ee:	2684006b          	vmadd	zero,s0,s0
    48f2:	8ba2                	mv	s7,s0
    48f4:	8c4e                	mv	s8,s3
    48f6:	4481                	li	s1,0
    48f8:	10001d37          	lui	s10,0x10001
    48fc:	10001db7          	lui	s11,0x10001
    4900:	10000837          	lui	a6,0x10000
    4904:	10001ab7          	lui	s5,0x10001
    4908:	10000b37          	lui	s6,0x10000
    490c:	4cc1                	li	s9,16
    490e:	000b8783          	lb	a5,0(s7)
    4912:	000c4703          	lbu	a4,0(s8)
    4916:	02f787b3          	mul	a5,a5,a5
    491a:	8785                	srai	a5,a5,0x1
    491c:	07f7f793          	andi	a5,a5,127
    4920:	04f70363          	beq	a4,a5,4966 <_Z15vmadd_testcase1v+0x188>
    4924:	01480513          	addi	a0,a6,20 # 10000014 <__rodata_start__+0xfff69d4>
    4928:	074d0613          	addi	a2,s10,116 # 10001074 <__rodata_start__+0xfff7a34>
    492c:	87cd8593          	addi	a1,s11,-1924 # 1000087c <__rodata_start__+0xfff723c>
    4930:	3dc00693          	li	a3,988
    4934:	0fa020ef          	jal	6a2e <_Z7printf_PKcz>
    4938:	000b8783          	lb	a5,0(s7)
    493c:	000c4703          	lbu	a4,0(s8)
    4940:	86a6                	mv	a3,s1
    4942:	02f787b3          	mul	a5,a5,a5
    4946:	8626                	mv	a2,s1
    4948:	85a6                	mv	a1,s1
    494a:	0b8a8513          	addi	a0,s5,184 # 100010b8 <__rodata_start__+0xfff7a78>
    494e:	8785                	srai	a5,a5,0x1
    4950:	07f7f793          	andi	a5,a5,127
    4954:	0da020ef          	jal	6a2e <_Z7printf_PKcz>
    4958:	030b0513          	addi	a0,s6,48 # 10000030 <__rodata_start__+0xfff69f0>
    495c:	0d2020ef          	jal	6a2e <_Z7printf_PKcz>
    4960:	9002                	ebreak
    4962:	10000837          	lui	a6,0x10000
    4966:	0485                	addi	s1,s1,1
    4968:	0c05                	addi	s8,s8,1
    496a:	0b85                	addi	s7,s7,1
    496c:	fb9491e3          	bne	s1,s9,490e <_Z15vmadd_testcase1v+0x130>
    4970:	4781                	li	a5,0
    4972:	10000713          	li	a4,256
    4976:	00f906b3          	add	a3,s2,a5
    497a:	00068023          	sb	zero,0(a3)
    497e:	0785                	addi	a5,a5,1
    4980:	fee79be3          	bne	a5,a4,4976 <_Z15vmadd_testcase1v+0x198>
    4984:	70000793          	li	a5,1792
    4988:	1047a00b          	vsetcsr	zero,a5,260
    498c:	6785                	lui	a5,0x1
    498e:	80078793          	addi	a5,a5,-2048 # 800 <_Z21minimum_pwconv_singlePaS_S_+0xc6>
    4992:	1057a00b          	vsetcsr	zero,a5,261
    4996:	57fd                	li	a5,-1
    4998:	1067a00b          	vsetcsr	zero,a5,262
    499c:	1039200b          	vsetcsr	zero,s2,259
    49a0:	2684006b          	vmadd	zero,s0,s0
    49a4:	8aa2                	mv	s5,s0
    49a6:	8b4e                	mv	s6,s3
    49a8:	4481                	li	s1,0
    49aa:	10001d37          	lui	s10,0x10001
    49ae:	10001db7          	lui	s11,0x10001
    49b2:	10000837          	lui	a6,0x10000
    49b6:	10001bb7          	lui	s7,0x10001
    49ba:	10000c37          	lui	s8,0x10000
    49be:	10000c93          	li	s9,256
    49c2:	000a8703          	lb	a4,0(s5)
    49c6:	000b0783          	lb	a5,0(s6)
    49ca:	02e70733          	mul	a4,a4,a4
    49ce:	8fb9                	xor	a5,a5,a4
    49d0:	0ff7f793          	zext.b	a5,a5
    49d4:	c3a9                	beqz	a5,4a16 <_Z15vmadd_testcase1v+0x238>
    49d6:	01480513          	addi	a0,a6,20 # 10000014 <__rodata_start__+0xfff69d4>
    49da:	074d0613          	addi	a2,s10,116 # 10001074 <__rodata_start__+0xfff7a34>
    49de:	87cd8593          	addi	a1,s11,-1924 # 1000087c <__rodata_start__+0xfff723c>
    49e2:	3f100693          	li	a3,1009
    49e6:	048020ef          	jal	6a2e <_Z7printf_PKcz>
    49ea:	000a8783          	lb	a5,0(s5)
    49ee:	000b4703          	lbu	a4,0(s6)
    49f2:	86a6                	mv	a3,s1
    49f4:	02f787b3          	mul	a5,a5,a5
    49f8:	8626                	mv	a2,s1
    49fa:	85a6                	mv	a1,s1
    49fc:	0f0b8513          	addi	a0,s7,240 # 100010f0 <__rodata_start__+0xfff7ab0>
    4a00:	0ff7f793          	zext.b	a5,a5
    4a04:	02a020ef          	jal	6a2e <_Z7printf_PKcz>
    4a08:	030c0513          	addi	a0,s8,48 # 10000030 <__rodata_start__+0xfff69f0>
    4a0c:	022020ef          	jal	6a2e <_Z7printf_PKcz>
    4a10:	9002                	ebreak
    4a12:	10000837          	lui	a6,0x10000
    4a16:	0485                	addi	s1,s1,1
    4a18:	0b05                	addi	s6,s6,1
    4a1a:	0a85                	addi	s5,s5,1
    4a1c:	fb9493e3          	bne	s1,s9,49c2 <_Z15vmadd_testcase1v+0x1e4>
    4a20:	4781                	li	a5,0
    4a22:	10000713          	li	a4,256
    4a26:	00f906b3          	add	a3,s2,a5
    4a2a:	00068023          	sb	zero,0(a3)
    4a2e:	0785                	addi	a5,a5,1
    4a30:	fee79be3          	bne	a5,a4,4a26 <_Z15vmadd_testcase1v+0x248>
    4a34:	70200793          	li	a5,1794
    4a38:	1047a00b          	vsetcsr	zero,a5,260
    4a3c:	6785                	lui	a5,0x1
    4a3e:	80078793          	addi	a5,a5,-2048 # 800 <_Z21minimum_pwconv_singlePaS_S_+0xc6>
    4a42:	1057a00b          	vsetcsr	zero,a5,261
    4a46:	57fd                	li	a5,-1
    4a48:	1067a00b          	vsetcsr	zero,a5,262
    4a4c:	1039200b          	vsetcsr	zero,s2,259
    4a50:	2684006b          	vmadd	zero,s0,s0
    4a54:	4401                	li	s0,0
    4a56:	10001b37          	lui	s6,0x10001
    4a5a:	10001bb7          	lui	s7,0x10001
    4a5e:	10000c37          	lui	s8,0x10000
    4a62:	100014b7          	lui	s1,0x10001
    4a66:	10000937          	lui	s2,0x10000
    4a6a:	10000a93          	li	s5,256
    4a6e:	000a0783          	lb	a5,0(s4)
    4a72:	0009c703          	lbu	a4,0(s3)
    4a76:	02f787b3          	mul	a5,a5,a5
    4a7a:	8785                	srai	a5,a5,0x1
    4a7c:	07f7f793          	andi	a5,a5,127
    4a80:	04f70163          	beq	a4,a5,4ac2 <_Z15vmadd_testcase1v+0x2e4>
    4a84:	074b0613          	addi	a2,s6,116 # 10001074 <__rodata_start__+0xfff7a34>
    4a88:	87cb8593          	addi	a1,s7,-1924 # 1000087c <__rodata_start__+0xfff723c>
    4a8c:	40600693          	li	a3,1030
    4a90:	014c0513          	addi	a0,s8,20 # 10000014 <__rodata_start__+0xfff69d4>
    4a94:	79b010ef          	jal	6a2e <_Z7printf_PKcz>
    4a98:	000a0783          	lb	a5,0(s4)
    4a9c:	0009c703          	lbu	a4,0(s3)
    4aa0:	86a2                	mv	a3,s0
    4aa2:	02f787b3          	mul	a5,a5,a5
    4aa6:	8622                	mv	a2,s0
    4aa8:	85a2                	mv	a1,s0
    4aaa:	0b848513          	addi	a0,s1,184 # 100010b8 <__rodata_start__+0xfff7a78>
    4aae:	8785                	srai	a5,a5,0x1
    4ab0:	0ff7f793          	zext.b	a5,a5
    4ab4:	77b010ef          	jal	6a2e <_Z7printf_PKcz>
    4ab8:	03090513          	addi	a0,s2,48 # 10000030 <__rodata_start__+0xfff69f0>
    4abc:	773010ef          	jal	6a2e <_Z7printf_PKcz>
    4ac0:	9002                	ebreak
    4ac2:	0405                	addi	s0,s0,1
    4ac4:	0985                	addi	s3,s3,1
    4ac6:	0a05                	addi	s4,s4,1
    4ac8:	fb5413e3          	bne	s0,s5,4a6e <_Z15vmadd_testcase1v+0x290>
    4acc:	10001637          	lui	a2,0x10001
    4ad0:	100015b7          	lui	a1,0x10001
    4ad4:	10000537          	lui	a0,0x10000
    4ad8:	40a00693          	li	a3,1034
    4adc:	07460613          	addi	a2,a2,116 # 10001074 <__rodata_start__+0xfff7a34>
    4ae0:	87c58593          	addi	a1,a1,-1924 # 1000087c <__rodata_start__+0xfff723c>
    4ae4:	01450513          	addi	a0,a0,20 # 10000014 <__rodata_start__+0xfff69d4>
    4ae8:	747010ef          	jal	6a2e <_Z7printf_PKcz>
    4aec:	10001537          	lui	a0,0x10001
    4af0:	12050513          	addi	a0,a0,288 # 10001120 <__rodata_start__+0xfff7ae0>
    4af4:	73b010ef          	jal	6a2e <_Z7printf_PKcz>
    4af8:	5462                	lw	s0,56(sp)
    4afa:	50f2                	lw	ra,60(sp)
    4afc:	54d2                	lw	s1,52(sp)
    4afe:	5942                	lw	s2,48(sp)
    4b00:	59b2                	lw	s3,44(sp)
    4b02:	5a22                	lw	s4,40(sp)
    4b04:	5a92                	lw	s5,36(sp)
    4b06:	5b02                	lw	s6,32(sp)
    4b08:	4bf2                	lw	s7,28(sp)
    4b0a:	4c62                	lw	s8,24(sp)
    4b0c:	4cd2                	lw	s9,20(sp)
    4b0e:	4d42                	lw	s10,16(sp)
    4b10:	4db2                	lw	s11,12(sp)
    4b12:	10000537          	lui	a0,0x10000
    4b16:	03050513          	addi	a0,a0,48 # 10000030 <__rodata_start__+0xfff69f0>
    4b1a:	6121                	addi	sp,sp,64
    4b1c:	7130106f          	j	6a2e <_Z7printf_PKcz>

00004b20 <_Z15vmadd_testcase2v>:
    4b20:	7139                	addi	sp,sp,-64
    4b22:	dc22                	sw	s0,56(sp)
    4b24:	de06                	sw	ra,60(sp)
    4b26:	da26                	sw	s1,52(sp)
    4b28:	d84a                	sw	s2,48(sp)
    4b2a:	d64e                	sw	s3,44(sp)
    4b2c:	d452                	sw	s4,40(sp)
    4b2e:	d256                	sw	s5,36(sp)
    4b30:	d05a                	sw	s6,32(sp)
    4b32:	ce5e                	sw	s7,28(sp)
    4b34:	cc62                	sw	s8,24(sp)
    4b36:	ca66                	sw	s9,20(sp)
    4b38:	c86a                	sw	s10,16(sp)
    4b3a:	c66e                	sw	s11,12(sp)
    4b3c:	4781                	li	a5,0
    4b3e:	10007437          	lui	s0,0x10007
    4b42:	10000693          	li	a3,256
    4b46:	e3040713          	addi	a4,s0,-464 # 10006e30 <waddr>
    4b4a:	973e                	add	a4,a4,a5
    4b4c:	00070023          	sb	zero,0(a4)
    4b50:	0785                	addi	a5,a5,1
    4b52:	e3040993          	addi	s3,s0,-464
    4b56:	fed798e3          	bne	a5,a3,4b46 <_Z15vmadd_testcase2v+0x26>
    4b5a:	6785                	lui	a5,0x1
    4b5c:	f0078793          	addi	a5,a5,-256 # f00 <_Z24minimum_matmul_multi_8x8PaS_S_+0x3e>
    4b60:	1047a00b          	vsetcsr	zero,a5,260
    4b64:	20000793          	li	a5,512
    4b68:	1057a00b          	vsetcsr	zero,a5,261
    4b6c:	57fd                	li	a5,-1
    4b6e:	1067a00b          	vsetcsr	zero,a5,262
    4b72:	1039a00b          	vsetcsr	zero,s3,259
    4b76:	10098a13          	addi	s4,s3,256
    4b7a:	4cbd                	li	s9,15
    4b7c:	279a006b          	vmadd	zero,s4,s9
    4b80:	e3040913          	addi	s2,s0,-464
    4b84:	84d2                	mv	s1,s4
    4b86:	8c52                	mv	s8,s4
    4b88:	e3040413          	addi	s0,s0,-464
    4b8c:	4a81                	li	s5,0
    4b8e:	10001d37          	lui	s10,0x10001
    4b92:	10001db7          	lui	s11,0x10001
    4b96:	10000837          	lui	a6,0x10000
    4b9a:	10001b37          	lui	s6,0x10001
    4b9e:	10000bb7          	lui	s7,0x10000
    4ba2:	000c0783          	lb	a5,0(s8)
    4ba6:	00040703          	lb	a4,0(s0)
    4baa:	039787b3          	mul	a5,a5,s9
    4bae:	8fb9                	xor	a5,a5,a4
    4bb0:	0ff7f793          	zext.b	a5,a5
    4bb4:	c3a1                	beqz	a5,4bf4 <_Z15vmadd_testcase2v+0xd4>
    4bb6:	01480513          	addi	a0,a6,20 # 10000014 <__rodata_start__+0xfff69d4>
    4bba:	12cd0613          	addi	a2,s10,300 # 1000112c <__rodata_start__+0xfff7aec>
    4bbe:	87cd8593          	addi	a1,s11,-1924 # 1000087c <__rodata_start__+0xfff723c>
    4bc2:	41f00693          	li	a3,1055
    4bc6:	669010ef          	jal	6a2e <_Z7printf_PKcz>
    4bca:	000c0703          	lb	a4,0(s8)
    4bce:	00044683          	lbu	a3,0(s0)
    4bd2:	8656                	mv	a2,s5
    4bd4:	03970733          	mul	a4,a4,s9
    4bd8:	85d6                	mv	a1,s5
    4bda:	13cb0513          	addi	a0,s6,316 # 1000113c <__rodata_start__+0xfff7afc>
    4bde:	0ff77713          	zext.b	a4,a4
    4be2:	64d010ef          	jal	6a2e <_Z7printf_PKcz>
    4be6:	030b8513          	addi	a0,s7,48 # 10000030 <__rodata_start__+0xfff69f0>
    4bea:	645010ef          	jal	6a2e <_Z7printf_PKcz>
    4bee:	9002                	ebreak
    4bf0:	10000837          	lui	a6,0x10000
    4bf4:	0a85                	addi	s5,s5,1
    4bf6:	04000793          	li	a5,64
    4bfa:	0405                	addi	s0,s0,1
    4bfc:	0c05                	addi	s8,s8,1
    4bfe:	fafa92e3          	bne	s5,a5,4ba2 <_Z15vmadd_testcase2v+0x82>
    4c02:	4781                	li	a5,0
    4c04:	10000713          	li	a4,256
    4c08:	00f986b3          	add	a3,s3,a5
    4c0c:	00068023          	sb	zero,0(a3)
    4c10:	0785                	addi	a5,a5,1
    4c12:	fee79be3          	bne	a5,a4,4c08 <_Z15vmadd_testcase2v+0xe8>
    4c16:	6785                	lui	a5,0x1
    4c18:	f0078793          	addi	a5,a5,-256 # f00 <_Z24minimum_matmul_multi_8x8PaS_S_+0x3e>
    4c1c:	1047a00b          	vsetcsr	zero,a5,260
    4c20:	20800793          	li	a5,520
    4c24:	1057a00b          	vsetcsr	zero,a5,261
    4c28:	57fd                	li	a5,-1
    4c2a:	1067a00b          	vsetcsr	zero,a5,262
    4c2e:	1039a00b          	vsetcsr	zero,s3,259
    4c32:	4abd                	li	s5,15
    4c34:	275a006b          	vmadd	zero,s4,s5
    4c38:	4401                	li	s0,0
    4c3a:	10001bb7          	lui	s7,0x10001
    4c3e:	10001c37          	lui	s8,0x10001
    4c42:	10000cb7          	lui	s9,0x10000
    4c46:	10001a37          	lui	s4,0x10001
    4c4a:	10000b37          	lui	s6,0x10000
    4c4e:	00048783          	lb	a5,0(s1)
    4c52:	00090703          	lb	a4,0(s2)
    4c56:	035787b3          	mul	a5,a5,s5
    4c5a:	8fb9                	xor	a5,a5,a4
    4c5c:	0ff7f793          	zext.b	a5,a5
    4c60:	cf95                	beqz	a5,4c9c <_Z15vmadd_testcase2v+0x17c>
    4c62:	12cb8613          	addi	a2,s7,300 # 1000112c <__rodata_start__+0xfff7aec>
    4c66:	87cc0593          	addi	a1,s8,-1924 # 1000087c <__rodata_start__+0xfff723c>
    4c6a:	43400693          	li	a3,1076
    4c6e:	014c8513          	addi	a0,s9,20 # 10000014 <__rodata_start__+0xfff69d4>
    4c72:	5bd010ef          	jal	6a2e <_Z7printf_PKcz>
    4c76:	00048703          	lb	a4,0(s1)
    4c7a:	00094683          	lbu	a3,0(s2)
    4c7e:	8622                	mv	a2,s0
    4c80:	03570733          	mul	a4,a4,s5
    4c84:	85a2                	mv	a1,s0
    4c86:	168a0513          	addi	a0,s4,360 # 10001168 <__rodata_start__+0xfff7b28>
    4c8a:	0ff77713          	zext.b	a4,a4
    4c8e:	5a1010ef          	jal	6a2e <_Z7printf_PKcz>
    4c92:	030b0513          	addi	a0,s6,48 # 10000030 <__rodata_start__+0xfff69f0>
    4c96:	599010ef          	jal	6a2e <_Z7printf_PKcz>
    4c9a:	9002                	ebreak
    4c9c:	0405                	addi	s0,s0,1
    4c9e:	04100793          	li	a5,65
    4ca2:	0905                	addi	s2,s2,1
    4ca4:	0485                	addi	s1,s1,1
    4ca6:	faf414e3          	bne	s0,a5,4c4e <_Z15vmadd_testcase2v+0x12e>
    4caa:	0419c783          	lbu	a5,65(s3)
    4cae:	10001a37          	lui	s4,0x10001
    4cb2:	10001937          	lui	s2,0x10001
    4cb6:	100004b7          	lui	s1,0x10000
    4cba:	10000437          	lui	s0,0x10000
    4cbe:	cb85                	beqz	a5,4cee <_Z15vmadd_testcase2v+0x1ce>
    4cc0:	43900693          	li	a3,1081
    4cc4:	12ca0613          	addi	a2,s4,300 # 1000112c <__rodata_start__+0xfff7aec>
    4cc8:	87c90593          	addi	a1,s2,-1924 # 1000087c <__rodata_start__+0xfff723c>
    4ccc:	01448513          	addi	a0,s1,20 # 10000014 <__rodata_start__+0xfff69d4>
    4cd0:	55f010ef          	jal	6a2e <_Z7printf_PKcz>
    4cd4:	0419c583          	lbu	a1,65(s3)
    4cd8:	10001537          	lui	a0,0x10001
    4cdc:	19450513          	addi	a0,a0,404 # 10001194 <__rodata_start__+0xfff7b54>
    4ce0:	54f010ef          	jal	6a2e <_Z7printf_PKcz>
    4ce4:	03040513          	addi	a0,s0,48 # 10000030 <__rodata_start__+0xfff69f0>
    4ce8:	547010ef          	jal	6a2e <_Z7printf_PKcz>
    4cec:	9002                	ebreak
    4cee:	12ca0613          	addi	a2,s4,300
    4cf2:	87c90593          	addi	a1,s2,-1924
    4cf6:	43c00693          	li	a3,1084
    4cfa:	01448513          	addi	a0,s1,20
    4cfe:	531010ef          	jal	6a2e <_Z7printf_PKcz>
    4d02:	10001537          	lui	a0,0x10001
    4d06:	12050513          	addi	a0,a0,288 # 10001120 <__rodata_start__+0xfff7ae0>
    4d0a:	525010ef          	jal	6a2e <_Z7printf_PKcz>
    4d0e:	03040513          	addi	a0,s0,48
    4d12:	5462                	lw	s0,56(sp)
    4d14:	50f2                	lw	ra,60(sp)
    4d16:	54d2                	lw	s1,52(sp)
    4d18:	5942                	lw	s2,48(sp)
    4d1a:	59b2                	lw	s3,44(sp)
    4d1c:	5a22                	lw	s4,40(sp)
    4d1e:	5a92                	lw	s5,36(sp)
    4d20:	5b02                	lw	s6,32(sp)
    4d22:	4bf2                	lw	s7,28(sp)
    4d24:	4c62                	lw	s8,24(sp)
    4d26:	4cd2                	lw	s9,20(sp)
    4d28:	4d42                	lw	s10,16(sp)
    4d2a:	4db2                	lw	s11,12(sp)
    4d2c:	6121                	addi	sp,sp,64
    4d2e:	5010106f          	j	6a2e <_Z7printf_PKcz>

00004d32 <_Z14vmul_testcase1v>:
    4d32:	7139                	addi	sp,sp,-64
    4d34:	dc22                	sw	s0,56(sp)
    4d36:	de06                	sw	ra,60(sp)
    4d38:	da26                	sw	s1,52(sp)
    4d3a:	d84a                	sw	s2,48(sp)
    4d3c:	d64e                	sw	s3,44(sp)
    4d3e:	d452                	sw	s4,40(sp)
    4d40:	d256                	sw	s5,36(sp)
    4d42:	d05a                	sw	s6,32(sp)
    4d44:	ce5e                	sw	s7,28(sp)
    4d46:	cc62                	sw	s8,24(sp)
    4d48:	ca66                	sw	s9,20(sp)
    4d4a:	c86a                	sw	s10,16(sp)
    4d4c:	c66e                	sw	s11,12(sp)
    4d4e:	4781                	li	a5,0
    4d50:	10007437          	lui	s0,0x10007
    4d54:	10000693          	li	a3,256
    4d58:	e3040713          	addi	a4,s0,-464 # 10006e30 <waddr>
    4d5c:	973e                	add	a4,a4,a5
    4d5e:	00070023          	sb	zero,0(a4)
    4d62:	0785                	addi	a5,a5,1
    4d64:	e3040a13          	addi	s4,s0,-464
    4d68:	fed798e3          	bne	a5,a3,4d58 <_Z14vmul_testcase1v+0x26>
    4d6c:	70000793          	li	a5,1792
    4d70:	1047a00b          	vsetcsr	zero,a5,260
    4d74:	08000793          	li	a5,128
    4d78:	1057a00b          	vsetcsr	zero,a5,261
    4d7c:	57fd                	li	a5,-1
    4d7e:	1067a00b          	vsetcsr	zero,a5,262
    4d82:	103a200b          	vsetcsr	zero,s4,259
    4d86:	100074b7          	lui	s1,0x10007
    4d8a:	b2048493          	addi	s1,s1,-1248 # 10006b20 <raddr1>
    4d8e:	10048a93          	addi	s5,s1,256
    4d92:	2954806b          	vmul	zero,s1,s5
    4d96:	e3040993          	addi	s3,s0,-464
    4d9a:	4901                	li	s2,0
    4d9c:	e3040413          	addi	s0,s0,-464
    4da0:	0fe00b13          	li	s6,254
    4da4:	10001bb7          	lui	s7,0x10001
    4da8:	10001c37          	lui	s8,0x10001
    4dac:	10000db7          	lui	s11,0x10000
    4db0:	10001cb7          	lui	s9,0x10001
    4db4:	10000d37          	lui	s10,0x10000
    4db8:	00044783          	lbu	a5,0(s0)
    4dbc:	03678c63          	beq	a5,s6,4df4 <_Z14vmul_testcase1v+0xc2>
    4dc0:	1acb8613          	addi	a2,s7,428 # 100011ac <__rodata_start__+0xfff7b6c>
    4dc4:	87cc0593          	addi	a1,s8,-1924 # 1000087c <__rodata_start__+0xfff723c>
    4dc8:	45200693          	li	a3,1106
    4dcc:	014d8513          	addi	a0,s11,20 # 10000014 <__rodata_start__+0xfff69d4>
    4dd0:	45f010ef          	jal	6a2e <_Z7printf_PKcz>
    4dd4:	00044703          	lbu	a4,0(s0)
    4dd8:	0fe00793          	li	a5,254
    4ddc:	86ca                	mv	a3,s2
    4dde:	864a                	mv	a2,s2
    4de0:	85ca                	mv	a1,s2
    4de2:	1bcc8513          	addi	a0,s9,444 # 100011bc <__rodata_start__+0xfff7b7c>
    4de6:	449010ef          	jal	6a2e <_Z7printf_PKcz>
    4dea:	030d0513          	addi	a0,s10,48 # 10000030 <__rodata_start__+0xfff69f0>
    4dee:	441010ef          	jal	6a2e <_Z7printf_PKcz>
    4df2:	9002                	ebreak
    4df4:	0905                	addi	s2,s2,1
    4df6:	47c1                	li	a5,16
    4df8:	0405                	addi	s0,s0,1
    4dfa:	faf91fe3          	bne	s2,a5,4db8 <_Z14vmul_testcase1v+0x86>
    4dfe:	4781                	li	a5,0
    4e00:	10000713          	li	a4,256
    4e04:	00fa06b3          	add	a3,s4,a5
    4e08:	00068023          	sb	zero,0(a3)
    4e0c:	0785                	addi	a5,a5,1
    4e0e:	fee79be3          	bne	a5,a4,4e04 <_Z14vmul_testcase1v+0xd2>
    4e12:	70000793          	li	a5,1792
    4e16:	1047a00b          	vsetcsr	zero,a5,260
    4e1a:	6785                	lui	a5,0x1
    4e1c:	80078793          	addi	a5,a5,-2048 # 800 <_Z21minimum_pwconv_singlePaS_S_+0xc6>
    4e20:	1057a00b          	vsetcsr	zero,a5,261
    4e24:	57fd                	li	a5,-1
    4e26:	1067a00b          	vsetcsr	zero,a5,262
    4e2a:	103a200b          	vsetcsr	zero,s4,259
    4e2e:	2954806b          	vmul	zero,s1,s5
    4e32:	4401                	li	s0,0
    4e34:	0fe00493          	li	s1,254
    4e38:	10001937          	lui	s2,0x10001
    4e3c:	10001a37          	lui	s4,0x10001
    4e40:	10000ab7          	lui	s5,0x10000
    4e44:	10001b37          	lui	s6,0x10001
    4e48:	10000bb7          	lui	s7,0x10000
    4e4c:	0009c783          	lbu	a5,0(s3)
    4e50:	02978c63          	beq	a5,s1,4e88 <_Z14vmul_testcase1v+0x156>
    4e54:	1ac90613          	addi	a2,s2,428 # 100011ac <__rodata_start__+0xfff7b6c>
    4e58:	87ca0593          	addi	a1,s4,-1924 # 1000087c <__rodata_start__+0xfff723c>
    4e5c:	46700693          	li	a3,1127
    4e60:	014a8513          	addi	a0,s5,20 # 10000014 <__rodata_start__+0xfff69d4>
    4e64:	3cb010ef          	jal	6a2e <_Z7printf_PKcz>
    4e68:	0009c703          	lbu	a4,0(s3)
    4e6c:	0fe00793          	li	a5,254
    4e70:	86a2                	mv	a3,s0
    4e72:	8622                	mv	a2,s0
    4e74:	85a2                	mv	a1,s0
    4e76:	1bcb0513          	addi	a0,s6,444 # 100011bc <__rodata_start__+0xfff7b7c>
    4e7a:	3b5010ef          	jal	6a2e <_Z7printf_PKcz>
    4e7e:	030b8513          	addi	a0,s7,48 # 10000030 <__rodata_start__+0xfff69f0>
    4e82:	3ad010ef          	jal	6a2e <_Z7printf_PKcz>
    4e86:	9002                	ebreak
    4e88:	0405                	addi	s0,s0,1
    4e8a:	10000793          	li	a5,256
    4e8e:	0985                	addi	s3,s3,1
    4e90:	faf41ee3          	bne	s0,a5,4e4c <_Z14vmul_testcase1v+0x11a>
    4e94:	10001637          	lui	a2,0x10001
    4e98:	100015b7          	lui	a1,0x10001
    4e9c:	10000537          	lui	a0,0x10000
    4ea0:	46b00693          	li	a3,1131
    4ea4:	1ac60613          	addi	a2,a2,428 # 100011ac <__rodata_start__+0xfff7b6c>
    4ea8:	87c58593          	addi	a1,a1,-1924 # 1000087c <__rodata_start__+0xfff723c>
    4eac:	01450513          	addi	a0,a0,20 # 10000014 <__rodata_start__+0xfff69d4>
    4eb0:	37f010ef          	jal	6a2e <_Z7printf_PKcz>
    4eb4:	10001537          	lui	a0,0x10001
    4eb8:	1f050513          	addi	a0,a0,496 # 100011f0 <__rodata_start__+0xfff7bb0>
    4ebc:	373010ef          	jal	6a2e <_Z7printf_PKcz>
    4ec0:	5462                	lw	s0,56(sp)
    4ec2:	50f2                	lw	ra,60(sp)
    4ec4:	54d2                	lw	s1,52(sp)
    4ec6:	5942                	lw	s2,48(sp)
    4ec8:	59b2                	lw	s3,44(sp)
    4eca:	5a22                	lw	s4,40(sp)
    4ecc:	5a92                	lw	s5,36(sp)
    4ece:	5b02                	lw	s6,32(sp)
    4ed0:	4bf2                	lw	s7,28(sp)
    4ed2:	4c62                	lw	s8,24(sp)
    4ed4:	4cd2                	lw	s9,20(sp)
    4ed6:	4d42                	lw	s10,16(sp)
    4ed8:	4db2                	lw	s11,12(sp)
    4eda:	10000537          	lui	a0,0x10000
    4ede:	03050513          	addi	a0,a0,48 # 10000030 <__rodata_start__+0xfff69f0>
    4ee2:	6121                	addi	sp,sp,64
    4ee4:	34b0106f          	j	6a2e <_Z7printf_PKcz>

00004ee8 <_Z15vmulh_testcase1v>:
    4ee8:	7139                	addi	sp,sp,-64
    4eea:	dc22                	sw	s0,56(sp)
    4eec:	de06                	sw	ra,60(sp)
    4eee:	da26                	sw	s1,52(sp)
    4ef0:	d84a                	sw	s2,48(sp)
    4ef2:	d64e                	sw	s3,44(sp)
    4ef4:	d452                	sw	s4,40(sp)
    4ef6:	d256                	sw	s5,36(sp)
    4ef8:	d05a                	sw	s6,32(sp)
    4efa:	ce5e                	sw	s7,28(sp)
    4efc:	cc62                	sw	s8,24(sp)
    4efe:	ca66                	sw	s9,20(sp)
    4f00:	c86a                	sw	s10,16(sp)
    4f02:	c66e                	sw	s11,12(sp)
    4f04:	4781                	li	a5,0
    4f06:	10007437          	lui	s0,0x10007
    4f0a:	10000693          	li	a3,256
    4f0e:	e3040713          	addi	a4,s0,-464 # 10006e30 <waddr>
    4f12:	973e                	add	a4,a4,a5
    4f14:	00070023          	sb	zero,0(a4)
    4f18:	0785                	addi	a5,a5,1
    4f1a:	e3040a13          	addi	s4,s0,-464
    4f1e:	fed798e3          	bne	a5,a3,4f0e <_Z15vmulh_testcase1v+0x26>
    4f22:	70000793          	li	a5,1792
    4f26:	1047a00b          	vsetcsr	zero,a5,260
    4f2a:	08000793          	li	a5,128
    4f2e:	1057a00b          	vsetcsr	zero,a5,261
    4f32:	57fd                	li	a5,-1
    4f34:	1067a00b          	vsetcsr	zero,a5,262
    4f38:	103a200b          	vsetcsr	zero,s4,259
    4f3c:	100074b7          	lui	s1,0x10007
    4f40:	b2048493          	addi	s1,s1,-1248 # 10006b20 <raddr1>
    4f44:	10048a93          	addi	s5,s1,256
    4f48:	2d54806b          	vmulh	zero,s1,s5
    4f4c:	e3040993          	addi	s3,s0,-464
    4f50:	4901                	li	s2,0
    4f52:	e3040413          	addi	s0,s0,-464
    4f56:	4b05                	li	s6,1
    4f58:	10001bb7          	lui	s7,0x10001
    4f5c:	10001c37          	lui	s8,0x10001
    4f60:	10000db7          	lui	s11,0x10000
    4f64:	10001cb7          	lui	s9,0x10001
    4f68:	10000d37          	lui	s10,0x10000
    4f6c:	00044783          	lbu	a5,0(s0)
    4f70:	03678b63          	beq	a5,s6,4fa6 <_Z15vmulh_testcase1v+0xbe>
    4f74:	1fcb8613          	addi	a2,s7,508 # 100011fc <__rodata_start__+0xfff7bbc>
    4f78:	87cc0593          	addi	a1,s8,-1924 # 1000087c <__rodata_start__+0xfff723c>
    4f7c:	48100693          	li	a3,1153
    4f80:	014d8513          	addi	a0,s11,20 # 10000014 <__rodata_start__+0xfff69d4>
    4f84:	2ab010ef          	jal	6a2e <_Z7printf_PKcz>
    4f88:	00044703          	lbu	a4,0(s0)
    4f8c:	4785                	li	a5,1
    4f8e:	86ca                	mv	a3,s2
    4f90:	864a                	mv	a2,s2
    4f92:	85ca                	mv	a1,s2
    4f94:	20cc8513          	addi	a0,s9,524 # 1000120c <__rodata_start__+0xfff7bcc>
    4f98:	297010ef          	jal	6a2e <_Z7printf_PKcz>
    4f9c:	030d0513          	addi	a0,s10,48 # 10000030 <__rodata_start__+0xfff69f0>
    4fa0:	28f010ef          	jal	6a2e <_Z7printf_PKcz>
    4fa4:	9002                	ebreak
    4fa6:	0905                	addi	s2,s2,1
    4fa8:	47c1                	li	a5,16
    4faa:	0405                	addi	s0,s0,1
    4fac:	fcf910e3          	bne	s2,a5,4f6c <_Z15vmulh_testcase1v+0x84>
    4fb0:	4781                	li	a5,0
    4fb2:	10000713          	li	a4,256
    4fb6:	00fa06b3          	add	a3,s4,a5
    4fba:	00068023          	sb	zero,0(a3)
    4fbe:	0785                	addi	a5,a5,1
    4fc0:	fee79be3          	bne	a5,a4,4fb6 <_Z15vmulh_testcase1v+0xce>
    4fc4:	70000793          	li	a5,1792
    4fc8:	1047a00b          	vsetcsr	zero,a5,260
    4fcc:	6785                	lui	a5,0x1
    4fce:	80078793          	addi	a5,a5,-2048 # 800 <_Z21minimum_pwconv_singlePaS_S_+0xc6>
    4fd2:	1057a00b          	vsetcsr	zero,a5,261
    4fd6:	57fd                	li	a5,-1
    4fd8:	1067a00b          	vsetcsr	zero,a5,262
    4fdc:	103a200b          	vsetcsr	zero,s4,259
    4fe0:	2d54806b          	vmulh	zero,s1,s5
    4fe4:	4401                	li	s0,0
    4fe6:	4485                	li	s1,1
    4fe8:	10001937          	lui	s2,0x10001
    4fec:	10001a37          	lui	s4,0x10001
    4ff0:	10000ab7          	lui	s5,0x10000
    4ff4:	10001b37          	lui	s6,0x10001
    4ff8:	10000bb7          	lui	s7,0x10000
    4ffc:	0009c783          	lbu	a5,0(s3)
    5000:	02978b63          	beq	a5,s1,5036 <_Z15vmulh_testcase1v+0x14e>
    5004:	1fc90613          	addi	a2,s2,508 # 100011fc <__rodata_start__+0xfff7bbc>
    5008:	87ca0593          	addi	a1,s4,-1924 # 1000087c <__rodata_start__+0xfff723c>
    500c:	49600693          	li	a3,1174
    5010:	014a8513          	addi	a0,s5,20 # 10000014 <__rodata_start__+0xfff69d4>
    5014:	21b010ef          	jal	6a2e <_Z7printf_PKcz>
    5018:	0009c703          	lbu	a4,0(s3)
    501c:	4785                	li	a5,1
    501e:	86a2                	mv	a3,s0
    5020:	8622                	mv	a2,s0
    5022:	85a2                	mv	a1,s0
    5024:	20cb0513          	addi	a0,s6,524 # 1000120c <__rodata_start__+0xfff7bcc>
    5028:	207010ef          	jal	6a2e <_Z7printf_PKcz>
    502c:	030b8513          	addi	a0,s7,48 # 10000030 <__rodata_start__+0xfff69f0>
    5030:	1ff010ef          	jal	6a2e <_Z7printf_PKcz>
    5034:	9002                	ebreak
    5036:	0405                	addi	s0,s0,1
    5038:	10000793          	li	a5,256
    503c:	0985                	addi	s3,s3,1
    503e:	faf41fe3          	bne	s0,a5,4ffc <_Z15vmulh_testcase1v+0x114>
    5042:	10001637          	lui	a2,0x10001
    5046:	100015b7          	lui	a1,0x10001
    504a:	10000537          	lui	a0,0x10000
    504e:	49a00693          	li	a3,1178
    5052:	1fc60613          	addi	a2,a2,508 # 100011fc <__rodata_start__+0xfff7bbc>
    5056:	87c58593          	addi	a1,a1,-1924 # 1000087c <__rodata_start__+0xfff723c>
    505a:	01450513          	addi	a0,a0,20 # 10000014 <__rodata_start__+0xfff69d4>
    505e:	1d1010ef          	jal	6a2e <_Z7printf_PKcz>
    5062:	10001537          	lui	a0,0x10001
    5066:	24450513          	addi	a0,a0,580 # 10001244 <__rodata_start__+0xfff7c04>
    506a:	1c5010ef          	jal	6a2e <_Z7printf_PKcz>
    506e:	5462                	lw	s0,56(sp)
    5070:	50f2                	lw	ra,60(sp)
    5072:	54d2                	lw	s1,52(sp)
    5074:	5942                	lw	s2,48(sp)
    5076:	59b2                	lw	s3,44(sp)
    5078:	5a22                	lw	s4,40(sp)
    507a:	5a92                	lw	s5,36(sp)
    507c:	5b02                	lw	s6,32(sp)
    507e:	4bf2                	lw	s7,28(sp)
    5080:	4c62                	lw	s8,24(sp)
    5082:	4cd2                	lw	s9,20(sp)
    5084:	4d42                	lw	s10,16(sp)
    5086:	4db2                	lw	s11,12(sp)
    5088:	10000537          	lui	a0,0x10000
    508c:	03050513          	addi	a0,a0,48 # 10000030 <__rodata_start__+0xfff69f0>
    5090:	6121                	addi	sp,sp,64
    5092:	19d0106f          	j	6a2e <_Z7printf_PKcz>

00005096 <_Z13veu_benchmarkv>:
    5096:	1101                	addi	sp,sp,-32
    5098:	ca26                	sw	s1,20(sp)
    509a:	c84a                	sw	s2,16(sp)
    509c:	c64e                	sw	s3,12(sp)
    509e:	10001937          	lui	s2,0x10001
    50a2:	100019b7          	lui	s3,0x10001
    50a6:	100004b7          	lui	s1,0x10000
    50aa:	25098613          	addi	a2,s3,592 # 10001250 <__rodata_start__+0xfff7c10>
    50ae:	87c90593          	addi	a1,s2,-1924 # 1000087c <__rodata_start__+0xfff723c>
    50b2:	49f00693          	li	a3,1183
    50b6:	01448513          	addi	a0,s1,20 # 10000014 <__rodata_start__+0xfff69d4>
    50ba:	ce06                	sw	ra,28(sp)
    50bc:	cc22                	sw	s0,24(sp)
    50be:	c452                	sw	s4,8(sp)
    50c0:	c256                	sw	s5,4(sp)
    50c2:	16d010ef          	jal	6a2e <_Z7printf_PKcz>
    50c6:	10001537          	lui	a0,0x10001
    50ca:	26050513          	addi	a0,a0,608 # 10001260 <__rodata_start__+0xfff7c20>
    50ce:	10000437          	lui	s0,0x10000
    50d2:	15d010ef          	jal	6a2e <_Z7printf_PKcz>
    50d6:	03040513          	addi	a0,s0,48 # 10000030 <__rodata_start__+0xfff69f0>
    50da:	155010ef          	jal	6a2e <_Z7printf_PKcz>
    50de:	25098613          	addi	a2,s3,592
    50e2:	4a100693          	li	a3,1185
    50e6:	87c90593          	addi	a1,s2,-1924
    50ea:	01448513          	addi	a0,s1,20
    50ee:	141010ef          	jal	6a2e <_Z7printf_PKcz>
    50f2:	100075b7          	lui	a1,0x10007
    50f6:	10001537          	lui	a0,0x10001
    50fa:	b2058a93          	addi	s5,a1,-1248 # 10006b20 <raddr1>
    50fe:	27850513          	addi	a0,a0,632 # 10001278 <__rodata_start__+0xfff7c38>
    5102:	b2058593          	addi	a1,a1,-1248
    5106:	129010ef          	jal	6a2e <_Z7printf_PKcz>
    510a:	03040513          	addi	a0,s0,48
    510e:	121010ef          	jal	6a2e <_Z7printf_PKcz>
    5112:	25098613          	addi	a2,s3,592
    5116:	4a200693          	li	a3,1186
    511a:	87c90593          	addi	a1,s2,-1924
    511e:	01448513          	addi	a0,s1,20
    5122:	10d010ef          	jal	6a2e <_Z7printf_PKcz>
    5126:	10007a37          	lui	s4,0x10007
    512a:	e30a0593          	addi	a1,s4,-464 # 10006e30 <waddr>
    512e:	10001537          	lui	a0,0x10001
    5132:	10058593          	addi	a1,a1,256
    5136:	28450513          	addi	a0,a0,644 # 10001284 <__rodata_start__+0xfff7c44>
    513a:	0f5010ef          	jal	6a2e <_Z7printf_PKcz>
    513e:	03040513          	addi	a0,s0,48
    5142:	0ed010ef          	jal	6a2e <_Z7printf_PKcz>
    5146:	25098613          	addi	a2,s3,592
    514a:	4a300693          	li	a3,1187
    514e:	87c90593          	addi	a1,s2,-1924
    5152:	01448513          	addi	a0,s1,20
    5156:	0d9010ef          	jal	6a2e <_Z7printf_PKcz>
    515a:	10001537          	lui	a0,0x10001
    515e:	200a8593          	addi	a1,s5,512
    5162:	29050513          	addi	a0,a0,656 # 10001290 <__rodata_start__+0xfff7c50>
    5166:	0c9010ef          	jal	6a2e <_Z7printf_PKcz>
    516a:	03040513          	addi	a0,s0,48
    516e:	0c1010ef          	jal	6a2e <_Z7printf_PKcz>
    5172:	25098613          	addi	a2,s3,592
    5176:	4a400693          	li	a3,1188
    517a:	87c90593          	addi	a1,s2,-1924
    517e:	01448513          	addi	a0,s1,20
    5182:	0ad010ef          	jal	6a2e <_Z7printf_PKcz>
    5186:	10001537          	lui	a0,0x10001
    518a:	100a8593          	addi	a1,s5,256
    518e:	29c50513          	addi	a0,a0,668 # 1000129c <__rodata_start__+0xfff7c5c>
    5192:	09d010ef          	jal	6a2e <_Z7printf_PKcz>
    5196:	03040513          	addi	a0,s0,48
    519a:	095010ef          	jal	6a2e <_Z7printf_PKcz>
    519e:	25098613          	addi	a2,s3,592
    51a2:	4a500693          	li	a3,1189
    51a6:	87c90593          	addi	a1,s2,-1924
    51aa:	01448513          	addi	a0,s1,20
    51ae:	081010ef          	jal	6a2e <_Z7printf_PKcz>
    51b2:	10001537          	lui	a0,0x10001
    51b6:	e30a0593          	addi	a1,s4,-464
    51ba:	2a850513          	addi	a0,a0,680 # 100012a8 <__rodata_start__+0xfff7c68>
    51be:	071010ef          	jal	6a2e <_Z7printf_PKcz>
    51c2:	03040513          	addi	a0,s0,48
    51c6:	069010ef          	jal	6a2e <_Z7printf_PKcz>
    51ca:	92cfd0ef          	jal	22f6 <_Z16vorcsr_testcase1v>
    51ce:	a4cfd0ef          	jal	241a <_Z17vandcsr_testcase1v>
    51d2:	b6cfd0ef          	jal	253e <_Z17vsetcsr_testcase1v>
    51d6:	c8cfd0ef          	jal	2662 <_Z17vgetcsr_testcase1v>
    51da:	dacfd0ef          	jal	2786 <_Z14vadd_testcase1v>
    51de:	fa8fd0ef          	jal	2986 <_Z14vadd_testcase2v>
    51e2:	8c3fd0ef          	jal	2aa4 <_Z14vsub_testcase1v>
    51e6:	abffd0ef          	jal	2ca4 <_Z14vmin_testcase1v>
    51ea:	ca1fd0ef          	jal	2e8a <_Z15vminu_testcase1v>
    51ee:	e83fd0ef          	jal	3070 <_Z14vmax_testcase1v>
    51f2:	864fe0ef          	jal	3256 <_Z15vmaxu_testcase1v>
    51f6:	a46fe0ef          	jal	343c <_Z14vand_testcase1v>
    51fa:	c32fe0ef          	jal	362c <_Z13vor_testcase1v>
    51fe:	e1efe0ef          	jal	381c <_Z14vxor_testcase1v>
    5202:	8e8ff0ef          	jal	42ea <_Z17vredsum_testcase1v>
    5206:	bc2ff0ef          	jal	45c8 <_Z14vmac_testcase1v>
    520a:	3625                	jal	4d32 <_Z14vmul_testcase1v>
    520c:	9b3fe0ef          	jal	3bbe <_Z15vssrl_testcase1v>
    5210:	b79fe0ef          	jal	3d88 <_Z15vssra_testcase1v>
    5214:	d4dfe0ef          	jal	3f60 <_Z16vnclip_testcase1v>
    5218:	ff4fe0ef          	jal	3a0c <_Z13vmv_testcase1v>
    521c:	25098613          	addi	a2,s3,592
    5220:	87c90593          	addi	a1,s2,-1924
    5224:	4fb00693          	li	a3,1275
    5228:	01448513          	addi	a0,s1,20
    522c:	003010ef          	jal	6a2e <_Z7printf_PKcz>
    5230:	10001537          	lui	a0,0x10001
    5234:	2b450513          	addi	a0,a0,692 # 100012b4 <__rodata_start__+0xfff7c74>
    5238:	7f6010ef          	jal	6a2e <_Z7printf_PKcz>
    523c:	03040513          	addi	a0,s0,48
    5240:	4462                	lw	s0,24(sp)
    5242:	40f2                	lw	ra,28(sp)
    5244:	44d2                	lw	s1,20(sp)
    5246:	4942                	lw	s2,16(sp)
    5248:	49b2                	lw	s3,12(sp)
    524a:	4a22                	lw	s4,8(sp)
    524c:	4a92                	lw	s5,4(sp)
    524e:	6105                	addi	sp,sp,32
    5250:	7de0106f          	j	6a2e <_Z7printf_PKcz>

00005254 <_Z12virt_to_pagej>:
    5254:	effd07b7          	lui	a5,0xeffd0
    5258:	953e                	add	a0,a0,a5
    525a:	8129                	srli	a0,a0,0xa
    525c:	07c00793          	li	a5,124
    5260:	00a7eb63          	bltu	a5,a0,5276 <_Z12virt_to_pagej+0x22>
    5264:	47f1                	li	a5,28
    5266:	02f50533          	mul	a0,a0,a5
    526a:	1004f7b7          	lui	a5,0x1004f
    526e:	27078793          	addi	a5,a5,624 # 1004f270 <linker_stack_start+0x1f280>
    5272:	953e                	add	a0,a0,a5
    5274:	8082                	ret
    5276:	4501                	li	a0,0
    5278:	8082                	ret

0000527a <_Z15init_page_buddyv>:
    527a:	100077b7          	lui	a5,0x10007
    527e:	03078793          	addi	a5,a5,48 # 10007030 <page_buddy>
    5282:	03078713          	addi	a4,a5,48
    5286:	c39c                	sw	a5,0(a5)
    5288:	c3dc                	sw	a5,4(a5)
    528a:	07a1                	addi	a5,a5,8
    528c:	fee79de3          	bne	a5,a4,5286 <_Z15init_page_buddyv+0xc>
    5290:	8082                	ret

00005292 <_Z13init_page_mapv>:
    5292:	1141                	addi	sp,sp,-16
    5294:	c606                	sw	ra,12(sp)
    5296:	37d5                	jal	527a <_Z15init_page_buddyv>
    5298:	10007737          	lui	a4,0x10007
    529c:	1004f7b7          	lui	a5,0x1004f
    52a0:	03070713          	addi	a4,a4,48 # 10007030 <page_buddy>
    52a4:	4601                	li	a2,0
    52a6:	27078793          	addi	a5,a5,624 # 1004f270 <linker_stack_start+0x1f280>
    52aa:	10030837          	lui	a6,0x10030
    52ae:	03f00893          	li	a7,63
    52b2:	02870313          	addi	t1,a4,40
    52b6:	10050537          	lui	a0,0x10050
    52ba:	00a61693          	slli	a3,a2,0xa
    52be:	96c2                	add	a3,a3,a6
    52c0:	c394                	sw	a3,0(a5)
    52c2:	01478693          	addi	a3,a5,20
    52c6:	0007a223          	sw	zero,4(a5)
    52ca:	0007a623          	sw	zero,12(a5)
    52ce:	cbd4                	sw	a3,20(a5)
    52d0:	cf94                	sw	a3,24(a5)
    52d2:	02c8c663          	blt	a7,a2,52fe <_Z13init_page_mapv+0x6c>
    52d6:	00c035b3          	snez	a1,a2
    52da:	40b005b3          	neg	a1,a1
    52de:	0055e593          	ori	a1,a1,5
    52e2:	c78c                	sw	a1,8(a5)
    52e4:	574c                	lw	a1,44(a4)
    52e6:	d754                	sw	a3,44(a4)
    52e8:	0067aa23          	sw	t1,20(a5)
    52ec:	cf8c                	sw	a1,24(a5)
    52ee:	c194                	sw	a3,0(a1)
    52f0:	07f1                	addi	a5,a5,28
    52f2:	0605                	addi	a2,a2,1
    52f4:	fca793e3          	bne	a5,a0,52ba <_Z13init_page_mapv+0x28>
    52f8:	40b2                	lw	ra,12(sp)
    52fa:	0141                	addi	sp,sp,16
    52fc:	8082                	ret
    52fe:	434c                	lw	a1,4(a4)
    5300:	0007a423          	sw	zero,8(a5)
    5304:	c354                	sw	a3,4(a4)
    5306:	cbd8                	sw	a4,20(a5)
    5308:	b7d5                	j	52ec <_Z13init_page_mapv+0x5a>

0000530a <_Z19get_pages_from_listi>:
    530a:	100077b7          	lui	a5,0x10007
    530e:	00351713          	slli	a4,a0,0x3
    5312:	03078613          	addi	a2,a5,48 # 10007030 <page_buddy>
    5316:	85aa                	mv	a1,a0
    5318:	963a                	add	a2,a2,a4
    531a:	86aa                	mv	a3,a0
    531c:	03078713          	addi	a4,a5,48
    5320:	4515                	li	a0,5
    5322:	00d55463          	bge	a0,a3,532a <_Z19get_pages_from_listi+0x20>
    5326:	4501                	li	a0,0
    5328:	8082                	ret
    532a:	421c                	lw	a5,0(a2)
    532c:	00f61563          	bne	a2,a5,5336 <_Z19get_pages_from_listi+0x2c>
    5330:	0685                	addi	a3,a3,1
    5332:	0621                	addi	a2,a2,8
    5334:	b7fd                	j	5322 <_Z19get_pages_from_listi+0x18>
    5336:	4871                	li	a6,28
    5338:	fec78513          	addi	a0,a5,-20
    533c:	00d817b3          	sll	a5,a6,a3
    5340:	97aa                	add	a5,a5,a0
    5342:	ff87a883          	lw	a7,-8(a5)
    5346:	00369793          	slli	a5,a3,0x3
    534a:	97ba                	add	a5,a5,a4
    534c:	00c8a223          	sw	a2,4(a7) # 10001004 <__rodata_start__+0xfff79c4>
    5350:	0117a023          	sw	a7,0(a5)
    5354:	16fd                	addi	a3,a3,-1
    5356:	17e1                	addi	a5,a5,-8
    5358:	00b6d863          	bge	a3,a1,5368 <_Z19get_pages_from_listi+0x5e>
    535c:	415c                	lw	a5,4(a0)
    535e:	c50c                	sw	a1,8(a0)
    5360:	0047e793          	ori	a5,a5,4
    5364:	c15c                	sw	a5,4(a0)
    5366:	8082                	ret
    5368:	0047a883          	lw	a7,4(a5)
    536c:	00d81633          	sll	a2,a6,a3
    5370:	fe460713          	addi	a4,a2,-28
    5374:	c514                	sw	a3,8(a0)
    5376:	01152c23          	sw	a7,24(a0) # 10050018 <linker_stack_start+0x20028>
    537a:	972a                	add	a4,a4,a0
    537c:	01450313          	addi	t1,a0,20
    5380:	0068a023          	sw	t1,0(a7)
    5384:	01470893          	addi	a7,a4,20
    5388:	0117a223          	sw	a7,4(a5)
    538c:	cb5c                	sw	a5,20(a4)
    538e:	16fd                	addi	a3,a3,-1
    5390:	9532                	add	a0,a0,a2
    5392:	b7d1                	j	5356 <_Z19get_pages_from_listi+0x4c>

00005394 <_Z17put_pages_to_listP4pagei>:
    5394:	415c                	lw	a5,4(a0)
    5396:	0047f693          	andi	a3,a5,4
    539a:	e699                	bnez	a3,53a8 <_Z17put_pages_to_listP4pagei+0x14>
    539c:	10001537          	lui	a0,0x10001
    53a0:	2c850513          	addi	a0,a0,712 # 100012c8 <__rodata_start__+0xfff7c88>
    53a4:	68a0106f          	j	6a2e <_Z7printf_PKcz>
    53a8:	9bed                	andi	a5,a5,-5
    53aa:	1004f6b7          	lui	a3,0x1004f
    53ae:	c15c                	sw	a5,4(a0)
    53b0:	4315                	li	t1,5
    53b2:	4e71                	li	t3,28
    53b4:	5ef9                	li	t4,-2
    53b6:	27068693          	addi	a3,a3,624 # 1004f270 <linker_stack_start+0x1f280>
    53ba:	01450813          	addi	a6,a0,20
    53be:	02b35063          	bge	t1,a1,53de <_Z17put_pages_to_listP4pagei+0x4a>
    53c2:	100077b7          	lui	a5,0x10007
    53c6:	058e                	slli	a1,a1,0x3
    53c8:	03078793          	addi	a5,a5,48 # 10007030 <page_buddy>
    53cc:	97ae                	add	a5,a5,a1
    53ce:	cd1c                	sw	a5,24(a0)
    53d0:	4394                	lw	a3,0(a5)
    53d2:	1761                	addi	a4,a4,-8
    53d4:	c314                	sw	a3,0(a4)
    53d6:	c2d8                	sw	a4,4(a3)
    53d8:	0107a023          	sw	a6,0(a5)
    53dc:	8082                	ret
    53de:	00be17b3          	sll	a5,t3,a1
    53e2:	00f50733          	add	a4,a0,a5
    53e6:	03d787b3          	mul	a5,a5,t4
    53ea:	97ba                	add	a5,a5,a4
    53ec:	43d0                	lw	a2,4(a5)
    53ee:	8a11                	andi	a2,a2,4
    53f0:	fa69                	bnez	a2,53c2 <_Z17put_pages_to_listP4pagei+0x2e>
    53f2:	4790                	lw	a2,8(a5)
    53f4:	fcc597e3          	bne	a1,a2,53c2 <_Z17put_pages_to_listP4pagei+0x2e>
    53f8:	fcd785e3          	beq	a5,a3,53c2 <_Z17put_pages_to_listP4pagei+0x2e>
    53fc:	567d                	li	a2,-1
    53fe:	c510                	sw	a2,8(a0)
    5400:	01852883          	lw	a7,24(a0)
    5404:	ff872603          	lw	a2,-8(a4)
    5408:	0585                	addi	a1,a1,1
    540a:	00c8a023          	sw	a2,0(a7)
    540e:	01162223          	sw	a7,4(a2)
    5412:	ff850613          	addi	a2,a0,-8
    5416:	cd10                	sw	a2,24(a0)
    5418:	4790                	lw	a2,8(a5)
    541a:	ff052c23          	sw	a6,-8(a0)
    541e:	853e                	mv	a0,a5
    5420:	0605                	addi	a2,a2,1
    5422:	c790                	sw	a2,8(a5)
    5424:	bf59                	j	53ba <_Z17put_pages_to_listP4pagei+0x26>

00005426 <_Z12page_addressP4page>:
    5426:	4108                	lw	a0,0(a0)
    5428:	8082                	ret

0000542a <_Z11alloc_pagesji>:
    542a:	1141                	addi	sp,sp,-16
    542c:	852e                	mv	a0,a1
    542e:	c422                	sw	s0,8(sp)
    5430:	c606                	sw	ra,12(sp)
    5432:	842e                	mv	s0,a1
    5434:	3dd9                	jal	530a <_Z19get_pages_from_listi>
    5436:	c909                	beqz	a0,5448 <_Z11alloc_pagesji+0x1e>
    5438:	4685                	li	a3,1
    543a:	008696b3          	sll	a3,a3,s0
    543e:	00450793          	addi	a5,a0,4
    5442:	4701                	li	a4,0
    5444:	00d74663          	blt	a4,a3,5450 <_Z11alloc_pagesji+0x26>
    5448:	40b2                	lw	ra,12(sp)
    544a:	4422                	lw	s0,8(sp)
    544c:	0141                	addi	sp,sp,16
    544e:	8082                	ret
    5450:	4390                	lw	a2,0(a5)
    5452:	0705                	addi	a4,a4,1
    5454:	00166613          	ori	a2,a2,1
    5458:	c390                	sw	a2,0(a5)
    545a:	07f1                	addi	a5,a5,28
    545c:	b7e5                	j	5444 <_Z11alloc_pagesji+0x1a>

0000545e <_Z10free_pagesP4pagei>:
    545e:	4685                	li	a3,1
    5460:	00b696b3          	sll	a3,a3,a1
    5464:	00450793          	addi	a5,a0,4
    5468:	4701                	li	a4,0
    546a:	00d74363          	blt	a4,a3,5470 <_Z10free_pagesP4pagei+0x12>
    546e:	b71d                	j	5394 <_Z17put_pages_to_listP4pagei>
    5470:	4390                	lw	a2,0(a5)
    5472:	0705                	addi	a4,a4,1
    5474:	9a79                	andi	a2,a2,-2
    5476:	c390                	sw	a2,0(a5)
    5478:	07f1                	addi	a5,a5,28
    547a:	bfc5                	j	546a <_Z10free_pagesP4pagei+0xc>

0000547c <_Z14get_free_pagesji>:
    547c:	1141                	addi	sp,sp,-16
    547e:	c606                	sw	ra,12(sp)
    5480:	376d                	jal	542a <_Z11alloc_pagesji>
    5482:	c509                	beqz	a0,548c <_Z14get_free_pagesji+0x10>
    5484:	4108                	lw	a0,0(a0)
    5486:	40b2                	lw	ra,12(sp)
    5488:	0141                	addi	sp,sp,16
    548a:	8082                	ret
    548c:	4501                	li	a0,0
    548e:	bfe5                	j	5486 <_Z14get_free_pagesji+0xa>

00005490 <_Z14put_free_pagesPvi>:
    5490:	1101                	addi	sp,sp,-32
    5492:	ce06                	sw	ra,28(sp)
    5494:	c62e                	sw	a1,12(sp)
    5496:	3b7d                	jal	5254 <_Z12virt_to_pagej>
    5498:	45b2                	lw	a1,12(sp)
    549a:	40f2                	lw	ra,28(sp)
    549c:	6105                	addi	sp,sp,32
    549e:	b7c1                	j	545e <_Z10free_pagesP4pagei>

000054a0 <_Z15get_buddy_orderj>:
    54a0:	40000713          	li	a4,1024
    54a4:	08a77863          	bgeu	a4,a0,5534 <_Z15get_buddy_orderj+0x94>
    54a8:	6685                	lui	a3,0x1
    54aa:	87aa                	mv	a5,a0
    54ac:	80068713          	addi	a4,a3,-2048 # 800 <_Z21minimum_pwconv_singlePaS_S_+0xc6>
    54b0:	4505                	li	a0,1
    54b2:	08f77363          	bgeu	a4,a5,5538 <_Z15get_buddy_orderj+0x98>
    54b6:	4509                	li	a0,2
    54b8:	08f6f063          	bgeu	a3,a5,5538 <_Z15get_buddy_orderj+0x98>
    54bc:	6709                	lui	a4,0x2
    54be:	450d                	li	a0,3
    54c0:	06f77c63          	bgeu	a4,a5,5538 <_Z15get_buddy_orderj+0x98>
    54c4:	6711                	lui	a4,0x4
    54c6:	4511                	li	a0,4
    54c8:	06f77863          	bgeu	a4,a5,5538 <_Z15get_buddy_orderj+0x98>
    54cc:	6721                	lui	a4,0x8
    54ce:	4515                	li	a0,5
    54d0:	06f77463          	bgeu	a4,a5,5538 <_Z15get_buddy_orderj+0x98>
    54d4:	6741                	lui	a4,0x10
    54d6:	4519                	li	a0,6
    54d8:	06f77063          	bgeu	a4,a5,5538 <_Z15get_buddy_orderj+0x98>
    54dc:	00020737          	lui	a4,0x20
    54e0:	451d                	li	a0,7
    54e2:	04f77b63          	bgeu	a4,a5,5538 <_Z15get_buddy_orderj+0x98>
    54e6:	00040737          	lui	a4,0x40
    54ea:	4521                	li	a0,8
    54ec:	04f77663          	bgeu	a4,a5,5538 <_Z15get_buddy_orderj+0x98>
    54f0:	10001637          	lui	a2,0x10001
    54f4:	100015b7          	lui	a1,0x10001
    54f8:	10000537          	lui	a0,0x10000
    54fc:	1141                	addi	sp,sp,-16
    54fe:	0cf00693          	li	a3,207
    5502:	2e460613          	addi	a2,a2,740 # 100012e4 <__rodata_start__+0xfff7ca4>
    5506:	2f458593          	addi	a1,a1,756 # 100012f4 <__rodata_start__+0xfff7cb4>
    550a:	01450513          	addi	a0,a0,20 # 10000014 <__rodata_start__+0xfff69d4>
    550e:	c606                	sw	ra,12(sp)
    5510:	51e010ef          	jal	6a2e <_Z7printf_PKcz>
    5514:	10001537          	lui	a0,0x10001
    5518:	32c50513          	addi	a0,a0,812 # 1000132c <__rodata_start__+0xfff7cec>
    551c:	512010ef          	jal	6a2e <_Z7printf_PKcz>
    5520:	10000537          	lui	a0,0x10000
    5524:	03050513          	addi	a0,a0,48 # 10000030 <__rodata_start__+0xfff69f0>
    5528:	506010ef          	jal	6a2e <_Z7printf_PKcz>
    552c:	40b2                	lw	ra,12(sp)
    552e:	557d                	li	a0,-1
    5530:	0141                	addi	sp,sp,16
    5532:	8082                	ret
    5534:	4501                	li	a0,0
    5536:	8082                	ret
    5538:	8082                	ret

0000553a <_Z6mallocj.part.0>:
    553a:	1101                	addi	sp,sp,-32
    553c:	ce06                	sw	ra,28(sp)
    553e:	cc22                	sw	s0,24(sp)
    5540:	ca26                	sw	s1,20(sp)
    5542:	c84a                	sw	s2,16(sp)
    5544:	c64e                	sw	s3,12(sp)
    5546:	c452                	sw	s4,8(sp)
    5548:	c256                	sw	s5,4(sp)
    554a:	f57ff0ef          	jal	54a0 <_Z15get_buddy_orderj>
    554e:	85aa                	mv	a1,a0
    5550:	84aa                	mv	s1,a0
    5552:	4501                	li	a0,0
    5554:	f29ff0ef          	jal	547c <_Z14get_free_pagesji>
    5558:	100077b7          	lui	a5,0x10007
    555c:	06078693          	addi	a3,a5,96 # 10007060 <buddy_use>
    5560:	842a                	mv	s0,a0
    5562:	4701                	li	a4,0
    5564:	06078793          	addi	a5,a5,96
    5568:	4629                	li	a2,10
    556a:	428c                	lw	a1,0(a3)
    556c:	e9dd                	bnez	a1,5622 <_Z6mallocj.part.0+0xe8>
    556e:	10001ab7          	lui	s5,0x10001
    5572:	10001a37          	lui	s4,0x10001
    5576:	100009b7          	lui	s3,0x10000
    557a:	070a                	slli	a4,a4,0x2
    557c:	97ba                	add	a5,a5,a4
    557e:	03300693          	li	a3,51
    5582:	4705                	li	a4,1
    5584:	350a8613          	addi	a2,s5,848 # 10001350 <__rodata_start__+0xfff7d10>
    5588:	358a0593          	addi	a1,s4,856 # 10001358 <__rodata_start__+0xfff7d18>
    558c:	01498513          	addi	a0,s3,20 # 10000014 <__rodata_start__+0xfff69d4>
    5590:	c398                	sw	a4,0(a5)
    5592:	d780                	sw	s0,40(a5)
    5594:	cba4                	sw	s1,80(a5)
    5596:	498010ef          	jal	6a2e <_Z7printf_PKcz>
    559a:	10001537          	lui	a0,0x10001
    559e:	85a6                	mv	a1,s1
    55a0:	39050513          	addi	a0,a0,912 # 10001390 <__rodata_start__+0xfff7d50>
    55a4:	48a010ef          	jal	6a2e <_Z7printf_PKcz>
    55a8:	10000937          	lui	s2,0x10000
    55ac:	03090513          	addi	a0,s2,48 # 10000030 <__rodata_start__+0xfff69f0>
    55b0:	47e010ef          	jal	6a2e <_Z7printf_PKcz>
    55b4:	03400693          	li	a3,52
    55b8:	350a8613          	addi	a2,s5,848
    55bc:	358a0593          	addi	a1,s4,856
    55c0:	01498513          	addi	a0,s3,20
    55c4:	46a010ef          	jal	6a2e <_Z7printf_PKcz>
    55c8:	40000593          	li	a1,1024
    55cc:	10001537          	lui	a0,0x10001
    55d0:	009595b3          	sll	a1,a1,s1
    55d4:	3a050513          	addi	a0,a0,928 # 100013a0 <__rodata_start__+0xfff7d60>
    55d8:	456010ef          	jal	6a2e <_Z7printf_PKcz>
    55dc:	03090513          	addi	a0,s2,48
    55e0:	44e010ef          	jal	6a2e <_Z7printf_PKcz>
    55e4:	03500693          	li	a3,53
    55e8:	350a8613          	addi	a2,s5,848
    55ec:	358a0593          	addi	a1,s4,856
    55f0:	01498513          	addi	a0,s3,20
    55f4:	43a010ef          	jal	6a2e <_Z7printf_PKcz>
    55f8:	10001537          	lui	a0,0x10001
    55fc:	85a2                	mv	a1,s0
    55fe:	3b050513          	addi	a0,a0,944 # 100013b0 <__rodata_start__+0xfff7d70>
    5602:	42c010ef          	jal	6a2e <_Z7printf_PKcz>
    5606:	03090513          	addi	a0,s2,48
    560a:	424010ef          	jal	6a2e <_Z7printf_PKcz>
    560e:	40f2                	lw	ra,28(sp)
    5610:	8522                	mv	a0,s0
    5612:	4462                	lw	s0,24(sp)
    5614:	44d2                	lw	s1,20(sp)
    5616:	4942                	lw	s2,16(sp)
    5618:	49b2                	lw	s3,12(sp)
    561a:	4a22                	lw	s4,8(sp)
    561c:	4a92                	lw	s5,4(sp)
    561e:	6105                	addi	sp,sp,32
    5620:	8082                	ret
    5622:	0705                	addi	a4,a4,1 # 40001 <__rodata_start__+0x369c1>
    5624:	0691                	addi	a3,a3,4
    5626:	f4c712e3          	bne	a4,a2,556a <_Z6mallocj.part.0+0x30>
    562a:	10001637          	lui	a2,0x10001
    562e:	100015b7          	lui	a1,0x10001
    5632:	10000537          	lui	a0,0x10000
    5636:	03b00693          	li	a3,59
    563a:	35060613          	addi	a2,a2,848 # 10001350 <__rodata_start__+0xfff7d10>
    563e:	35858593          	addi	a1,a1,856 # 10001358 <__rodata_start__+0xfff7d18>
    5642:	01450513          	addi	a0,a0,20 # 10000014 <__rodata_start__+0xfff69d4>
    5646:	3e8010ef          	jal	6a2e <_Z7printf_PKcz>
    564a:	10001537          	lui	a0,0x10001
    564e:	3c050513          	addi	a0,a0,960 # 100013c0 <__rodata_start__+0xfff7d80>
    5652:	3dc010ef          	jal	6a2e <_Z7printf_PKcz>
    5656:	10000537          	lui	a0,0x10000
    565a:	03050513          	addi	a0,a0,48 # 10000030 <__rodata_start__+0xfff69f0>
    565e:	3d0010ef          	jal	6a2e <_Z7printf_PKcz>
    5662:	4401                	li	s0,0
    5664:	b76d                	j	560e <_Z6mallocj.part.0+0xd4>

00005666 <_Z11malloc_initv>:
    5666:	65c0106f          	j	6cc2 <_Z12kmalloc_initv>

0000566a <_Z6mallocj>:
    566a:	10000793          	li	a5,256
    566e:	00a7e463          	bltu	a5,a0,5676 <_Z6mallocj+0xc>
    5672:	6e80106f          	j	6d5a <_Z7kmallocj>
    5676:	1141                	addi	sp,sp,-16
    5678:	c422                	sw	s0,8(sp)
    567a:	c226                	sw	s1,4(sp)
    567c:	c606                	sw	ra,12(sp)
    567e:	64c1                	lui	s1,0x10
    5680:	842a                	mv	s0,a0
    5682:	00a4e763          	bltu	s1,a0,5690 <_Z6mallocj+0x26>
    5686:	4422                	lw	s0,8(sp)
    5688:	40b2                	lw	ra,12(sp)
    568a:	4492                	lw	s1,4(sp)
    568c:	0141                	addi	sp,sp,16
    568e:	b575                	j	553a <_Z6mallocj.part.0>
    5690:	10001637          	lui	a2,0x10001
    5694:	100015b7          	lui	a1,0x10001
    5698:	10000537          	lui	a0,0x10000
    569c:	04000693          	li	a3,64
    56a0:	35060613          	addi	a2,a2,848 # 10001350 <__rodata_start__+0xfff7d10>
    56a4:	35858593          	addi	a1,a1,856 # 10001358 <__rodata_start__+0xfff7d18>
    56a8:	01450513          	addi	a0,a0,20 # 10000014 <__rodata_start__+0xfff69d4>
    56ac:	382010ef          	jal	6a2e <_Z7printf_PKcz>
    56b0:	10001537          	lui	a0,0x10001
    56b4:	8626                	mv	a2,s1
    56b6:	85a2                	mv	a1,s0
    56b8:	42850513          	addi	a0,a0,1064 # 10001428 <__rodata_start__+0xfff7de8>
    56bc:	372010ef          	jal	6a2e <_Z7printf_PKcz>
    56c0:	10000537          	lui	a0,0x10000
    56c4:	03050513          	addi	a0,a0,48 # 10000030 <__rodata_start__+0xfff69f0>
    56c8:	366010ef          	jal	6a2e <_Z7printf_PKcz>

000056cc <_Z4freePv>:
    56cc:	1141                	addi	sp,sp,-16
    56ce:	c422                	sw	s0,8(sp)
    56d0:	10001637          	lui	a2,0x10001
    56d4:	842a                	mv	s0,a0
    56d6:	100015b7          	lui	a1,0x10001
    56da:	10000537          	lui	a0,0x10000
    56de:	04b00693          	li	a3,75
    56e2:	48860613          	addi	a2,a2,1160 # 10001488 <__rodata_start__+0xfff7e48>
    56e6:	35858593          	addi	a1,a1,856 # 10001358 <__rodata_start__+0xfff7d18>
    56ea:	01450513          	addi	a0,a0,20 # 10000014 <__rodata_start__+0xfff69d4>
    56ee:	c606                	sw	ra,12(sp)
    56f0:	33e010ef          	jal	6a2e <_Z7printf_PKcz>
    56f4:	10001537          	lui	a0,0x10001
    56f8:	85a2                	mv	a1,s0
    56fa:	49050513          	addi	a0,a0,1168 # 10001490 <__rodata_start__+0xfff7e50>
    56fe:	330010ef          	jal	6a2e <_Z7printf_PKcz>
    5702:	10000537          	lui	a0,0x10000
    5706:	03050513          	addi	a0,a0,48 # 10000030 <__rodata_start__+0xfff69f0>
    570a:	324010ef          	jal	6a2e <_Z7printf_PKcz>
    570e:	100077b7          	lui	a5,0x10007
    5712:	06078693          	addi	a3,a5,96 # 10007060 <buddy_use>
    5716:	02868613          	addi	a2,a3,40
    571a:	4725                	li	a4,9
    571c:	06078793          	addi	a5,a5,96
    5720:	55fd                	li	a1,-1
    5722:	52c8                	lw	a0,36(a3)
    5724:	cd19                	beqz	a0,5742 <_Z4freePv+0x76>
    5726:	5248                	lw	a0,36(a2)
    5728:	00a41d63          	bne	s0,a0,5742 <_Z4freePv+0x76>
    572c:	070a                	slli	a4,a4,0x2
    572e:	97ba                	add	a5,a5,a4
    5730:	8522                	mv	a0,s0
    5732:	4422                	lw	s0,8(sp)
    5734:	40b2                	lw	ra,12(sp)
    5736:	4bac                	lw	a1,80(a5)
    5738:	0007a023          	sw	zero,0(a5)
    573c:	0141                	addi	sp,sp,16
    573e:	d53ff06f          	j	5490 <_Z14put_free_pagesPvi>
    5742:	177d                	addi	a4,a4,-1
    5744:	16f1                	addi	a3,a3,-4
    5746:	1671                	addi	a2,a2,-4
    5748:	fcb71de3          	bne	a4,a1,5722 <_Z4freePv+0x56>
    574c:	8522                	mv	a0,s0
    574e:	4422                	lw	s0,8(sp)
    5750:	40b2                	lw	ra,12(sp)
    5752:	0141                	addi	sp,sp,16
    5754:	6dc0106f          	j	6e30 <_Z5kfreePv>

00005758 <_Z14malloc_initialv>:
    5758:	1141                	addi	sp,sp,-16
    575a:	c606                	sw	ra,12(sp)
    575c:	b37ff0ef          	jal	5292 <_Z13init_page_mapv>
    5760:	562010ef          	jal	6cc2 <_Z12kmalloc_initv>
    5764:	57fd                	li	a5,-1
    5766:	00f51a63          	bne	a0,a5,577a <_Z14malloc_initialv+0x22>
    576a:	40b2                	lw	ra,12(sp)
    576c:	10001537          	lui	a0,0x10001
    5770:	4a050513          	addi	a0,a0,1184 # 100014a0 <__rodata_start__+0xfff7e60>
    5774:	0141                	addi	sp,sp,16
    5776:	2b80106f          	j	6a2e <_Z7printf_PKcz>
    577a:	40b2                	lw	ra,12(sp)
    577c:	0141                	addi	sp,sp,16
    577e:	8082                	ret

00005780 <_Z11test_mallocv>:
    5780:	1101                	addi	sp,sp,-32
    5782:	ce06                	sw	ra,28(sp)
    5784:	cc22                	sw	s0,24(sp)
    5786:	ca26                	sw	s1,20(sp)
    5788:	c84a                	sw	s2,16(sp)
    578a:	c64e                	sw	s3,12(sp)
    578c:	c452                	sw	s4,8(sp)
    578e:	c256                	sw	s5,4(sp)
    5790:	b03ff0ef          	jal	5292 <_Z13init_page_mapv>
    5794:	52e010ef          	jal	6cc2 <_Z12kmalloc_initv>
    5798:	57fd                	li	a5,-1
    579a:	00f51863          	bne	a0,a5,57aa <_Z11test_mallocv+0x2a>
    579e:	10001537          	lui	a0,0x10001
    57a2:	4a050513          	addi	a0,a0,1184 # 100014a0 <__rodata_start__+0xfff7e60>
    57a6:	288010ef          	jal	6a2e <_Z7printf_PKcz>
    57aa:	07f00513          	li	a0,127
    57ae:	5ac010ef          	jal	6d5a <_Z7kmallocj>
    57b2:	10001937          	lui	s2,0x10001
    57b6:	85aa                	mv	a1,a0
    57b8:	84aa                	mv	s1,a0
    57ba:	4b890513          	addi	a0,s2,1208 # 100014b8 <__rodata_start__+0xfff7e78>
    57be:	270010ef          	jal	6a2e <_Z7printf_PKcz>
    57c2:	07c00513          	li	a0,124
    57c6:	594010ef          	jal	6d5a <_Z7kmallocj>
    57ca:	10001ab7          	lui	s5,0x10001
    57ce:	85aa                	mv	a1,a0
    57d0:	842a                	mv	s0,a0
    57d2:	4dca8513          	addi	a0,s5,1244 # 100014dc <__rodata_start__+0xfff7e9c>
    57d6:	258010ef          	jal	6a2e <_Z7printf_PKcz>
    57da:	8526                	mv	a0,s1
    57dc:	3dc5                	jal	56cc <_Z4freePv>
    57de:	8522                	mv	a0,s0
    57e0:	35f5                	jal	56cc <_Z4freePv>
    57e2:	07700513          	li	a0,119
    57e6:	574010ef          	jal	6d5a <_Z7kmallocj>
    57ea:	10001a37          	lui	s4,0x10001
    57ee:	85aa                	mv	a1,a0
    57f0:	84aa                	mv	s1,a0
    57f2:	500a0513          	addi	a0,s4,1280 # 10001500 <__rodata_start__+0xfff7ec0>
    57f6:	238010ef          	jal	6a2e <_Z7printf_PKcz>
    57fa:	20000513          	li	a0,512
    57fe:	3b35                	jal	553a <_Z6mallocj.part.0>
    5800:	100019b7          	lui	s3,0x10001
    5804:	85aa                	mv	a1,a0
    5806:	842a                	mv	s0,a0
    5808:	52498513          	addi	a0,s3,1316 # 10001524 <__rodata_start__+0xfff7ee4>
    580c:	222010ef          	jal	6a2e <_Z7printf_PKcz>
    5810:	8526                	mv	a0,s1
    5812:	3d6d                	jal	56cc <_Z4freePv>
    5814:	8522                	mv	a0,s0
    5816:	3d5d                	jal	56cc <_Z4freePv>
    5818:	6505                	lui	a0,0x1
    581a:	3305                	jal	553a <_Z6mallocj.part.0>
    581c:	85aa                	mv	a1,a0
    581e:	842a                	mv	s0,a0
    5820:	4b890513          	addi	a0,s2,1208
    5824:	20a010ef          	jal	6a2e <_Z7printf_PKcz>
    5828:	8522                	mv	a0,s0
    582a:	354d                	jal	56cc <_Z4freePv>
    582c:	00040537          	lui	a0,0x40
    5830:	3d2d                	jal	566a <_Z6mallocj>
    5832:	85aa                	mv	a1,a0
    5834:	892a                	mv	s2,a0
    5836:	4dca8513          	addi	a0,s5,1244
    583a:	1f4010ef          	jal	6a2e <_Z7printf_PKcz>
    583e:	00080537          	lui	a0,0x80
    5842:	3525                	jal	566a <_Z6mallocj>
    5844:	85aa                	mv	a1,a0
    5846:	84aa                	mv	s1,a0
    5848:	500a0513          	addi	a0,s4,1280
    584c:	1e2010ef          	jal	6a2e <_Z7printf_PKcz>
    5850:	00020537          	lui	a0,0x20
    5854:	3d19                	jal	566a <_Z6mallocj>
    5856:	85aa                	mv	a1,a0
    5858:	842a                	mv	s0,a0
    585a:	52498513          	addi	a0,s3,1316
    585e:	1d0010ef          	jal	6a2e <_Z7printf_PKcz>
    5862:	854a                	mv	a0,s2
    5864:	35a5                	jal	56cc <_Z4freePv>
    5866:	8526                	mv	a0,s1
    5868:	3595                	jal	56cc <_Z4freePv>
    586a:	8522                	mv	a0,s0
    586c:	4462                	lw	s0,24(sp)
    586e:	40f2                	lw	ra,28(sp)
    5870:	44d2                	lw	s1,20(sp)
    5872:	4942                	lw	s2,16(sp)
    5874:	49b2                	lw	s3,12(sp)
    5876:	4a22                	lw	s4,8(sp)
    5878:	4a92                	lw	s5,4(sp)
    587a:	6105                	addi	sp,sp,32
    587c:	bd81                	j	56cc <_Z4freePv>

0000587e <_ZL11_out_buffercPvjj>:
    587e:	00d67563          	bgeu	a2,a3,5888 <_ZL11_out_buffercPvjj+0xa>
    5882:	95b2                	add	a1,a1,a2
    5884:	00a58023          	sb	a0,0(a1)
    5888:	8082                	ret

0000588a <_ZL9_out_nullcPvjj>:
    588a:	8082                	ret

0000588c <_ZL8_out_revPFvcPvjjEPcjjPKcjjj>:
    588c:	7179                	addi	sp,sp,-48
    588e:	d226                	sw	s1,36(sp)
    5890:	d04a                	sw	s2,32(sp)
    5892:	ce4e                	sw	s3,28(sp)
    5894:	cc52                	sw	s4,24(sp)
    5896:	ca56                	sw	s5,20(sp)
    5898:	c85a                	sw	s6,16(sp)
    589a:	c65e                	sw	s7,12(sp)
    589c:	c462                	sw	s8,8(sp)
    589e:	84be                	mv	s1,a5
    58a0:	d606                	sw	ra,44(sp)
    58a2:	d422                	sw	s0,40(sp)
    58a4:	c266                	sw	s9,4(sp)
    58a6:	0038f793          	andi	a5,a7,3
    58aa:	8a2a                	mv	s4,a0
    58ac:	8aae                	mv	s5,a1
    58ae:	8932                	mv	s2,a2
    58b0:	8b36                	mv	s6,a3
    58b2:	8bba                	mv	s7,a4
    58b4:	89c2                	mv	s3,a6
    58b6:	8c46                	mv	s8,a7
    58b8:	cbb9                	beqz	a5,590e <_ZL8_out_revPFvcPvjjEPcjjPKcjjj+0x82>
    58ba:	8432                	mv	s0,a2
    58bc:	9426                	add	s0,s0,s1
    58be:	8522                	mv	a0,s0
    58c0:	40940633          	sub	a2,s0,s1
    58c4:	e8a9                	bnez	s1,5916 <_ZL8_out_revPFvcPvjjEPcjjPKcjjj+0x8a>
    58c6:	002c7c13          	andi	s8,s8,2
    58ca:	41240433          	sub	s0,s0,s2
    58ce:	060c1463          	bnez	s8,5936 <_ZL8_out_revPFvcPvjjEPcjjPKcjjj+0xaa>
    58d2:	50b2                	lw	ra,44(sp)
    58d4:	5422                	lw	s0,40(sp)
    58d6:	5492                	lw	s1,36(sp)
    58d8:	5902                	lw	s2,32(sp)
    58da:	49f2                	lw	s3,28(sp)
    58dc:	4a62                	lw	s4,24(sp)
    58de:	4ad2                	lw	s5,20(sp)
    58e0:	4b42                	lw	s6,16(sp)
    58e2:	4bb2                	lw	s7,12(sp)
    58e4:	4c22                	lw	s8,8(sp)
    58e6:	4c92                	lw	s9,4(sp)
    58e8:	6145                	addi	sp,sp,48
    58ea:	8082                	ret
    58ec:	86da                	mv	a3,s6
    58ee:	85d6                	mv	a1,s5
    58f0:	02000513          	li	a0,32
    58f4:	9a02                	jalr	s4
    58f6:	0405                	addi	s0,s0,1
    58f8:	01940633          	add	a2,s0,s9
    58fc:	ff3468e3          	bltu	s0,s3,58ec <_ZL8_out_revPFvcPvjjEPcjjPKcjjj+0x60>
    5900:	4401                	li	s0,0
    5902:	0099e463          	bltu	s3,s1,590a <_ZL8_out_revPFvcPvjjEPcjjPKcjjj+0x7e>
    5906:	40998433          	sub	s0,s3,s1
    590a:	944a                	add	s0,s0,s2
    590c:	bf45                	j	58bc <_ZL8_out_revPFvcPvjjEPcjjPKcjjj+0x30>
    590e:	8426                	mv	s0,s1
    5910:	40960cb3          	sub	s9,a2,s1
    5914:	b7d5                	j	58f8 <_ZL8_out_revPFvcPvjjEPcjjPKcjjj+0x6c>
    5916:	14fd                	addi	s1,s1,-1 # ffff <__rodata_start__+0x69bf>
    5918:	009b87b3          	add	a5,s7,s1
    591c:	0007c503          	lbu	a0,0(a5)
    5920:	86da                	mv	a3,s6
    5922:	85d6                	mv	a1,s5
    5924:	9a02                	jalr	s4
    5926:	bf61                	j	58be <_ZL8_out_revPFvcPvjjEPcjjPKcjjj+0x32>
    5928:	862a                	mv	a2,a0
    592a:	86da                	mv	a3,s6
    592c:	85d6                	mv	a1,s5
    592e:	02000513          	li	a0,32
    5932:	9a02                	jalr	s4
    5934:	0405                	addi	s0,s0,1
    5936:	00890533          	add	a0,s2,s0
    593a:	ff3467e3          	bltu	s0,s3,5928 <_ZL8_out_revPFvcPvjjEPcjjPKcjjj+0x9c>
    593e:	bf51                	j	58d2 <_ZL8_out_revPFvcPvjjEPcjjPKcjjj+0x46>

00005940 <_ZL12_ntoa_formatPFvcPvjjEPcjjS2_jbjjjj>:
    5940:	8346                	mv	t1,a7
    5942:	48a2                	lw	a7,8(sp)
    5944:	8e42                	mv	t3,a6
    5946:	4e82                	lw	t4,0(sp)
    5948:	0028ff13          	andi	t5,a7,2
    594c:	4812                	lw	a6,4(sp)
    594e:	040f1763          	bnez	t5,599c <_ZL12_ntoa_formatPFvcPvjjEPcjjS2_jbjjjj+0x5c>
    5952:	0018ff13          	andi	t5,a7,1
    5956:	00080b63          	beqz	a6,596c <_ZL12_ntoa_formatPFvcPvjjEPcjjS2_jbjjjj+0x2c>
    595a:	000f0963          	beqz	t5,596c <_ZL12_ntoa_formatPFvcPvjjEPcjjS2_jbjjjj+0x2c>
    595e:	000e1663          	bnez	t3,596a <_ZL12_ntoa_formatPFvcPvjjEPcjjS2_jbjjjj+0x2a>
    5962:	00c8ff93          	andi	t6,a7,12
    5966:	000f8363          	beqz	t6,596c <_ZL12_ntoa_formatPFvcPvjjEPcjjS2_jbjjjj+0x2c>
    596a:	187d                	addi	a6,a6,-1 # 1002ffff <linker_stack_start+0xf>
    596c:	02000f93          	li	t6,32
    5970:	03000293          	li	t0,48
    5974:	a031                	j	5980 <_ZL12_ntoa_formatPFvcPvjjEPcjjS2_jbjjjj+0x40>
    5976:	00f703b3          	add	t2,a4,a5
    597a:	00538023          	sb	t0,0(t2)
    597e:	0785                	addi	a5,a5,1
    5980:	01d7f463          	bgeu	a5,t4,5988 <_ZL12_ntoa_formatPFvcPvjjEPcjjS2_jbjjjj+0x48>
    5984:	fff799e3          	bne	a5,t6,5976 <_ZL12_ntoa_formatPFvcPvjjEPcjjS2_jbjjjj+0x36>
    5988:	000f0a63          	beqz	t5,599c <_ZL12_ntoa_formatPFvcPvjjEPcjjS2_jbjjjj+0x5c>
    598c:	02000f13          	li	t5,32
    5990:	03000f93          	li	t6,48
    5994:	0107f463          	bgeu	a5,a6,599c <_ZL12_ntoa_formatPFvcPvjjEPcjjS2_jbjjjj+0x5c>
    5998:	03e79c63          	bne	a5,t5,59d0 <_ZL12_ntoa_formatPFvcPvjjEPcjjS2_jbjjjj+0x90>
    599c:	0108ff13          	andi	t5,a7,16
    59a0:	060f0c63          	beqz	t5,5a18 <_ZL12_ntoa_formatPFvcPvjjEPcjjS2_jbjjjj+0xd8>
    59a4:	4008ff13          	andi	t5,a7,1024
    59a8:	020f1b63          	bnez	t5,59de <_ZL12_ntoa_formatPFvcPvjjEPcjjS2_jbjjjj+0x9e>
    59ac:	cb8d                	beqz	a5,59de <_ZL12_ntoa_formatPFvcPvjjEPcjjS2_jbjjjj+0x9e>
    59ae:	01d78463          	beq	a5,t4,59b6 <_ZL12_ntoa_formatPFvcPvjjEPcjjS2_jbjjjj+0x76>
    59b2:	03079663          	bne	a5,a6,59de <_ZL12_ntoa_formatPFvcPvjjEPcjjS2_jbjjjj+0x9e>
    59b6:	fff78e93          	addi	t4,a5,-1
    59ba:	020e8163          	beqz	t4,59dc <_ZL12_ntoa_formatPFvcPvjjEPcjjS2_jbjjjj+0x9c>
    59be:	4f41                	li	t5,16
    59c0:	17f9                	addi	a5,a5,-2
    59c2:	03e30163          	beq	t1,t5,59e4 <_ZL12_ntoa_formatPFvcPvjjEPcjjS2_jbjjjj+0xa4>
    59c6:	4789                	li	a5,2
    59c8:	08f30c63          	beq	t1,a5,5a60 <_ZL12_ntoa_formatPFvcPvjjEPcjjS2_jbjjjj+0x120>
    59cc:	87f6                	mv	a5,t4
    59ce:	a835                	j	5a0a <_ZL12_ntoa_formatPFvcPvjjEPcjjS2_jbjjjj+0xca>
    59d0:	00f702b3          	add	t0,a4,a5
    59d4:	01f28023          	sb	t6,0(t0)
    59d8:	0785                	addi	a5,a5,1
    59da:	bf6d                	j	5994 <_ZL12_ntoa_formatPFvcPvjjEPcjjS2_jbjjjj+0x54>
    59dc:	4781                	li	a5,0
    59de:	4ec1                	li	t4,16
    59e0:	07d31463          	bne	t1,t4,5a48 <_ZL12_ntoa_formatPFvcPvjjEPcjjS2_jbjjjj+0x108>
    59e4:	0208f313          	andi	t1,a7,32
    59e8:	02000e93          	li	t4,32
    59ec:	04031463          	bnez	t1,5a34 <_ZL12_ntoa_formatPFvcPvjjEPcjjS2_jbjjjj+0xf4>
    59f0:	05d78463          	beq	a5,t4,5a38 <_ZL12_ntoa_formatPFvcPvjjEPcjjS2_jbjjjj+0xf8>
    59f4:	00f70333          	add	t1,a4,a5
    59f8:	07800e93          	li	t4,120
    59fc:	01d30023          	sb	t4,0(t1) # 10001000 <__rodata_start__+0xfff79c0>
    5a00:	0785                	addi	a5,a5,1
    5a02:	02000313          	li	t1,32
    5a06:	02678963          	beq	a5,t1,5a38 <_ZL12_ntoa_formatPFvcPvjjEPcjjS2_jbjjjj+0xf8>
    5a0a:	00f70333          	add	t1,a4,a5
    5a0e:	03000e93          	li	t4,48
    5a12:	01d30023          	sb	t4,0(t1)
    5a16:	0785                	addi	a5,a5,1
    5a18:	02000313          	li	t1,32
    5a1c:	00678e63          	beq	a5,t1,5a38 <_ZL12_ntoa_formatPFvcPvjjEPcjjS2_jbjjjj+0xf8>
    5a20:	040e0263          	beqz	t3,5a64 <_ZL12_ntoa_formatPFvcPvjjEPcjjS2_jbjjjj+0x124>
    5a24:	00f70333          	add	t1,a4,a5
    5a28:	02d00e13          	li	t3,45
    5a2c:	01c30023          	sb	t3,0(t1)
    5a30:	0785                	addi	a5,a5,1
    5a32:	a029                	j	5a3c <_ZL12_ntoa_formatPFvcPvjjEPcjjS2_jbjjjj+0xfc>
    5a34:	01d79563          	bne	a5,t4,5a3e <_ZL12_ntoa_formatPFvcPvjjEPcjjS2_jbjjjj+0xfe>
    5a38:	02000793          	li	a5,32
    5a3c:	bd81                	j	588c <_ZL8_out_revPFvcPvjjEPcjjPKcjjj>
    5a3e:	00f70333          	add	t1,a4,a5
    5a42:	05800e93          	li	t4,88
    5a46:	bf5d                	j	59fc <_ZL12_ntoa_formatPFvcPvjjEPcjjS2_jbjjjj+0xbc>
    5a48:	4e89                	li	t4,2
    5a4a:	fbd31ce3          	bne	t1,t4,5a02 <_ZL12_ntoa_formatPFvcPvjjEPcjjS2_jbjjjj+0xc2>
    5a4e:	02000313          	li	t1,32
    5a52:	fe6783e3          	beq	a5,t1,5a38 <_ZL12_ntoa_formatPFvcPvjjEPcjjS2_jbjjjj+0xf8>
    5a56:	00f70333          	add	t1,a4,a5
    5a5a:	06200e93          	li	t4,98
    5a5e:	bf79                	j	59fc <_ZL12_ntoa_formatPFvcPvjjEPcjjS2_jbjjjj+0xbc>
    5a60:	87f6                	mv	a5,t4
    5a62:	bfd5                	j	5a56 <_ZL12_ntoa_formatPFvcPvjjEPcjjS2_jbjjjj+0x116>
    5a64:	0048fe13          	andi	t3,a7,4
    5a68:	000e0763          	beqz	t3,5a76 <_ZL12_ntoa_formatPFvcPvjjEPcjjS2_jbjjjj+0x136>
    5a6c:	00f70333          	add	t1,a4,a5
    5a70:	02b00e13          	li	t3,43
    5a74:	bf65                	j	5a2c <_ZL12_ntoa_formatPFvcPvjjEPcjjS2_jbjjjj+0xec>
    5a76:	0088fe13          	andi	t3,a7,8
    5a7a:	fc0e01e3          	beqz	t3,5a3c <_ZL12_ntoa_formatPFvcPvjjEPcjjS2_jbjjjj+0xfc>
    5a7e:	00f70e33          	add	t3,a4,a5
    5a82:	006e0023          	sb	t1,0(t3) # 10000000 <__rodata_start__+0xfff69c0>
    5a86:	b76d                	j	5a30 <_ZL12_ntoa_formatPFvcPvjjEPcjjS2_jbjjjj+0xf0>

00005a88 <_ZL10_ntoa_longPFvcPvjjEPcjjmbmjjj>:
    5a88:	7139                	addi	sp,sp,-64
    5a8a:	de06                	sw	ra,60(sp)
    5a8c:	dc22                	sw	s0,56(sp)
    5a8e:	4e96                	lw	t4,68(sp)
    5a90:	e319                	bnez	a4,5a96 <_ZL10_ntoa_longPFvcPvjjEPcjjmbmjjj+0xe>
    5a92:	fefefe93          	andi	t4,t4,-17
    5a96:	400ef313          	andi	t1,t4,1024
    5a9a:	00030363          	beqz	t1,5aa0 <_ZL10_ntoa_longPFvcPvjjEPcjjmbmjjj+0x18>
    5a9e:	cb21                	beqz	a4,5aee <_ZL10_ntoa_longPFvcPvjjEPcjjmbmjjj+0x66>
    5aa0:	005ede13          	srli	t3,t4,0x5
    5aa4:	001e7e13          	andi	t3,t3,1
    5aa8:	06100313          	li	t1,97
    5aac:	000e0463          	beqz	t3,5ab4 <_ZL10_ntoa_longPFvcPvjjEPcjjmbmjjj+0x2c>
    5ab0:	04100313          	li	t1,65
    5ab4:	8f3a                	mv	t5,a4
    5ab6:	01010f93          	addi	t6,sp,16
    5aba:	4701                	li	a4,0
    5abc:	4425                	li	s0,9
    5abe:	ff630e13          	addi	t3,t1,-10
    5ac2:	02000393          	li	t2,32
    5ac6:	030f72b3          	remu	t0,t5,a6
    5aca:	0ff2f313          	zext.b	t1,t0
    5ace:	02546f63          	bltu	s0,t0,5b0c <_ZL10_ntoa_longPFvcPvjjEPcjjmbmjjj+0x84>
    5ad2:	03030313          	addi	t1,t1,48
    5ad6:	0ff37313          	zext.b	t1,t1
    5ada:	006f8023          	sb	t1,0(t6)
    5ade:	0705                	addi	a4,a4,1
    5ae0:	030f5333          	divu	t1,t5,a6
    5ae4:	010f6563          	bltu	t5,a6,5aee <_ZL10_ntoa_longPFvcPvjjEPcjjmbmjjj+0x66>
    5ae8:	0f85                	addi	t6,t6,1
    5aea:	00771f63          	bne	a4,t2,5b08 <_ZL10_ntoa_longPFvcPvjjEPcjjmbmjjj+0x80>
    5aee:	4306                	lw	t1,64(sp)
    5af0:	c046                	sw	a7,0(sp)
    5af2:	c476                	sw	t4,8(sp)
    5af4:	c21a                	sw	t1,4(sp)
    5af6:	88c2                	mv	a7,a6
    5af8:	883e                	mv	a6,a5
    5afa:	87ba                	mv	a5,a4
    5afc:	0818                	addi	a4,sp,16
    5afe:	3589                	jal	5940 <_ZL12_ntoa_formatPFvcPvjjEPcjjS2_jbjjjj>
    5b00:	50f2                	lw	ra,60(sp)
    5b02:	5462                	lw	s0,56(sp)
    5b04:	6121                	addi	sp,sp,64
    5b06:	8082                	ret
    5b08:	8f1a                	mv	t5,t1
    5b0a:	bf75                	j	5ac6 <_ZL10_ntoa_longPFvcPvjjEPcjjmbmjjj+0x3e>
    5b0c:	9372                	add	t1,t1,t3
    5b0e:	b7e1                	j	5ad6 <_ZL10_ntoa_longPFvcPvjjEPcjjmbmjjj+0x4e>

00005b10 <_ZL15_ntoa_long_longPFvcPvjjEPcjjybyjjj>:
    5b10:	7175                	addi	sp,sp,-144
    5b12:	d8ca                	sw	s2,112(sp)
    5b14:	d4d2                	sw	s4,104(sp)
    5b16:	d2d6                	sw	s5,100(sp)
    5b18:	cce2                	sw	s8,88(sp)
    5b1a:	cae6                	sw	s9,84(sp)
    5b1c:	c8ea                	sw	s10,80(sp)
    5b1e:	c6ee                	sw	s11,76(sp)
    5b20:	8a36                	mv	s4,a3
    5b22:	de86                	sw	ra,124(sp)
    5b24:	dca2                	sw	s0,120(sp)
    5b26:	daa6                	sw	s1,116(sp)
    5b28:	d6ce                	sw	s3,108(sp)
    5b2a:	d0da                	sw	s6,96(sp)
    5b2c:	cede                	sw	s7,92(sp)
    5b2e:	ca2a                	sw	a0,20(sp)
    5b30:	cc2e                	sw	a1,24(sp)
    5b32:	ce32                	sw	a2,28(sp)
    5b34:	00f766b3          	or	a3,a4,a5
    5b38:	4c4a                	lw	s8,144(sp)
    5b3a:	497a                	lw	s2,156(sp)
    5b3c:	8dba                	mv	s11,a4
    5b3e:	8d3e                	mv	s10,a5
    5b40:	8ac2                	mv	s5,a6
    5b42:	8cc6                	mv	s9,a7
    5b44:	e299                	bnez	a3,5b4a <_ZL15_ntoa_long_longPFvcPvjjEPcjjybyjjj+0x3a>
    5b46:	fef97913          	andi	s2,s2,-17
    5b4a:	40097793          	andi	a5,s2,1024
    5b4e:	c399                	beqz	a5,5b54 <_ZL15_ntoa_long_longPFvcPvjjEPcjjybyjjj+0x44>
    5b50:	4481                	li	s1,0
    5b52:	c2a5                	beqz	a3,5bb2 <_ZL15_ntoa_long_longPFvcPvjjEPcjjybyjjj+0xa2>
    5b54:	00595793          	srli	a5,s2,0x5
    5b58:	8b85                	andi	a5,a5,1
    5b5a:	06100413          	li	s0,97
    5b5e:	c399                	beqz	a5,5b64 <_ZL15_ntoa_long_longPFvcPvjjEPcjjybyjjj+0x54>
    5b60:	04100413          	li	s0,65
    5b64:	02010993          	addi	s3,sp,32
    5b68:	4481                	li	s1,0
    5b6a:	4ba5                	li	s7,9
    5b6c:	1459                	addi	s0,s0,-10
    5b6e:	02000b13          	li	s6,32
    5b72:	8666                	mv	a2,s9
    5b74:	86e2                	mv	a3,s8
    5b76:	856e                	mv	a0,s11
    5b78:	85ea                	mv	a1,s10
    5b7a:	68c010ef          	jal	7206 <__umoddi3>
    5b7e:	0ff57313          	zext.b	t1,a0
    5b82:	066be863          	bltu	s7,t1,5bf2 <_ZL15_ntoa_long_longPFvcPvjjEPcjjybyjjj+0xe2>
    5b86:	03030313          	addi	t1,t1,48
    5b8a:	0ff37313          	zext.b	t1,t1
    5b8e:	00698023          	sb	t1,0(s3)
    5b92:	8666                	mv	a2,s9
    5b94:	86e2                	mv	a3,s8
    5b96:	856e                	mv	a0,s11
    5b98:	85ea                	mv	a1,s10
    5b9a:	0485                	addi	s1,s1,1
    5b9c:	2c4010ef          	jal	6e60 <__udivdi3>
    5ba0:	018d6963          	bltu	s10,s8,5bb2 <_ZL15_ntoa_long_longPFvcPvjjEPcjjybyjjj+0xa2>
    5ba4:	01ac1463          	bne	s8,s10,5bac <_ZL15_ntoa_long_longPFvcPvjjEPcjjybyjjj+0x9c>
    5ba8:	019de563          	bltu	s11,s9,5bb2 <_ZL15_ntoa_long_longPFvcPvjjEPcjjybyjjj+0xa2>
    5bac:	0985                	addi	s3,s3,1
    5bae:	03649f63          	bne	s1,s6,5bec <_ZL15_ntoa_long_longPFvcPvjjEPcjjybyjjj+0xdc>
    5bb2:	476a                	lw	a4,152(sp)
    5bb4:	4672                	lw	a2,28(sp)
    5bb6:	45e2                	lw	a1,24(sp)
    5bb8:	c23a                	sw	a4,4(sp)
    5bba:	475a                	lw	a4,148(sp)
    5bbc:	4552                	lw	a0,20(sp)
    5bbe:	c44a                	sw	s2,8(sp)
    5bc0:	c03a                	sw	a4,0(sp)
    5bc2:	88e6                	mv	a7,s9
    5bc4:	8856                	mv	a6,s5
    5bc6:	87a6                	mv	a5,s1
    5bc8:	1018                	addi	a4,sp,32
    5bca:	86d2                	mv	a3,s4
    5bcc:	3b95                	jal	5940 <_ZL12_ntoa_formatPFvcPvjjEPcjjS2_jbjjjj>
    5bce:	50f6                	lw	ra,124(sp)
    5bd0:	5466                	lw	s0,120(sp)
    5bd2:	54d6                	lw	s1,116(sp)
    5bd4:	5946                	lw	s2,112(sp)
    5bd6:	59b6                	lw	s3,108(sp)
    5bd8:	5a26                	lw	s4,104(sp)
    5bda:	5a96                	lw	s5,100(sp)
    5bdc:	5b06                	lw	s6,96(sp)
    5bde:	4bf6                	lw	s7,92(sp)
    5be0:	4c66                	lw	s8,88(sp)
    5be2:	4cd6                	lw	s9,84(sp)
    5be4:	4d46                	lw	s10,80(sp)
    5be6:	4db6                	lw	s11,76(sp)
    5be8:	6149                	addi	sp,sp,144
    5bea:	8082                	ret
    5bec:	8daa                	mv	s11,a0
    5bee:	8d2e                	mv	s10,a1
    5bf0:	b749                	j	5b72 <_ZL15_ntoa_long_longPFvcPvjjEPcjjybyjjj+0x62>
    5bf2:	9322                	add	t1,t1,s0
    5bf4:	bf59                	j	5b8a <_ZL15_ntoa_long_longPFvcPvjjEPcjjybyjjj+0x7a>

00005bf6 <_ZL9_out_charcPvjj>:
    5bf6:	c119                	beqz	a0,5bfc <_ZL9_out_charcPvjj+0x6>
    5bf8:	24c0106f          	j	6e44 <_Z9uart_putci>
    5bfc:	8082                	ret

00005bfe <_ZL8_out_fctcPvjj>:
    5bfe:	c501                	beqz	a0,5c06 <_ZL8_out_fctcPvjj+0x8>
    5c00:	419c                	lw	a5,0(a1)
    5c02:	41cc                	lw	a1,4(a1)
    5c04:	8782                	jr	a5
    5c06:	8082                	ret

00005c08 <_ZL5_ftoaPFvcPvjjEPcjjdjjj>:
    5c08:	7131                	addi	sp,sp,-192
    5c0a:	c42a                	sw	a0,8(sp)
    5c0c:	c62e                	sw	a1,12(sp)
    5c0e:	c832                	sw	a2,16(sp)
    5c10:	ca36                	sw	a3,20(sp)
    5c12:	863a                	mv	a2,a4
    5c14:	86be                	mv	a3,a5
    5c16:	853a                	mv	a0,a4
    5c18:	85be                	mv	a1,a5
    5c1a:	d552                	sw	s4,168(sp)
    5c1c:	d356                	sw	s5,164(sp)
    5c1e:	d15a                	sw	s6,160(sp)
    5c20:	cf5e                	sw	s7,156(sp)
    5c22:	cd62                	sw	s8,152(sp)
    5c24:	df06                	sw	ra,188(sp)
    5c26:	dd22                	sw	s0,184(sp)
    5c28:	db26                	sw	s1,180(sp)
    5c2a:	d94a                	sw	s2,176(sp)
    5c2c:	d74e                	sw	s3,172(sp)
    5c2e:	cb66                	sw	s9,148(sp)
    5c30:	c96a                	sw	s10,144(sp)
    5c32:	c76e                	sw	s11,140(sp)
    5c34:	4c0e                	lw	s8,192(sp)
    5c36:	8aba                	mv	s5,a4
    5c38:	8a3e                	mv	s4,a5
    5c3a:	8b42                	mv	s6,a6
    5c3c:	8bc6                	mv	s7,a7
    5c3e:	00d020ef          	jal	844a <__eqdf2>
    5c42:	c91d                	beqz	a0,5c78 <_ZL5_ftoaPFvcPvjjEPcjjdjjj+0x70>
    5c44:	10001737          	lui	a4,0x10001
    5c48:	88e2                	mv	a7,s8
    5c4a:	885e                	mv	a6,s7
    5c4c:	478d                	li	a5,3
    5c4e:	55470713          	addi	a4,a4,1364 # 10001554 <__rodata_start__+0xfff7f14>
    5c52:	546a                	lw	s0,184(sp)
    5c54:	46d2                	lw	a3,20(sp)
    5c56:	4642                	lw	a2,16(sp)
    5c58:	45b2                	lw	a1,12(sp)
    5c5a:	4522                	lw	a0,8(sp)
    5c5c:	50fa                	lw	ra,188(sp)
    5c5e:	54da                	lw	s1,180(sp)
    5c60:	594a                	lw	s2,176(sp)
    5c62:	59ba                	lw	s3,172(sp)
    5c64:	5a2a                	lw	s4,168(sp)
    5c66:	5a9a                	lw	s5,164(sp)
    5c68:	5b0a                	lw	s6,160(sp)
    5c6a:	4bfa                	lw	s7,156(sp)
    5c6c:	4c6a                	lw	s8,152(sp)
    5c6e:	4cda                	lw	s9,148(sp)
    5c70:	4d4a                	lw	s10,144(sp)
    5c72:	4dba                	lw	s11,140(sp)
    5c74:	6129                	addi	sp,sp,192
    5c76:	b919                	j	588c <_ZL8_out_revPFvcPvjjEPcjjPKcjjj>
    5c78:	100047b7          	lui	a5,0x10004
    5c7c:	7f87a603          	lw	a2,2040(a5) # 100047f8 <_ZZ23minimum_conv_single_8x8PaS_S_S_aE4Bias+0x8>
    5c80:	7fc7a683          	lw	a3,2044(a5)
    5c84:	8556                	mv	a0,s5
    5c86:	85d2                	mv	a1,s4
    5c88:	0ed020ef          	jal	8574 <__ledf2>
    5c8c:	00055a63          	bgez	a0,5ca0 <_ZL5_ftoaPFvcPvjjEPcjjdjjj+0x98>
    5c90:	10001737          	lui	a4,0x10001
    5c94:	88e2                	mv	a7,s8
    5c96:	885e                	mv	a6,s7
    5c98:	4791                	li	a5,4
    5c9a:	55870713          	addi	a4,a4,1368 # 10001558 <__rodata_start__+0xfff7f18>
    5c9e:	bf55                	j	5c52 <_ZL5_ftoaPFvcPvjjEPcjjdjjj+0x4a>
    5ca0:	100057b7          	lui	a5,0x10005
    5ca4:	8007a603          	lw	a2,-2048(a5) # 10004800 <_ZZ23minimum_conv_single_8x8PaS_S_S_aE4Bias+0x10>
    5ca8:	8047a683          	lw	a3,-2044(a5)
    5cac:	8556                	mv	a0,s5
    5cae:	85d2                	mv	a1,s4
    5cb0:	007020ef          	jal	84b6 <__gedf2>
    5cb4:	02a05363          	blez	a0,5cda <_ZL5_ftoaPFvcPvjjEPcjjdjjj+0xd2>
    5cb8:	004c7793          	andi	a5,s8,4
    5cbc:	cb89                	beqz	a5,5cce <_ZL5_ftoaPFvcPvjjEPcjjdjjj+0xc6>
    5cbe:	10001737          	lui	a4,0x10001
    5cc2:	54870713          	addi	a4,a4,1352 # 10001548 <__rodata_start__+0xfff7f08>
    5cc6:	4791                	li	a5,4
    5cc8:	88e2                	mv	a7,s8
    5cca:	885e                	mv	a6,s7
    5ccc:	b759                	j	5c52 <_ZL5_ftoaPFvcPvjjEPcjjdjjj+0x4a>
    5cce:	10001737          	lui	a4,0x10001
    5cd2:	55070713          	addi	a4,a4,1360 # 10001550 <__rodata_start__+0xfff7f10>
    5cd6:	478d                	li	a5,3
    5cd8:	bfc5                	j	5cc8 <_ZL5_ftoaPFvcPvjjEPcjjdjjj+0xc0>
    5cda:	100057b7          	lui	a5,0x10005
    5cde:	8087a603          	lw	a2,-2040(a5) # 10004808 <_ZZ23minimum_conv_single_8x8PaS_S_S_aE4Bias+0x18>
    5ce2:	80c7a683          	lw	a3,-2036(a5)
    5ce6:	8556                	mv	a0,s5
    5ce8:	85d2                	mv	a1,s4
    5cea:	7cc020ef          	jal	84b6 <__gedf2>
    5cee:	02a04063          	bgtz	a0,5d0e <_ZL5_ftoaPFvcPvjjEPcjjdjjj+0x106>
    5cf2:	100057b7          	lui	a5,0x10005
    5cf6:	cc56                	sw	s5,24(sp)
    5cf8:	ce52                	sw	s4,28(sp)
    5cfa:	8107a603          	lw	a2,-2032(a5) # 10004810 <_ZZ23minimum_conv_single_8x8PaS_S_S_aE4Bias+0x20>
    5cfe:	8147a683          	lw	a3,-2028(a5)
    5d02:	4562                	lw	a0,24(sp)
    5d04:	45f2                	lw	a1,28(sp)
    5d06:	06f020ef          	jal	8574 <__ledf2>
    5d0a:	02055c63          	bgez	a0,5d42 <_ZL5_ftoaPFvcPvjjEPcjjdjjj+0x13a>
    5d0e:	d056                	sw	s5,32(sp)
    5d10:	d252                	sw	s4,36(sp)
    5d12:	546a                	lw	s0,184(sp)
    5d14:	c1e2                	sw	s8,192(sp)
    5d16:	5702                	lw	a4,32(sp)
    5d18:	5792                	lw	a5,36(sp)
    5d1a:	46d2                	lw	a3,20(sp)
    5d1c:	4642                	lw	a2,16(sp)
    5d1e:	45b2                	lw	a1,12(sp)
    5d20:	4522                	lw	a0,8(sp)
    5d22:	50fa                	lw	ra,188(sp)
    5d24:	54da                	lw	s1,180(sp)
    5d26:	594a                	lw	s2,176(sp)
    5d28:	59ba                	lw	s3,172(sp)
    5d2a:	5a2a                	lw	s4,168(sp)
    5d2c:	5a9a                	lw	s5,164(sp)
    5d2e:	4c6a                	lw	s8,152(sp)
    5d30:	4cda                	lw	s9,148(sp)
    5d32:	4d4a                	lw	s10,144(sp)
    5d34:	4dba                	lw	s11,140(sp)
    5d36:	88de                	mv	a7,s7
    5d38:	885a                	mv	a6,s6
    5d3a:	4bfa                	lw	s7,156(sp)
    5d3c:	5b0a                	lw	s6,160(sp)
    5d3e:	6129                	addi	sp,sp,192
    5d40:	a461                	j	5fc8 <_ZL5_etoaPFvcPvjjEPcjjdjjj>
    5d42:	d456                	sw	s5,40(sp)
    5d44:	d652                	sw	s4,44(sp)
    5d46:	5522                	lw	a0,40(sp)
    5d48:	55b2                	lw	a1,44(sp)
    5d4a:	4601                	li	a2,0
    5d4c:	4681                	li	a3,0
    5d4e:	027020ef          	jal	8574 <__ledf2>
    5d52:	4d01                	li	s10,0
    5d54:	00055d63          	bgez	a0,5d6e <_ZL5_ftoaPFvcPvjjEPcjjdjjj+0x166>
    5d58:	d856                	sw	s5,48(sp)
    5d5a:	da52                	sw	s4,52(sp)
    5d5c:	5642                	lw	a2,48(sp)
    5d5e:	56d2                	lw	a3,52(sp)
    5d60:	4501                	li	a0,0
    5d62:	4581                	li	a1,0
    5d64:	627020ef          	jal	8b8a <__subdf3>
    5d68:	8aaa                	mv	s5,a0
    5d6a:	8a2e                	mv	s4,a1
    5d6c:	4d05                	li	s10,1
    5d6e:	400c7793          	andi	a5,s8,1024
    5d72:	0e078863          	beqz	a5,5e62 <_ZL5_ftoaPFvcPvjjEPcjjdjjj+0x25a>
    5d76:	4981                	li	s3,0
    5d78:	46a5                	li	a3,9
    5d7a:	06010913          	addi	s2,sp,96
    5d7e:	03000613          	li	a2,48
    5d82:	02000593          	li	a1,32
    5d86:	0166fa63          	bgeu	a3,s6,5d9a <_ZL5_ftoaPFvcPvjjEPcjjdjjj+0x192>
    5d8a:	01390533          	add	a0,s2,s3
    5d8e:	00c50023          	sb	a2,0(a0) # 20000 <__rodata_start__+0x169c0>
    5d92:	0985                	addi	s3,s3,1
    5d94:	1b7d                	addi	s6,s6,-1
    5d96:	feb998e3          	bne	s3,a1,5d86 <_ZL5_ftoaPFvcPvjjEPcjjdjjj+0x17e>
    5d9a:	dc56                	sw	s5,56(sp)
    5d9c:	de52                	sw	s4,60(sp)
    5d9e:	55f2                	lw	a1,60(sp)
    5da0:	5562                	lw	a0,56(sp)
    5da2:	69e030ef          	jal	9440 <__fixdfsi>
    5da6:	100046b7          	lui	a3,0x10004
    5daa:	003b1613          	slli	a2,s6,0x3
    5dae:	66068693          	addi	a3,a3,1632 # 10004660 <_ZZL5_ftoaPFvcPvjjEPcjjdjjjE5pow10>
    5db2:	96b2                	add	a3,a3,a2
    5db4:	429c                	lw	a5,0(a3)
    5db6:	0046a803          	lw	a6,4(a3)
    5dba:	8caa                	mv	s9,a0
    5dbc:	cc3e                	sw	a5,24(sp)
    5dbe:	ce42                	sw	a6,28(sp)
    5dc0:	73e030ef          	jal	94fe <__floatsidf>
    5dc4:	c0d6                	sw	s5,64(sp)
    5dc6:	c2d2                	sw	s4,68(sp)
    5dc8:	862a                	mv	a2,a0
    5dca:	86ae                	mv	a3,a1
    5dcc:	4506                	lw	a0,64(sp)
    5dce:	4596                	lw	a1,68(sp)
    5dd0:	5bb020ef          	jal	8b8a <__subdf3>
    5dd4:	4662                	lw	a2,24(sp)
    5dd6:	46f2                	lw	a3,28(sp)
    5dd8:	05d020ef          	jal	8634 <__muldf3>
    5ddc:	8dae                	mv	s11,a1
    5dde:	84aa                	mv	s1,a0
    5de0:	6c6030ef          	jal	94a6 <__fixunsdfsi>
    5de4:	842a                	mv	s0,a0
    5de6:	78e030ef          	jal	9574 <__floatunsidf>
    5dea:	c4a6                	sw	s1,72(sp)
    5dec:	c6ee                	sw	s11,76(sp)
    5dee:	862a                	mv	a2,a0
    5df0:	86ae                	mv	a3,a1
    5df2:	4526                	lw	a0,72(sp)
    5df4:	45b6                	lw	a1,76(sp)
    5df6:	10005db7          	lui	s11,0x10005
    5dfa:	591020ef          	jal	8b8a <__subdf3>
    5dfe:	818da603          	lw	a2,-2024(s11) # 10004818 <_ZZ23minimum_conv_single_8x8PaS_S_S_aE4Bias+0x28>
    5e02:	81cda683          	lw	a3,-2020(s11)
    5e06:	d02a                	sw	a0,32(sp)
    5e08:	84ae                	mv	s1,a1
    5e0a:	6ac020ef          	jal	84b6 <__gedf2>
    5e0e:	5e02                	lw	t3,32(sp)
    5e10:	04a05b63          	blez	a0,5e66 <_ZL5_ftoaPFvcPvjjEPcjjdjjj+0x25e>
    5e14:	0405                	addi	s0,s0,1
    5e16:	8522                	mv	a0,s0
    5e18:	75c030ef          	jal	9574 <__floatunsidf>
    5e1c:	862a                	mv	a2,a0
    5e1e:	86ae                	mv	a3,a1
    5e20:	4562                	lw	a0,24(sp)
    5e22:	45f2                	lw	a1,28(sp)
    5e24:	750020ef          	jal	8574 <__ledf2>
    5e28:	00a04463          	bgtz	a0,5e30 <_ZL5_ftoaPFvcPvjjEPcjjdjjj+0x228>
    5e2c:	0c85                	addi	s9,s9,1
    5e2e:	4401                	li	s0,0
    5e30:	040b0f63          	beqz	s6,5e8e <_ZL5_ftoaPFvcPvjjEPcjjdjjj+0x286>
    5e34:	02000593          	li	a1,32
    5e38:	4629                	li	a2,10
    5e3a:	4525                	li	a0,9
    5e3c:	0cb99463          	bne	s3,a1,5f04 <_ZL5_ftoaPFvcPvjjEPcjjdjjj+0x2fc>
    5e40:	9b4e                	add	s6,s6,s3
    5e42:	02000593          	li	a1,32
    5e46:	03000613          	li	a2,48
    5e4a:	06b98963          	beq	s3,a1,5ebc <_ZL5_ftoaPFvcPvjjEPcjjdjjj+0x2b4>
    5e4e:	00198693          	addi	a3,s3,1
    5e52:	0d698963          	beq	s3,s6,5f24 <_ZL5_ftoaPFvcPvjjEPcjjdjjj+0x31c>
    5e56:	013907b3          	add	a5,s2,s3
    5e5a:	00c78023          	sb	a2,0(a5)
    5e5e:	89b6                	mv	s3,a3
    5e60:	b7ed                	j	5e4a <_ZL5_ftoaPFvcPvjjEPcjjdjjj+0x242>
    5e62:	4b19                	li	s6,6
    5e64:	bf09                	j	5d76 <_ZL5_ftoaPFvcPvjjEPcjjdjjj+0x16e>
    5e66:	100057b7          	lui	a5,0x10005
    5e6a:	c8f2                	sw	t3,80(sp)
    5e6c:	caa6                	sw	s1,84(sp)
    5e6e:	8187a603          	lw	a2,-2024(a5) # 10004818 <_ZZ23minimum_conv_single_8x8PaS_S_S_aE4Bias+0x28>
    5e72:	81c7a683          	lw	a3,-2020(a5)
    5e76:	4546                	lw	a0,80(sp)
    5e78:	45d6                	lw	a1,84(sp)
    5e7a:	6fa020ef          	jal	8574 <__ledf2>
    5e7e:	fa0549e3          	bltz	a0,5e30 <_ZL5_ftoaPFvcPvjjEPcjjdjjj+0x228>
    5e82:	c401                	beqz	s0,5e8a <_ZL5_ftoaPFvcPvjjEPcjjdjjj+0x282>
    5e84:	00147693          	andi	a3,s0,1
    5e88:	d6c5                	beqz	a3,5e30 <_ZL5_ftoaPFvcPvjjEPcjjdjjj+0x228>
    5e8a:	0405                	addi	s0,s0,1
    5e8c:	b755                	j	5e30 <_ZL5_ftoaPFvcPvjjEPcjjdjjj+0x228>
    5e8e:	8566                	mv	a0,s9
    5e90:	66e030ef          	jal	94fe <__floatsidf>
    5e94:	ccd6                	sw	s5,88(sp)
    5e96:	ced2                	sw	s4,92(sp)
    5e98:	862a                	mv	a2,a0
    5e9a:	86ae                	mv	a3,a1
    5e9c:	4566                	lw	a0,88(sp)
    5e9e:	45f6                	lw	a1,92(sp)
    5ea0:	4eb020ef          	jal	8b8a <__subdf3>
    5ea4:	818da603          	lw	a2,-2024(s11)
    5ea8:	81cda683          	lw	a3,-2020(s11)
    5eac:	6c8020ef          	jal	8574 <__ledf2>
    5eb0:	00054663          	bltz	a0,5ebc <_ZL5_ftoaPFvcPvjjEPcjjdjjj+0x2b4>
    5eb4:	001c8893          	addi	a7,s9,1
    5eb8:	ffe8fc93          	andi	s9,a7,-2
    5ebc:	02000593          	li	a1,32
    5ec0:	4629                	li	a2,10
    5ec2:	00b98f63          	beq	s3,a1,5ee0 <_ZL5_ftoaPFvcPvjjEPcjjdjjj+0x2d8>
    5ec6:	02cce6b3          	rem	a3,s9,a2
    5eca:	0985                	addi	s3,s3,1
    5ecc:	01390533          	add	a0,s2,s3
    5ed0:	02ccccb3          	div	s9,s9,a2
    5ed4:	03068693          	addi	a3,a3,48
    5ed8:	fed50fa3          	sb	a3,-1(a0)
    5edc:	fe0c93e3          	bnez	s9,5ec2 <_ZL5_ftoaPFvcPvjjEPcjjdjjj+0x2ba>
    5ee0:	003c7693          	andi	a3,s8,3
    5ee4:	4605                	li	a2,1
    5ee6:	08c69a63          	bne	a3,a2,5f7a <_ZL5_ftoaPFvcPvjjEPcjjdjjj+0x372>
    5eea:	080b8863          	beqz	s7,5f7a <_ZL5_ftoaPFvcPvjjEPcjjdjjj+0x372>
    5eee:	000d1563          	bnez	s10,5ef8 <_ZL5_ftoaPFvcPvjjEPcjjdjjj+0x2f0>
    5ef2:	00cc7693          	andi	a3,s8,12
    5ef6:	c291                	beqz	a3,5efa <_ZL5_ftoaPFvcPvjjEPcjjdjjj+0x2f2>
    5ef8:	1bfd                	addi	s7,s7,-1
    5efa:	02000693          	li	a3,32
    5efe:	03000613          	li	a2,48
    5f02:	a081                	j	5f42 <_ZL5_ftoaPFvcPvjjEPcjjdjjj+0x33a>
    5f04:	02c476b3          	remu	a3,s0,a2
    5f08:	0985                	addi	s3,s3,1
    5f0a:	01390333          	add	t1,s2,s3
    5f0e:	1b7d                	addi	s6,s6,-1
    5f10:	03068693          	addi	a3,a3,48
    5f14:	fed30fa3          	sb	a3,-1(t1)
    5f18:	02c456b3          	divu	a3,s0,a2
    5f1c:	f28572e3          	bgeu	a0,s0,5e40 <_ZL5_ftoaPFvcPvjjEPcjjdjjj+0x238>
    5f20:	8436                	mv	s0,a3
    5f22:	bf29                	j	5e3c <_ZL5_ftoaPFvcPvjjEPcjjdjjj+0x234>
    5f24:	02098793          	addi	a5,s3,32
    5f28:	1098                	addi	a4,sp,96
    5f2a:	97ba                	add	a5,a5,a4
    5f2c:	02e00613          	li	a2,46
    5f30:	fec78023          	sb	a2,-32(a5)
    5f34:	89b6                	mv	s3,a3
    5f36:	b759                	j	5ebc <_ZL5_ftoaPFvcPvjjEPcjjdjjj+0x2b4>
    5f38:	013905b3          	add	a1,s2,s3
    5f3c:	00c58023          	sb	a2,0(a1)
    5f40:	0985                	addi	s3,s3,1
    5f42:	0379fc63          	bgeu	s3,s7,5f7a <_ZL5_ftoaPFvcPvjjEPcjjdjjj+0x372>
    5f46:	fed999e3          	bne	s3,a3,5f38 <_ZL5_ftoaPFvcPvjjEPcjjdjjj+0x330>
    5f4a:	46d2                	lw	a3,20(sp)
    5f4c:	4642                	lw	a2,16(sp)
    5f4e:	45b2                	lw	a1,12(sp)
    5f50:	4522                	lw	a0,8(sp)
    5f52:	88e2                	mv	a7,s8
    5f54:	885e                	mv	a6,s7
    5f56:	87ce                	mv	a5,s3
    5f58:	874a                	mv	a4,s2
    5f5a:	3a0d                	jal	588c <_ZL8_out_revPFvcPvjjEPcjjPKcjjj>
    5f5c:	50fa                	lw	ra,188(sp)
    5f5e:	546a                	lw	s0,184(sp)
    5f60:	54da                	lw	s1,180(sp)
    5f62:	594a                	lw	s2,176(sp)
    5f64:	59ba                	lw	s3,172(sp)
    5f66:	5a2a                	lw	s4,168(sp)
    5f68:	5a9a                	lw	s5,164(sp)
    5f6a:	5b0a                	lw	s6,160(sp)
    5f6c:	4bfa                	lw	s7,156(sp)
    5f6e:	4c6a                	lw	s8,152(sp)
    5f70:	4cda                	lw	s9,148(sp)
    5f72:	4d4a                	lw	s10,144(sp)
    5f74:	4dba                	lw	s11,140(sp)
    5f76:	6129                	addi	sp,sp,192
    5f78:	8082                	ret
    5f7a:	02000693          	li	a3,32
    5f7e:	fcd986e3          	beq	s3,a3,5f4a <_ZL5_ftoaPFvcPvjjEPcjjdjjj+0x342>
    5f82:	000d0d63          	beqz	s10,5f9c <_ZL5_ftoaPFvcPvjjEPcjjdjjj+0x394>
    5f86:	00d987b3          	add	a5,s3,a3
    5f8a:	1098                	addi	a4,sp,96
    5f8c:	00e786b3          	add	a3,a5,a4
    5f90:	02d00613          	li	a2,45
    5f94:	fec68023          	sb	a2,-32(a3)
    5f98:	0985                	addi	s3,s3,1
    5f9a:	bf45                	j	5f4a <_ZL5_ftoaPFvcPvjjEPcjjdjjj+0x342>
    5f9c:	004c7613          	andi	a2,s8,4
    5fa0:	ca09                	beqz	a2,5fb2 <_ZL5_ftoaPFvcPvjjEPcjjdjjj+0x3aa>
    5fa2:	02098793          	addi	a5,s3,32
    5fa6:	1098                	addi	a4,sp,96
    5fa8:	00e786b3          	add	a3,a5,a4
    5fac:	02b00613          	li	a2,43
    5fb0:	b7d5                	j	5f94 <_ZL5_ftoaPFvcPvjjEPcjjdjjj+0x38c>
    5fb2:	008c7613          	andi	a2,s8,8
    5fb6:	da51                	beqz	a2,5f4a <_ZL5_ftoaPFvcPvjjEPcjjdjjj+0x342>
    5fb8:	02098793          	addi	a5,s3,32
    5fbc:	1098                	addi	a4,sp,96
    5fbe:	00e78633          	add	a2,a5,a4
    5fc2:	fed60023          	sb	a3,-32(a2)
    5fc6:	bfc9                	j	5f98 <_ZL5_ftoaPFvcPvjjEPcjjdjjj+0x390>

00005fc8 <_ZL5_etoaPFvcPvjjEPcjjdjjj>:
    5fc8:	712d                	addi	sp,sp,-288
    5fca:	dfde                	sw	s7,252(sp)
    5fcc:	dde2                	sw	s8,248(sp)
    5fce:	8baa                	mv	s7,a0
    5fd0:	c82e                	sw	a1,16(sp)
    5fd2:	8c32                	mv	s8,a2
    5fd4:	ca36                	sw	a3,20(sp)
    5fd6:	863a                	mv	a2,a4
    5fd8:	86be                	mv	a3,a5
    5fda:	853a                	mv	a0,a4
    5fdc:	85be                	mv	a1,a5
    5fde:	10912a23          	sw	s1,276(sp)
    5fe2:	11412423          	sw	s4,264(sp)
    5fe6:	11512223          	sw	s5,260(sp)
    5fea:	11612023          	sw	s6,256(sp)
    5fee:	d9ea                	sw	s10,240(sp)
    5ff0:	10112e23          	sw	ra,284(sp)
    5ff4:	10812c23          	sw	s0,280(sp)
    5ff8:	11212823          	sw	s2,272(sp)
    5ffc:	11312623          	sw	s3,268(sp)
    6000:	dbe6                	sw	s9,244(sp)
    6002:	d7ee                	sw	s11,236(sp)
    6004:	12012a03          	lw	s4,288(sp)
    6008:	84ba                	mv	s1,a4
    600a:	8b3e                	mv	s6,a5
    600c:	8ac2                	mv	s5,a6
    600e:	8d46                	mv	s10,a7
    6010:	43a020ef          	jal	844a <__eqdf2>
    6014:	e91d                	bnez	a0,604a <_ZL5_etoaPFvcPvjjEPcjjdjjj+0x82>
    6016:	100057b7          	lui	a5,0x10005
    601a:	8007a603          	lw	a2,-2048(a5) # 10004800 <_ZZ23minimum_conv_single_8x8PaS_S_S_aE4Bias+0x10>
    601e:	8047a683          	lw	a3,-2044(a5)
    6022:	8526                	mv	a0,s1
    6024:	85da                	mv	a1,s6
    6026:	490020ef          	jal	84b6 <__gedf2>
    602a:	02a04063          	bgtz	a0,604a <_ZL5_etoaPFvcPvjjEPcjjdjjj+0x82>
    602e:	100047b7          	lui	a5,0x10004
    6032:	d026                	sw	s1,32(sp)
    6034:	d25a                	sw	s6,36(sp)
    6036:	7f87a603          	lw	a2,2040(a5) # 100047f8 <_ZZ23minimum_conv_single_8x8PaS_S_S_aE4Bias+0x8>
    603a:	7fc7a683          	lw	a3,2044(a5)
    603e:	5502                	lw	a0,32(sp)
    6040:	5592                	lw	a1,36(sp)
    6042:	532020ef          	jal	8574 <__ledf2>
    6046:	04055563          	bgez	a0,6090 <_ZL5_etoaPFvcPvjjEPcjjdjjj+0xc8>
    604a:	d426                	sw	s1,40(sp)
    604c:	d65a                	sw	s6,44(sp)
    604e:	11812403          	lw	s0,280(sp)
    6052:	13412023          	sw	s4,288(sp)
    6056:	5722                	lw	a4,40(sp)
    6058:	57b2                	lw	a5,44(sp)
    605a:	46d2                	lw	a3,20(sp)
    605c:	45c2                	lw	a1,16(sp)
    605e:	11c12083          	lw	ra,284(sp)
    6062:	11412483          	lw	s1,276(sp)
    6066:	11012903          	lw	s2,272(sp)
    606a:	10c12983          	lw	s3,268(sp)
    606e:	10812a03          	lw	s4,264(sp)
    6072:	10012b03          	lw	s6,256(sp)
    6076:	5cde                	lw	s9,244(sp)
    6078:	5dbe                	lw	s11,236(sp)
    607a:	88ea                	mv	a7,s10
    607c:	8856                	mv	a6,s5
    607e:	5d4e                	lw	s10,240(sp)
    6080:	10412a83          	lw	s5,260(sp)
    6084:	8662                	mv	a2,s8
    6086:	855e                	mv	a0,s7
    6088:	5c6e                	lw	s8,248(sp)
    608a:	5bfe                	lw	s7,252(sp)
    608c:	6115                	addi	sp,sp,288
    608e:	bead                	j	5c08 <_ZL5_ftoaPFvcPvjjEPcjjdjjj>
    6090:	d826                	sw	s1,48(sp)
    6092:	da5a                	sw	s6,52(sp)
    6094:	5542                	lw	a0,48(sp)
    6096:	55d2                	lw	a1,52(sp)
    6098:	4601                	li	a2,0
    609a:	4681                	li	a3,0
    609c:	4d8020ef          	jal	8574 <__ledf2>
    60a0:	8ca6                	mv	s9,s1
    60a2:	845a                	mv	s0,s6
    60a4:	00055663          	bgez	a0,60b0 <_ZL5_etoaPFvcPvjjEPcjjdjjj+0xe8>
    60a8:	80000437          	lui	s0,0x80000
    60ac:	008b4433          	xor	s0,s6,s0
    60b0:	400a7793          	andi	a5,s4,1024
    60b4:	d03e                	sw	a5,32(sp)
    60b6:	e391                	bnez	a5,60ba <_ZL5_etoaPFvcPvjjEPcjjdjjj+0xf2>
    60b8:	4a99                	li	s5,6
    60ba:	01445513          	srli	a0,s0,0x14
    60be:	7ff57513          	andi	a0,a0,2047
    60c2:	c0150513          	addi	a0,a0,-1023
    60c6:	438030ef          	jal	94fe <__floatsidf>
    60ca:	100057b7          	lui	a5,0x10005
    60ce:	8207a603          	lw	a2,-2016(a5) # 10004820 <_ZZ23minimum_conv_single_8x8PaS_S_S_aE4Bias+0x30>
    60d2:	8247a683          	lw	a3,-2012(a5)
    60d6:	55e020ef          	jal	8634 <__muldf3>
    60da:	100057b7          	lui	a5,0x10005
    60de:	8287a603          	lw	a2,-2008(a5) # 10004828 <_ZZ23minimum_conv_single_8x8PaS_S_S_aE4Bias+0x38>
    60e2:	82c7a683          	lw	a3,-2004(a5)
    60e6:	4ae010ef          	jal	7594 <__adddf3>
    60ea:	100057b7          	lui	a5,0x10005
    60ee:	00c41713          	slli	a4,s0,0xc
    60f2:	8331                	srli	a4,a4,0xc
    60f4:	8307a603          	lw	a2,-2000(a5) # 10004830 <_ZZ23minimum_conv_single_8x8PaS_S_S_aE4Bias+0x40>
    60f8:	8347a683          	lw	a3,-1996(a5)
    60fc:	3ff007b7          	lui	a5,0x3ff00
    6100:	8fd9                	or	a5,a5,a4
    6102:	de3e                	sw	a5,60(sp)
    6104:	dc26                	sw	s1,56(sp)
    6106:	89aa                	mv	s3,a0
    6108:	892e                	mv	s2,a1
    610a:	5562                	lw	a0,56(sp)
    610c:	55f2                	lw	a1,60(sp)
    610e:	27d020ef          	jal	8b8a <__subdf3>
    6112:	100057b7          	lui	a5,0x10005
    6116:	8387a603          	lw	a2,-1992(a5) # 10004838 <_ZZ23minimum_conv_single_8x8PaS_S_S_aE4Bias+0x48>
    611a:	83c7a683          	lw	a3,-1988(a5)
    611e:	516020ef          	jal	8634 <__muldf3>
    6122:	c0ce                	sw	s3,64(sp)
    6124:	c2ca                	sw	s2,68(sp)
    6126:	862a                	mv	a2,a0
    6128:	86ae                	mv	a3,a1
    612a:	4506                	lw	a0,64(sp)
    612c:	4596                	lw	a1,68(sp)
    612e:	466010ef          	jal	7594 <__adddf3>
    6132:	30e030ef          	jal	9440 <__fixdfsi>
    6136:	892a                	mv	s2,a0
    6138:	3c6030ef          	jal	94fe <__floatsidf>
    613c:	100057b7          	lui	a5,0x10005
    6140:	8407a603          	lw	a2,-1984(a5) # 10004840 <_ZZ23minimum_conv_single_8x8PaS_S_S_aE4Bias+0x50>
    6144:	8447a683          	lw	a3,-1980(a5)
    6148:	8daa                	mv	s11,a0
    614a:	89ae                	mv	s3,a1
    614c:	4e8020ef          	jal	8634 <__muldf3>
    6150:	100057b7          	lui	a5,0x10005
    6154:	8187a603          	lw	a2,-2024(a5) # 10004818 <_ZZ23minimum_conv_single_8x8PaS_S_S_aE4Bias+0x28>
    6158:	81c7a683          	lw	a3,-2020(a5)
    615c:	438010ef          	jal	7594 <__adddf3>
    6160:	2e0030ef          	jal	9440 <__fixdfsi>
    6164:	100057b7          	lui	a5,0x10005
    6168:	c4ee                	sw	s11,72(sp)
    616a:	8487a603          	lw	a2,-1976(a5) # 10004848 <_ZZ23minimum_conv_single_8x8PaS_S_S_aE4Bias+0x58>
    616e:	84c7a683          	lw	a3,-1972(a5)
    6172:	c6ce                	sw	s3,76(sp)
    6174:	d02a                	sw	a0,32(sp)
    6176:	4526                	lw	a0,72(sp)
    6178:	45b6                	lw	a1,76(sp)
    617a:	4ba020ef          	jal	8634 <__muldf3>
    617e:	8daa                	mv	s11,a0
    6180:	5502                	lw	a0,32(sp)
    6182:	89ae                	mv	s3,a1
    6184:	37a030ef          	jal	94fe <__floatsidf>
    6188:	100057b7          	lui	a5,0x10005
    618c:	8507a603          	lw	a2,-1968(a5) # 10004850 <_ZZ23minimum_conv_single_8x8PaS_S_S_aE4Bias+0x60>
    6190:	8547a683          	lw	a3,-1964(a5)
    6194:	4a0020ef          	jal	8634 <__muldf3>
    6198:	c8ee                	sw	s11,80(sp)
    619a:	cace                	sw	s3,84(sp)
    619c:	862a                	mv	a2,a0
    619e:	86ae                	mv	a3,a1
    61a0:	4546                	lw	a0,80(sp)
    61a2:	45d6                	lw	a1,84(sp)
    61a4:	1e7020ef          	jal	8b8a <__subdf3>
    61a8:	ccaa                	sw	a0,88(sp)
    61aa:	ceae                	sw	a1,92(sp)
    61ac:	4666                	lw	a2,88(sp)
    61ae:	46f6                	lw	a3,92(sp)
    61b0:	d82a                	sw	a0,48(sp)
    61b2:	d42e                	sw	a1,40(sp)
    61b4:	480020ef          	jal	8634 <__muldf3>
    61b8:	5742                	lw	a4,48(sp)
    61ba:	57a2                	lw	a5,40(sp)
    61bc:	8daa                	mv	s11,a0
    61be:	d0ba                	sw	a4,96(sp)
    61c0:	d2be                	sw	a5,100(sp)
    61c2:	d4ba                	sw	a4,104(sp)
    61c4:	d6be                	sw	a5,108(sp)
    61c6:	89ae                	mv	s3,a1
    61c8:	5606                	lw	a2,96(sp)
    61ca:	5696                	lw	a3,100(sp)
    61cc:	5526                	lw	a0,104(sp)
    61ce:	55b6                	lw	a1,108(sp)
    61d0:	c0ba                	sw	a4,64(sp)
    61d2:	dc3e                	sw	a5,56(sp)
    61d4:	3c0010ef          	jal	7594 <__adddf3>
    61d8:	100056b7          	lui	a3,0x10005
    61dc:	d8ee                	sw	s11,112(sp)
    61de:	dace                	sw	s3,116(sp)
    61e0:	8586a603          	lw	a2,-1960(a3) # 10004858 <_ZZ23minimum_conv_single_8x8PaS_S_S_aE4Bias+0x68>
    61e4:	d82a                	sw	a0,48(sp)
    61e6:	85c6a683          	lw	a3,-1956(a3)
    61ea:	5546                	lw	a0,112(sp)
    61ec:	d42e                	sw	a1,40(sp)
    61ee:	55d6                	lw	a1,116(sp)
    61f0:	46b010ef          	jal	7e5a <__divdf3>
    61f4:	10005837          	lui	a6,0x10005
    61f8:	86082603          	lw	a2,-1952(a6) # 10004860 <_ZZ23minimum_conv_single_8x8PaS_S_S_aE4Bias+0x70>
    61fc:	86482683          	lw	a3,-1948(a6)
    6200:	394010ef          	jal	7594 <__adddf3>
    6204:	dcee                	sw	s11,120(sp)
    6206:	dece                	sw	s3,124(sp)
    6208:	862a                	mv	a2,a0
    620a:	86ae                	mv	a3,a1
    620c:	5566                	lw	a0,120(sp)
    620e:	55f6                	lw	a1,124(sp)
    6210:	44b010ef          	jal	7e5a <__divdf3>
    6214:	100056b7          	lui	a3,0x10005
    6218:	8686a603          	lw	a2,-1944(a3) # 10004868 <_ZZ23minimum_conv_single_8x8PaS_S_S_aE4Bias+0x78>
    621c:	86c6a683          	lw	a3,-1940(a3)
    6220:	374010ef          	jal	7594 <__adddf3>
    6224:	c16e                	sw	s11,128(sp)
    6226:	c34e                	sw	s3,132(sp)
    6228:	862a                	mv	a2,a0
    622a:	86ae                	mv	a3,a1
    622c:	450a                	lw	a0,128(sp)
    622e:	459a                	lw	a1,132(sp)
    6230:	42b010ef          	jal	7e5a <__divdf3>
    6234:	4706                	lw	a4,64(sp)
    6236:	57e2                	lw	a5,56(sp)
    6238:	8daa                	mv	s11,a0
    623a:	c53a                	sw	a4,136(sp)
    623c:	c73e                	sw	a5,140(sp)
    623e:	100057b7          	lui	a5,0x10005
    6242:	8707a503          	lw	a0,-1936(a5) # 10004870 <_ZZ23minimum_conv_single_8x8PaS_S_S_aE4Bias+0x80>
    6246:	462a                	lw	a2,136(sp)
    6248:	46ba                	lw	a3,140(sp)
    624a:	89ae                	mv	s3,a1
    624c:	8747a583          	lw	a1,-1932(a5)
    6250:	13b020ef          	jal	8b8a <__subdf3>
    6254:	c96e                	sw	s11,144(sp)
    6256:	cb4e                	sw	s3,148(sp)
    6258:	862a                	mv	a2,a0
    625a:	86ae                	mv	a3,a1
    625c:	454a                	lw	a0,144(sp)
    625e:	45da                	lw	a1,148(sp)
    6260:	334010ef          	jal	7594 <__adddf3>
    6264:	5342                	lw	t1,48(sp)
    6266:	58a2                	lw	a7,40(sp)
    6268:	862a                	mv	a2,a0
    626a:	cd1a                	sw	t1,152(sp)
    626c:	cf46                	sw	a7,156(sp)
    626e:	86ae                	mv	a3,a1
    6270:	456a                	lw	a0,152(sp)
    6272:	45fa                	lw	a1,156(sp)
    6274:	3e7010ef          	jal	7e5a <__divdf3>
    6278:	100057b7          	lui	a5,0x10005
    627c:	8787a603          	lw	a2,-1928(a5) # 10004878 <_ZZ23minimum_conv_single_8x8PaS_S_S_aE4Bias+0x88>
    6280:	87c7a683          	lw	a3,-1924(a5)
    6284:	310010ef          	jal	7594 <__adddf3>
    6288:	5782                	lw	a5,32(sp)
    628a:	d102                	sw	zero,160(sp)
    628c:	560a                	lw	a2,160(sp)
    628e:	3ff78793          	addi	a5,a5,1023
    6292:	01479713          	slli	a4,a5,0x14
    6296:	d33a                	sw	a4,164(sp)
    6298:	569a                	lw	a3,164(sp)
    629a:	39a020ef          	jal	8634 <__muldf3>
    629e:	d526                	sw	s1,168(sp)
    62a0:	d722                	sw	s0,172(sp)
    62a2:	562a                	lw	a2,168(sp)
    62a4:	56ba                	lw	a3,172(sp)
    62a6:	8daa                	mv	s11,a0
    62a8:	89ae                	mv	s3,a1
    62aa:	20c020ef          	jal	84b6 <__gedf2>
    62ae:	10005837          	lui	a6,0x10005
    62b2:	16a04263          	bgtz	a0,6416 <_ZL5_etoaPFvcPvjjEPcjjdjjj+0x44e>
    62b6:	cc6e                	sw	s11,24(sp)
    62b8:	ce4e                	sw	s3,28(sp)
    62ba:	0c600793          	li	a5,198
    62be:	06390993          	addi	s3,s2,99
    62c2:	0137b9b3          	sltu	s3,a5,s3
    62c6:	014a1793          	slli	a5,s4,0x14
    62ca:	0991                	addi	s3,s3,4
    62cc:	0407d963          	bgez	a5,631e <_ZL5_etoaPFvcPvjjEPcjjdjjj+0x356>
    62d0:	100057b7          	lui	a5,0x10005
    62d4:	dd26                	sw	s1,184(sp)
    62d6:	df22                	sw	s0,188(sp)
    62d8:	8807a603          	lw	a2,-1920(a5) # 10004880 <_ZZ23minimum_conv_single_8x8PaS_S_S_aE4Bias+0x90>
    62dc:	8847a683          	lw	a3,-1916(a5)
    62e0:	556a                	lw	a0,184(sp)
    62e2:	55fa                	lw	a1,188(sp)
    62e4:	1d2020ef          	jal	84b6 <__gedf2>
    62e8:	14054563          	bltz	a0,6432 <_ZL5_etoaPFvcPvjjEPcjjdjjj+0x46a>
    62ec:	100057b7          	lui	a5,0x10005
    62f0:	c1a6                	sw	s1,192(sp)
    62f2:	c3a2                	sw	s0,196(sp)
    62f4:	8887a603          	lw	a2,-1912(a5) # 10004888 <_ZZ23minimum_conv_single_8x8PaS_S_S_aE4Bias+0x98>
    62f8:	88c7a683          	lw	a3,-1908(a5)
    62fc:	450e                	lw	a0,192(sp)
    62fe:	459e                	lw	a1,196(sp)
    6300:	274020ef          	jal	8574 <__ledf2>
    6304:	12055763          	bgez	a0,6432 <_ZL5_etoaPFvcPvjjEPcjjdjjj+0x46a>
    6308:	4781                	li	a5,0
    630a:	01595563          	bge	s2,s5,6314 <_ZL5_etoaPFvcPvjjEPcjjdjjj+0x34c>
    630e:	412a87b3          	sub	a5,s5,s2
    6312:	17fd                	addi	a5,a5,-1
    6314:	8abe                	mv	s5,a5
    6316:	400a6a13          	ori	s4,s4,1024
    631a:	4981                	li	s3,0
    631c:	4901                	li	s2,0
    631e:	4881                	li	a7,0
    6320:	01a9f463          	bgeu	s3,s10,6328 <_ZL5_etoaPFvcPvjjEPcjjdjjj+0x360>
    6324:	413d08b3          	sub	a7,s10,s3
    6328:	002a7d93          	andi	s11,s4,2
    632c:	000d8863          	beqz	s11,633c <_ZL5_etoaPFvcPvjjEPcjjdjjj+0x374>
    6330:	0019b793          	seqz	a5,s3
    6334:	40f007b3          	neg	a5,a5
    6338:	00f8f8b3          	and	a7,a7,a5
    633c:	00090e63          	beqz	s2,6358 <_ZL5_etoaPFvcPvjjEPcjjdjjj+0x390>
    6340:	c7a2                	sw	s0,204(sp)
    6342:	c5a6                	sw	s1,200(sp)
    6344:	4662                	lw	a2,24(sp)
    6346:	46f2                	lw	a3,28(sp)
    6348:	452e                	lw	a0,200(sp)
    634a:	45be                	lw	a1,204(sp)
    634c:	d046                	sw	a7,32(sp)
    634e:	30d010ef          	jal	7e5a <__divdf3>
    6352:	5882                	lw	a7,32(sp)
    6354:	8caa                	mv	s9,a0
    6356:	842e                	mv	s0,a1
    6358:	c9a6                	sw	s1,208(sp)
    635a:	cbda                	sw	s6,212(sp)
    635c:	454e                	lw	a0,208(sp)
    635e:	45de                	lw	a1,212(sp)
    6360:	4601                	li	a2,0
    6362:	4681                	li	a3,0
    6364:	cc46                	sw	a7,24(sp)
    6366:	20e020ef          	jal	8574 <__ledf2>
    636a:	48e2                	lw	a7,24(sp)
    636c:	00055563          	bgez	a0,6376 <_ZL5_etoaPFvcPvjjEPcjjdjjj+0x3ae>
    6370:	800007b7          	lui	a5,0x80000
    6374:	8c3d                	xor	s0,s0,a5
    6376:	77fd                	lui	a5,0xfffff
    6378:	7ff78793          	addi	a5,a5,2047 # fffff7ff <linker_stack_start+0xeffcf80f>
    637c:	00fa77b3          	and	a5,s4,a5
    6380:	cde6                	sw	s9,216(sp)
    6382:	cfa2                	sw	s0,220(sp)
    6384:	c03e                	sw	a5,0(sp)
    6386:	476e                	lw	a4,216(sp)
    6388:	47fe                	lw	a5,220(sp)
    638a:	46d2                	lw	a3,20(sp)
    638c:	45c2                	lw	a1,16(sp)
    638e:	8662                	mv	a2,s8
    6390:	8856                	mv	a6,s5
    6392:	855e                	mv	a0,s7
    6394:	875ff0ef          	jal	5c08 <_ZL5_ftoaPFvcPvjjEPcjjdjjj>
    6398:	862a                	mv	a2,a0
    639a:	04098663          	beqz	s3,63e6 <_ZL5_etoaPFvcPvjjEPcjjdjjj+0x41e>
    639e:	46d2                	lw	a3,20(sp)
    63a0:	45c2                	lw	a1,16(sp)
    63a2:	fffa4a13          	not	s4,s4
    63a6:	020a7a13          	andi	s4,s4,32
    63aa:	cc2a                	sw	a0,24(sp)
    63ac:	045a0513          	addi	a0,s4,69
    63b0:	9b82                	jalr	s7
    63b2:	41f95713          	srai	a4,s2,0x1f
    63b6:	4662                	lw	a2,24(sp)
    63b8:	012746b3          	xor	a3,a4,s2
    63bc:	40e68733          	sub	a4,a3,a4
    63c0:	45c2                	lw	a1,16(sp)
    63c2:	46d2                	lw	a3,20(sp)
    63c4:	4795                	li	a5,5
    63c6:	19fd                	addi	s3,s3,-1
    63c8:	c23e                	sw	a5,4(sp)
    63ca:	0605                	addi	a2,a2,1
    63cc:	c04e                	sw	s3,0(sp)
    63ce:	4881                	li	a7,0
    63d0:	4829                	li	a6,10
    63d2:	01f95793          	srli	a5,s2,0x1f
    63d6:	855e                	mv	a0,s7
    63d8:	eb0ff0ef          	jal	5a88 <_ZL10_ntoa_longPFvcPvjjEPcjjmbmjjj>
    63dc:	862a                	mv	a2,a0
    63de:	41850433          	sub	s0,a0,s8
    63e2:	060d9763          	bnez	s11,6450 <_ZL5_etoaPFvcPvjjEPcjjdjjj+0x488>
    63e6:	11c12083          	lw	ra,284(sp)
    63ea:	11812403          	lw	s0,280(sp)
    63ee:	11412483          	lw	s1,276(sp)
    63f2:	11012903          	lw	s2,272(sp)
    63f6:	10c12983          	lw	s3,268(sp)
    63fa:	10812a03          	lw	s4,264(sp)
    63fe:	10412a83          	lw	s5,260(sp)
    6402:	10012b03          	lw	s6,256(sp)
    6406:	5bfe                	lw	s7,252(sp)
    6408:	5c6e                	lw	s8,248(sp)
    640a:	5cde                	lw	s9,244(sp)
    640c:	5d4e                	lw	s10,240(sp)
    640e:	5dbe                	lw	s11,236(sp)
    6410:	8532                	mv	a0,a2
    6412:	6115                	addi	sp,sp,288
    6414:	8082                	ret
    6416:	d96e                	sw	s11,176(sp)
    6418:	db4e                	sw	s3,180(sp)
    641a:	86082603          	lw	a2,-1952(a6) # 10004860 <_ZZ23minimum_conv_single_8x8PaS_S_S_aE4Bias+0x70>
    641e:	86482683          	lw	a3,-1948(a6)
    6422:	554a                	lw	a0,176(sp)
    6424:	55da                	lw	a1,180(sp)
    6426:	197d                	addi	s2,s2,-1
    6428:	233010ef          	jal	7e5a <__divdf3>
    642c:	cc2a                	sw	a0,24(sp)
    642e:	ce2e                	sw	a1,28(sp)
    6430:	b569                	j	62ba <_ZL5_etoaPFvcPvjjEPcjjdjjj+0x2f2>
    6432:	ee0a86e3          	beqz	s5,631e <_ZL5_etoaPFvcPvjjEPcjjdjjj+0x356>
    6436:	400a7793          	andi	a5,s4,1024
    643a:	00f037b3          	snez	a5,a5
    643e:	40fa8ab3          	sub	s5,s5,a5
    6442:	bdf1                	j	631e <_ZL5_etoaPFvcPvjjEPcjjdjjj+0x356>
    6444:	46d2                	lw	a3,20(sp)
    6446:	45c2                	lw	a1,16(sp)
    6448:	02000513          	li	a0,32
    644c:	0405                	addi	s0,s0,1 # 80000001 <linker_stack_start+0x6ffd0011>
    644e:	9b82                	jalr	s7
    6450:	008c0633          	add	a2,s8,s0
    6454:	ffa468e3          	bltu	s0,s10,6444 <_ZL5_etoaPFvcPvjjEPcjjdjjj+0x47c>
    6458:	b779                	j	63e6 <_ZL5_etoaPFvcPvjjEPcjjdjjj+0x41e>

0000645a <_ZL10_vsnprintfPFvcPvjjEPcjPKcS_>:
    645a:	711d                	addi	sp,sp,-96
    645c:	caa6                	sw	s1,84(sp)
    645e:	c8ca                	sw	s2,80(sp)
    6460:	c6ce                	sw	s3,76(sp)
    6462:	c2d6                	sw	s5,68(sp)
    6464:	ce86                	sw	ra,92(sp)
    6466:	cca2                	sw	s0,88(sp)
    6468:	c4d2                	sw	s4,72(sp)
    646a:	c0da                	sw	s6,64(sp)
    646c:	de5e                	sw	s7,60(sp)
    646e:	dc62                	sw	s8,56(sp)
    6470:	da66                	sw	s9,52(sp)
    6472:	d86a                	sw	s10,48(sp)
    6474:	d66e                	sw	s11,44(sp)
    6476:	ca2e                	sw	a1,20(sp)
    6478:	89b2                	mv	s3,a2
    647a:	84b6                	mv	s1,a3
    647c:	8aba                	mv	s5,a4
    647e:	892a                	mv	s2,a0
    6480:	e581                	bnez	a1,6488 <_ZL10_vsnprintfPFvcPvjjEPcjPKcS_+0x2e>
    6482:	6919                	lui	s2,0x6
    6484:	88a90913          	addi	s2,s2,-1910 # 588a <_ZL9_out_nullcPvjj>
    6488:	4d81                	li	s11,0
    648a:	4ca9                	li	s9,10
    648c:	a39d                	j	69f2 <_ZL10_vsnprintfPFvcPvjjEPcjPKcS_+0x598>
    648e:	02500793          	li	a5,37
    6492:	0485                	addi	s1,s1,1
    6494:	00f50a63          	beq	a0,a5,64a8 <_ZL10_vsnprintfPFvcPvjjEPcjPKcS_+0x4e>
    6498:	45d2                	lw	a1,20(sp)
    649a:	866e                	mv	a2,s11
    649c:	001d8413          	addi	s0,s11,1
    64a0:	86ce                	mv	a3,s3
    64a2:	9902                	jalr	s2
    64a4:	8da2                	mv	s11,s0
    64a6:	a3b1                	j	69f2 <_ZL10_vsnprintfPFvcPvjjEPcjPKcS_+0x598>
    64a8:	4301                	li	t1,0
    64aa:	02b00713          	li	a4,43
    64ae:	02000613          	li	a2,32
    64b2:	02300593          	li	a1,35
    64b6:	a0ad                	j	6520 <_ZL10_vsnprintfPFvcPvjjEPcjPKcS_+0xc6>
    64b8:	02d00513          	li	a0,45
    64bc:	0aa78063          	beq	a5,a0,655c <_ZL10_vsnprintfPFvcPvjjEPcjPKcS_+0x102>
    64c0:	03000513          	li	a0,48
    64c4:	04a78b63          	beq	a5,a0,651a <_ZL10_vsnprintfPFvcPvjjEPcjPKcS_+0xc0>
    64c8:	fd078713          	addi	a4,a5,-48
    64cc:	4625                	li	a2,9
    64ce:	0ff77713          	zext.b	a4,a4
    64d2:	4a01                	li	s4,0
    64d4:	85b2                	mv	a1,a2
    64d6:	06e66163          	bltu	a2,a4,6538 <_ZL10_vsnprintfPFvcPvjjEPcjPKcS_+0xde>
    64da:	0004c703          	lbu	a4,0(s1)
    64de:	00148693          	addi	a3,s1,1
    64e2:	fd070793          	addi	a5,a4,-48
    64e6:	0ff7f793          	zext.b	a5,a5
    64ea:	08f5f563          	bgeu	a1,a5,6574 <_ZL10_vsnprintfPFvcPvjjEPcjPKcS_+0x11a>
    64ee:	0004c703          	lbu	a4,0(s1)
    64f2:	02e00793          	li	a5,46
    64f6:	12f71c63          	bne	a4,a5,662e <_ZL10_vsnprintfPFvcPvjjEPcjPKcS_+0x1d4>
    64fa:	0014c603          	lbu	a2,1(s1)
    64fe:	4725                	li	a4,9
    6500:	00148793          	addi	a5,s1,1
    6504:	fd060693          	addi	a3,a2,-48
    6508:	0ff6f693          	zext.b	a3,a3
    650c:	40036313          	ori	t1,t1,1024
    6510:	0ed76f63          	bltu	a4,a3,660e <_ZL10_vsnprintfPFvcPvjjEPcjPKcS_+0x1b4>
    6514:	4b01                	li	s6,0
    6516:	4529                	li	a0,10
    6518:	a8ad                	j	6592 <_ZL10_vsnprintfPFvcPvjjEPcjPKcS_+0x138>
    651a:	00136313          	ori	t1,t1,1
    651e:	84b6                	mv	s1,a3
    6520:	0004c783          	lbu	a5,0(s1)
    6524:	00148693          	addi	a3,s1,1
    6528:	02e78d63          	beq	a5,a4,6562 <_ZL10_vsnprintfPFvcPvjjEPcjPKcS_+0x108>
    652c:	f8f766e3          	bltu	a4,a5,64b8 <_ZL10_vsnprintfPFvcPvjjEPcjPKcS_+0x5e>
    6530:	02c78c63          	beq	a5,a2,6568 <_ZL10_vsnprintfPFvcPvjjEPcjPKcS_+0x10e>
    6534:	02b78d63          	beq	a5,a1,656e <_ZL10_vsnprintfPFvcPvjjEPcjPKcS_+0x114>
    6538:	02a00713          	li	a4,42
    653c:	4a01                	li	s4,0
    653e:	fae798e3          	bne	a5,a4,64ee <_ZL10_vsnprintfPFvcPvjjEPcjPKcS_+0x94>
    6542:	000aaa03          	lw	s4,0(s5)
    6546:	004a8793          	addi	a5,s5,4
    654a:	000a5663          	bgez	s4,6556 <_ZL10_vsnprintfPFvcPvjjEPcjPKcS_+0xfc>
    654e:	00236313          	ori	t1,t1,2
    6552:	41400a33          	neg	s4,s4
    6556:	8abe                	mv	s5,a5
    6558:	84b6                	mv	s1,a3
    655a:	bf51                	j	64ee <_ZL10_vsnprintfPFvcPvjjEPcjPKcS_+0x94>
    655c:	00236313          	ori	t1,t1,2
    6560:	bf7d                	j	651e <_ZL10_vsnprintfPFvcPvjjEPcjPKcS_+0xc4>
    6562:	00436313          	ori	t1,t1,4
    6566:	bf65                	j	651e <_ZL10_vsnprintfPFvcPvjjEPcjPKcS_+0xc4>
    6568:	00836313          	ori	t1,t1,8
    656c:	bf4d                	j	651e <_ZL10_vsnprintfPFvcPvjjEPcjPKcS_+0xc4>
    656e:	01036313          	ori	t1,t1,16
    6572:	b775                	j	651e <_ZL10_vsnprintfPFvcPvjjEPcjPKcS_+0xc4>
    6574:	039a08b3          	mul	a7,s4,s9
    6578:	84b6                	mv	s1,a3
    657a:	fd088893          	addi	a7,a7,-48
    657e:	01170a33          	add	s4,a4,a7
    6582:	bfa1                	j	64da <_ZL10_vsnprintfPFvcPvjjEPcjPKcS_+0x80>
    6584:	02ab0e33          	mul	t3,s6,a0
    6588:	87ae                	mv	a5,a1
    658a:	fd0e0e13          	addi	t3,t3,-48
    658e:	01c60b33          	add	s6,a2,t3
    6592:	0007c603          	lbu	a2,0(a5)
    6596:	00178593          	addi	a1,a5,1
    659a:	fd060693          	addi	a3,a2,-48
    659e:	0ff6f693          	zext.b	a3,a3
    65a2:	fed771e3          	bgeu	a4,a3,6584 <_ZL10_vsnprintfPFvcPvjjEPcjPKcS_+0x12a>
    65a6:	0007c703          	lbu	a4,0(a5)
    65aa:	06c00693          	li	a3,108
    65ae:	00178493          	addi	s1,a5,1
    65b2:	08d70c63          	beq	a4,a3,664a <_ZL10_vsnprintfPFvcPvjjEPcjPKcS_+0x1f0>
    65b6:	06e6ef63          	bltu	a3,a4,6634 <_ZL10_vsnprintfPFvcPvjjEPcjPKcS_+0x1da>
    65ba:	06800693          	li	a3,104
    65be:	08d70f63          	beq	a4,a3,665c <_ZL10_vsnprintfPFvcPvjjEPcjPKcS_+0x202>
    65c2:	06a00693          	li	a3,106
    65c6:	0ad70563          	beq	a4,a3,6670 <_ZL10_vsnprintfPFvcPvjjEPcjPKcS_+0x216>
    65ca:	84be                	mv	s1,a5
    65cc:	0004c503          	lbu	a0,0(s1)
    65d0:	06700793          	li	a5,103
    65d4:	0485                	addi	s1,s1,1
    65d6:	0aa7ef63          	bltu	a5,a0,6694 <_ZL10_vsnprintfPFvcPvjjEPcjPKcS_+0x23a>
    65da:	05700793          	li	a5,87
    65de:	08a7ec63          	bltu	a5,a0,6676 <_ZL10_vsnprintfPFvcPvjjEPcjPKcS_+0x21c>
    65e2:	04500793          	li	a5,69
    65e6:	02f50163          	beq	a0,a5,6608 <_ZL10_vsnprintfPFvcPvjjEPcjPKcS_+0x1ae>
    65ea:	eaa7f7e3          	bgeu	a5,a0,6498 <_ZL10_vsnprintfPFvcPvjjEPcjPKcS_+0x3e>
    65ee:	04600793          	li	a5,70
    65f2:	1cf50563          	beq	a0,a5,67bc <_ZL10_vsnprintfPFvcPvjjEPcjPKcS_+0x362>
    65f6:	04700793          	li	a5,71
    65fa:	e8f51fe3          	bne	a0,a5,6498 <_ZL10_vsnprintfPFvcPvjjEPcjPKcS_+0x3e>
    65fe:	6785                	lui	a5,0x1
    6600:	80078793          	addi	a5,a5,-2048 # 800 <_Z21minimum_pwconv_singlePaS_S_+0xc6>
    6604:	00f36333          	or	t1,t1,a5
    6608:	02036313          	ori	t1,t1,32
    660c:	a2c5                	j	67ec <_ZL10_vsnprintfPFvcPvjjEPcjPKcS_+0x392>
    660e:	02a00713          	li	a4,42
    6612:	4b01                	li	s6,0
    6614:	f8e619e3          	bne	a2,a4,65a6 <_ZL10_vsnprintfPFvcPvjjEPcjPKcS_+0x14c>
    6618:	000aab03          	lw	s6,0(s5)
    661c:	0a91                	addi	s5,s5,4
    661e:	fffb4793          	not	a5,s6
    6622:	87fd                	srai	a5,a5,0x1f
    6624:	00fb7b33          	and	s6,s6,a5
    6628:	00248793          	addi	a5,s1,2
    662c:	bfad                	j	65a6 <_ZL10_vsnprintfPFvcPvjjEPcjPKcS_+0x14c>
    662e:	87a6                	mv	a5,s1
    6630:	4b01                	li	s6,0
    6632:	bf95                	j	65a6 <_ZL10_vsnprintfPFvcPvjjEPcjPKcS_+0x14c>
    6634:	07400693          	li	a3,116
    6638:	00d70663          	beq	a4,a3,6644 <_ZL10_vsnprintfPFvcPvjjEPcjPKcS_+0x1ea>
    663c:	07a00693          	li	a3,122
    6640:	f8d715e3          	bne	a4,a3,65ca <_ZL10_vsnprintfPFvcPvjjEPcjPKcS_+0x170>
    6644:	10036313          	ori	t1,t1,256
    6648:	b751                	j	65cc <_ZL10_vsnprintfPFvcPvjjEPcjPKcS_+0x172>
    664a:	0017c683          	lbu	a3,1(a5)
    664e:	fee69be3          	bne	a3,a4,6644 <_ZL10_vsnprintfPFvcPvjjEPcjPKcS_+0x1ea>
    6652:	30036313          	ori	t1,t1,768
    6656:	00278493          	addi	s1,a5,2
    665a:	bf8d                	j	65cc <_ZL10_vsnprintfPFvcPvjjEPcjPKcS_+0x172>
    665c:	0017c683          	lbu	a3,1(a5)
    6660:	00e68563          	beq	a3,a4,666a <_ZL10_vsnprintfPFvcPvjjEPcjPKcS_+0x210>
    6664:	08036313          	ori	t1,t1,128
    6668:	b795                	j	65cc <_ZL10_vsnprintfPFvcPvjjEPcjPKcS_+0x172>
    666a:	0c036313          	ori	t1,t1,192
    666e:	b7e5                	j	6656 <_ZL10_vsnprintfPFvcPvjjEPcjPKcS_+0x1fc>
    6670:	20036313          	ori	t1,t1,512
    6674:	bfa1                	j	65cc <_ZL10_vsnprintfPFvcPvjjEPcjPKcS_+0x172>
    6676:	fa850793          	addi	a5,a0,-88
    667a:	0ff7f793          	zext.b	a5,a5
    667e:	473d                	li	a4,15
    6680:	e0f76ce3          	bltu	a4,a5,6498 <_ZL10_vsnprintfPFvcPvjjEPcjPKcS_+0x3e>
    6684:	10004737          	lui	a4,0x10004
    6688:	078a                	slli	a5,a5,0x2
    668a:	62070713          	addi	a4,a4,1568 # 10004620 <_ZZ29minimum_dwconv_single_8x8_16bPsPaS_S_aE13Result_stride+0x80>
    668e:	97ba                	add	a5,a5,a4
    6690:	439c                	lw	a5,0(a5)
    6692:	8782                	jr	a5
    6694:	f9750793          	addi	a5,a0,-105
    6698:	0ff7f793          	zext.b	a5,a5
    669c:	473d                	li	a4,15
    669e:	def76de3          	bltu	a4,a5,6498 <_ZL10_vsnprintfPFvcPvjjEPcjPKcS_+0x3e>
    66a2:	4705                	li	a4,1
    66a4:	66a5                	lui	a3,0x9
    66a6:	00f71733          	sll	a4,a4,a5
    66aa:	04168693          	addi	a3,a3,65 # 9041 <__subdf3+0x4b7>
    66ae:	8f75                	and	a4,a4,a3
    66b0:	e31d                	bnez	a4,66d6 <_ZL10_vsnprintfPFvcPvjjEPcjPKcS_+0x27c>
    66b2:	4729                	li	a4,10
    66b4:	1ee78263          	beq	a5,a4,6898 <_ZL10_vsnprintfPFvcPvjjEPcjPKcS_+0x43e>
    66b8:	471d                	li	a4,7
    66ba:	dce79fe3          	bne	a5,a4,6498 <_ZL10_vsnprintfPFvcPvjjEPcjPKcS_+0x3e>
    66be:	02136313          	ori	t1,t1,33
    66c2:	47a1                	li	a5,8
    66c4:	000aa703          	lw	a4,0(s5)
    66c8:	004a8413          	addi	s0,s5,4
    66cc:	c21a                	sw	t1,4(sp)
    66ce:	c03e                	sw	a5,0(sp)
    66d0:	88da                	mv	a7,s6
    66d2:	4841                	li	a6,16
    66d4:	a0e1                	j	679c <_ZL10_vsnprintfPFvcPvjjEPcjPKcS_+0x342>
    66d6:	06f00793          	li	a5,111
    66da:	28f51f63          	bne	a0,a5,6978 <_ZL10_vsnprintfPFvcPvjjEPcjPKcS_+0x51e>
    66de:	4821                	li	a6,8
    66e0:	a00d                	j	6702 <_ZL10_vsnprintfPFvcPvjjEPcjPKcS_+0x2a8>
    66e2:	05800793          	li	a5,88
    66e6:	02f50763          	beq	a0,a5,6714 <_ZL10_vsnprintfPFvcPvjjEPcjPKcS_+0x2ba>
    66ea:	06200793          	li	a5,98
    66ee:	4809                	li	a6,2
    66f0:	00f50963          	beq	a0,a5,6702 <_ZL10_vsnprintfPFvcPvjjEPcjPKcS_+0x2a8>
    66f4:	fef37313          	andi	t1,t1,-17
    66f8:	06400793          	li	a5,100
    66fc:	4829                	li	a6,10
    66fe:	28f50663          	beq	a0,a5,698a <_ZL10_vsnprintfPFvcPvjjEPcjPKcS_+0x530>
    6702:	ff337313          	andi	t1,t1,-13
    6706:	a451                	j	698a <_ZL10_vsnprintfPFvcPvjjEPcjPKcS_+0x530>
    6708:	07800793          	li	a5,120
    670c:	fef514e3          	bne	a0,a5,66f4 <_ZL10_vsnprintfPFvcPvjjEPcjPKcS_+0x29a>
    6710:	4841                	li	a6,16
    6712:	bfc5                	j	6702 <_ZL10_vsnprintfPFvcPvjjEPcjPKcS_+0x2a8>
    6714:	02036313          	ori	t1,t1,32
    6718:	bfe5                	j	6710 <_ZL10_vsnprintfPFvcPvjjEPcjPKcS_+0x2b6>
    671a:	10037793          	andi	a5,t1,256
    671e:	004a8413          	addi	s0,s5,4
    6722:	c785                	beqz	a5,674a <_ZL10_vsnprintfPFvcPvjjEPcjPKcS_+0x2f0>
    6724:	000aa783          	lw	a5,0(s5)
    6728:	41f7d713          	srai	a4,a5,0x1f
    672c:	00f746b3          	xor	a3,a4,a5
    6730:	c21a                	sw	t1,4(sp)
    6732:	c052                	sw	s4,0(sp)
    6734:	88da                	mv	a7,s6
    6736:	83fd                	srli	a5,a5,0x1f
    6738:	40e68733          	sub	a4,a3,a4
    673c:	45d2                	lw	a1,20(sp)
    673e:	86ce                	mv	a3,s3
    6740:	866e                	mv	a2,s11
    6742:	854a                	mv	a0,s2
    6744:	b44ff0ef          	jal	5a88 <_ZL10_ntoa_longPFvcPvjjEPcjjmbmjjj>
    6748:	a45d                	j	69ee <_ZL10_vsnprintfPFvcPvjjEPcjPKcS_+0x594>
    674a:	04037713          	andi	a4,t1,64
    674e:	000aa783          	lw	a5,0(s5)
    6752:	c701                	beqz	a4,675a <_ZL10_vsnprintfPFvcPvjjEPcjPKcS_+0x300>
    6754:	0ff7f793          	zext.b	a5,a5
    6758:	bfc1                	j	6728 <_ZL10_vsnprintfPFvcPvjjEPcjPKcS_+0x2ce>
    675a:	08037713          	andi	a4,t1,128
    675e:	d769                	beqz	a4,6728 <_ZL10_vsnprintfPFvcPvjjEPcjPKcS_+0x2ce>
    6760:	07c2                	slli	a5,a5,0x10
    6762:	87c1                	srai	a5,a5,0x10
    6764:	b7d1                	j	6728 <_ZL10_vsnprintfPFvcPvjjEPcjPKcS_+0x2ce>
    6766:	c38d                	beqz	a5,6788 <_ZL10_vsnprintfPFvcPvjjEPcjPKcS_+0x32e>
    6768:	0a9d                	addi	s5,s5,7
    676a:	ff8afa93          	andi	s5,s5,-8
    676e:	000aa703          	lw	a4,0(s5)
    6772:	004aa783          	lw	a5,4(s5)
    6776:	88c2                	mv	a7,a6
    6778:	008a8413          	addi	s0,s5,8
    677c:	c61a                	sw	t1,12(sp)
    677e:	c452                	sw	s4,8(sp)
    6780:	c25a                	sw	s6,4(sp)
    6782:	c002                	sw	zero,0(sp)
    6784:	4801                	li	a6,0
    6786:	acb1                	j	69e2 <_ZL10_vsnprintfPFvcPvjjEPcjPKcS_+0x588>
    6788:	10037793          	andi	a5,t1,256
    678c:	004a8413          	addi	s0,s5,4
    6790:	cb81                	beqz	a5,67a0 <_ZL10_vsnprintfPFvcPvjjEPcjPKcS_+0x346>
    6792:	000aa703          	lw	a4,0(s5)
    6796:	c21a                	sw	t1,4(sp)
    6798:	c052                	sw	s4,0(sp)
    679a:	88da                	mv	a7,s6
    679c:	4781                	li	a5,0
    679e:	bf79                	j	673c <_ZL10_vsnprintfPFvcPvjjEPcjPKcS_+0x2e2>
    67a0:	04037793          	andi	a5,t1,64
    67a4:	000aa703          	lw	a4,0(s5)
    67a8:	c781                	beqz	a5,67b0 <_ZL10_vsnprintfPFvcPvjjEPcjPKcS_+0x356>
    67aa:	0ff77713          	zext.b	a4,a4
    67ae:	b7e5                	j	6796 <_ZL10_vsnprintfPFvcPvjjEPcjPKcS_+0x33c>
    67b0:	08037793          	andi	a5,t1,128
    67b4:	d3ed                	beqz	a5,6796 <_ZL10_vsnprintfPFvcPvjjEPcjPKcS_+0x33c>
    67b6:	0742                	slli	a4,a4,0x10
    67b8:	8341                	srli	a4,a4,0x10
    67ba:	bff1                	j	6796 <_ZL10_vsnprintfPFvcPvjjEPcjPKcS_+0x33c>
    67bc:	02036313          	ori	t1,t1,32
    67c0:	007a8793          	addi	a5,s5,7
    67c4:	9be1                	andi	a5,a5,-8
    67c6:	4398                	lw	a4,0(a5)
    67c8:	00878a93          	addi	s5,a5,8
    67cc:	45d2                	lw	a1,20(sp)
    67ce:	43dc                	lw	a5,4(a5)
    67d0:	88d2                	mv	a7,s4
    67d2:	c01a                	sw	t1,0(sp)
    67d4:	885a                	mv	a6,s6
    67d6:	86ce                	mv	a3,s3
    67d8:	866e                	mv	a2,s11
    67da:	854a                	mv	a0,s2
    67dc:	c2cff0ef          	jal	5c08 <_ZL5_ftoaPFvcPvjjEPcjjdjjj>
    67e0:	8daa                	mv	s11,a0
    67e2:	ac01                	j	69f2 <_ZL10_vsnprintfPFvcPvjjEPcjPKcS_+0x598>
    67e4:	06700793          	li	a5,103
    67e8:	02f50363          	beq	a0,a5,680e <_ZL10_vsnprintfPFvcPvjjEPcjPKcS_+0x3b4>
    67ec:	007a8793          	addi	a5,s5,7
    67f0:	9be1                	andi	a5,a5,-8
    67f2:	4398                	lw	a4,0(a5)
    67f4:	00878a93          	addi	s5,a5,8
    67f8:	45d2                	lw	a1,20(sp)
    67fa:	43dc                	lw	a5,4(a5)
    67fc:	88d2                	mv	a7,s4
    67fe:	c01a                	sw	t1,0(sp)
    6800:	885a                	mv	a6,s6
    6802:	86ce                	mv	a3,s3
    6804:	866e                	mv	a2,s11
    6806:	854a                	mv	a0,s2
    6808:	fc0ff0ef          	jal	5fc8 <_ZL5_etoaPFvcPvjjEPcjjdjjj>
    680c:	bfd1                	j	67e0 <_ZL10_vsnprintfPFvcPvjjEPcjPKcS_+0x386>
    680e:	6785                	lui	a5,0x1
    6810:	80078793          	addi	a5,a5,-2048 # 800 <_Z21minimum_pwconv_singlePaS_S_+0xc6>
    6814:	00f36333          	or	t1,t1,a5
    6818:	bfd1                	j	67ec <_ZL10_vsnprintfPFvcPvjjEPcjPKcS_+0x392>
    681a:	00237413          	andi	s0,t1,2
    681e:	4b85                	li	s7,1
    6820:	e815                	bnez	s0,6854 <_ZL10_vsnprintfPFvcPvjjEPcjPKcS_+0x3fa>
    6822:	4d01                	li	s10,0
    6824:	a031                	j	6830 <_ZL10_vsnprintfPFvcPvjjEPcjPKcS_+0x3d6>
    6826:	45d2                	lw	a1,20(sp)
    6828:	86ce                	mv	a3,s3
    682a:	02000513          	li	a0,32
    682e:	9902                	jalr	s2
    6830:	01ad8633          	add	a2,s11,s10
    6834:	0d05                	addi	s10,s10,1
    6836:	ff4d68e3          	bltu	s10,s4,6826 <_ZL10_vsnprintfPFvcPvjjEPcjPKcS_+0x3cc>
    683a:	014036b3          	snez	a3,s4
    683e:	4789                	li	a5,2
    6840:	000a0463          	beqz	s4,6848 <_ZL10_vsnprintfPFvcPvjjEPcjPKcS_+0x3ee>
    6844:	001a0793          	addi	a5,s4,1
    6848:	8bbe                	mv	s7,a5
    684a:	4701                	li	a4,0
    684c:	c299                	beqz	a3,6852 <_ZL10_vsnprintfPFvcPvjjEPcjPKcS_+0x3f8>
    684e:	fffa0713          	addi	a4,s4,-1
    6852:	9dba                	add	s11,s11,a4
    6854:	45d2                	lw	a1,20(sp)
    6856:	000ac503          	lbu	a0,0(s5)
    685a:	86ce                	mv	a3,s3
    685c:	866e                	mv	a2,s11
    685e:	004a8d13          	addi	s10,s5,4
    6862:	001d8b13          	addi	s6,s11,1
    6866:	9902                	jalr	s2
    6868:	c40d                	beqz	s0,6892 <_ZL10_vsnprintfPFvcPvjjEPcjPKcS_+0x438>
    686a:	845e                	mv	s0,s7
    686c:	865a                	mv	a2,s6
    686e:	a811                	j	6882 <_ZL10_vsnprintfPFvcPvjjEPcjPKcS_+0x428>
    6870:	45d2                	lw	a1,20(sp)
    6872:	86ce                	mv	a3,s3
    6874:	02000513          	li	a0,32
    6878:	00160a93          	addi	s5,a2,1
    687c:	9902                	jalr	s2
    687e:	0405                	addi	s0,s0,1
    6880:	8656                	mv	a2,s5
    6882:	ff4467e3          	bltu	s0,s4,6870 <_ZL10_vsnprintfPFvcPvjjEPcjPKcS_+0x416>
    6886:	4681                	li	a3,0
    6888:	017a6463          	bltu	s4,s7,6890 <_ZL10_vsnprintfPFvcPvjjEPcjPKcS_+0x436>
    688c:	417a06b3          	sub	a3,s4,s7
    6890:	9b36                	add	s6,s6,a3
    6892:	8aea                	mv	s5,s10
    6894:	8dda                	mv	s11,s6
    6896:	aab1                	j	69f2 <_ZL10_vsnprintfPFvcPvjjEPcjPKcS_+0x598>
    6898:	000aac03          	lw	s8,0(s5)
    689c:	004a8d13          	addi	s10,s5,4
    68a0:	57fd                	li	a5,-1
    68a2:	000b0363          	beqz	s6,68a8 <_ZL10_vsnprintfPFvcPvjjEPcjPKcS_+0x44e>
    68a6:	87da                	mv	a5,s6
    68a8:	00fc0733          	add	a4,s8,a5
    68ac:	87e2                	mv	a5,s8
    68ae:	0007c683          	lbu	a3,0(a5)
    68b2:	c689                	beqz	a3,68bc <_ZL10_vsnprintfPFvcPvjjEPcjPKcS_+0x462>
    68b4:	00f70463          	beq	a4,a5,68bc <_ZL10_vsnprintfPFvcPvjjEPcjPKcS_+0x462>
    68b8:	0785                	addi	a5,a5,1
    68ba:	bfd5                	j	68ae <_ZL10_vsnprintfPFvcPvjjEPcjPKcS_+0x454>
    68bc:	40037a93          	andi	s5,t1,1024
    68c0:	41878bb3          	sub	s7,a5,s8
    68c4:	000a8563          	beqz	s5,68ce <_ZL10_vsnprintfPFvcPvjjEPcjPKcS_+0x474>
    68c8:	017b7363          	bgeu	s6,s7,68ce <_ZL10_vsnprintfPFvcPvjjEPcjPKcS_+0x474>
    68cc:	8bda                	mv	s7,s6
    68ce:	00237413          	andi	s0,t1,2
    68d2:	ec1d                	bnez	s0,6910 <_ZL10_vsnprintfPFvcPvjjEPcjPKcS_+0x4b6>
    68d4:	866e                	mv	a2,s11
    68d6:	41bb8333          	sub	t1,s7,s11
    68da:	a829                	j	68f4 <_ZL10_vsnprintfPFvcPvjjEPcjPKcS_+0x49a>
    68dc:	45d2                	lw	a1,20(sp)
    68de:	00160713          	addi	a4,a2,1
    68e2:	ce1a                	sw	t1,28(sp)
    68e4:	cc3a                	sw	a4,24(sp)
    68e6:	86ce                	mv	a3,s3
    68e8:	02000513          	li	a0,32
    68ec:	9902                	jalr	s2
    68ee:	4762                	lw	a4,24(sp)
    68f0:	4372                	lw	t1,28(sp)
    68f2:	863a                	mv	a2,a4
    68f4:	00c30733          	add	a4,t1,a2
    68f8:	ff4762e3          	bltu	a4,s4,68dc <_ZL10_vsnprintfPFvcPvjjEPcjPKcS_+0x482>
    68fc:	4701                	li	a4,0
    68fe:	017a6463          	bltu	s4,s7,6906 <_ZL10_vsnprintfPFvcPvjjEPcjPKcS_+0x4ac>
    6902:	417a0733          	sub	a4,s4,s7
    6906:	001b8793          	addi	a5,s7,1
    690a:	00e78bb3          	add	s7,a5,a4
    690e:	9dba                	add	s11,s11,a4
    6910:	876e                	mv	a4,s11
    6912:	41b706b3          	sub	a3,a4,s11
    6916:	96e2                	add	a3,a3,s8
    6918:	0006c503          	lbu	a0,0(a3)
    691c:	c115                	beqz	a0,6940 <_ZL10_vsnprintfPFvcPvjjEPcjPKcS_+0x4e6>
    691e:	000a8763          	beqz	s5,692c <_ZL10_vsnprintfPFvcPvjjEPcjPKcS_+0x4d2>
    6922:	fffb0693          	addi	a3,s6,-1
    6926:	000b0d63          	beqz	s6,6940 <_ZL10_vsnprintfPFvcPvjjEPcjPKcS_+0x4e6>
    692a:	8b36                	mv	s6,a3
    692c:	45d2                	lw	a1,20(sp)
    692e:	00170313          	addi	t1,a4,1
    6932:	cc1a                	sw	t1,24(sp)
    6934:	863a                	mv	a2,a4
    6936:	86ce                	mv	a3,s3
    6938:	9902                	jalr	s2
    693a:	4362                	lw	t1,24(sp)
    693c:	871a                	mv	a4,t1
    693e:	bfd1                	j	6912 <_ZL10_vsnprintfPFvcPvjjEPcjPKcS_+0x4b8>
    6940:	c80d                	beqz	s0,6972 <_ZL10_vsnprintfPFvcPvjjEPcjPKcS_+0x518>
    6942:	863a                	mv	a2,a4
    6944:	40eb8433          	sub	s0,s7,a4
    6948:	a819                	j	695e <_ZL10_vsnprintfPFvcPvjjEPcjPKcS_+0x504>
    694a:	45d2                	lw	a1,20(sp)
    694c:	cc3a                	sw	a4,24(sp)
    694e:	86ce                	mv	a3,s3
    6950:	02000513          	li	a0,32
    6954:	00160a93          	addi	s5,a2,1
    6958:	9902                	jalr	s2
    695a:	4762                	lw	a4,24(sp)
    695c:	8656                	mv	a2,s5
    695e:	008606b3          	add	a3,a2,s0
    6962:	ff46e4e3          	bltu	a3,s4,694a <_ZL10_vsnprintfPFvcPvjjEPcjPKcS_+0x4f0>
    6966:	4681                	li	a3,0
    6968:	017a6463          	bltu	s4,s7,6970 <_ZL10_vsnprintfPFvcPvjjEPcjPKcS_+0x516>
    696c:	417a06b3          	sub	a3,s4,s7
    6970:	9736                	add	a4,a4,a3
    6972:	8aea                	mv	s5,s10
    6974:	8dba                	mv	s11,a4
    6976:	a8b5                	j	69f2 <_ZL10_vsnprintfPFvcPvjjEPcjPKcS_+0x598>
    6978:	d8a7e8e3          	bltu	a5,a0,6708 <_ZL10_vsnprintfPFvcPvjjEPcjPKcS_+0x2ae>
    697c:	06900793          	li	a5,105
    6980:	fef37313          	andi	t1,t1,-17
    6984:	4829                	li	a6,10
    6986:	d6f519e3          	bne	a0,a5,66f8 <_ZL10_vsnprintfPFvcPvjjEPcjPKcS_+0x29e>
    698a:	40037793          	andi	a5,t1,1024
    698e:	c399                	beqz	a5,6994 <_ZL10_vsnprintfPFvcPvjjEPcjPKcS_+0x53a>
    6990:	ffe37313          	andi	t1,t1,-2
    6994:	06900713          	li	a4,105
    6998:	20037793          	andi	a5,t1,512
    699c:	00e50663          	beq	a0,a4,69a8 <_ZL10_vsnprintfPFvcPvjjEPcjPKcS_+0x54e>
    69a0:	06400713          	li	a4,100
    69a4:	dce511e3          	bne	a0,a4,6766 <_ZL10_vsnprintfPFvcPvjjEPcjPKcS_+0x30c>
    69a8:	d60789e3          	beqz	a5,671a <_ZL10_vsnprintfPFvcPvjjEPcjPKcS_+0x2c0>
    69ac:	0a9d                	addi	s5,s5,7
    69ae:	ff8afa93          	andi	s5,s5,-8
    69b2:	004aa583          	lw	a1,4(s5)
    69b6:	000aa683          	lw	a3,0(s5)
    69ba:	88c2                	mv	a7,a6
    69bc:	41f5d613          	srai	a2,a1,0x1f
    69c0:	8eb1                	xor	a3,a3,a2
    69c2:	00b647b3          	xor	a5,a2,a1
    69c6:	40c68733          	sub	a4,a3,a2
    69ca:	00e6b6b3          	sltu	a3,a3,a4
    69ce:	8f91                	sub	a5,a5,a2
    69d0:	008a8413          	addi	s0,s5,8
    69d4:	c61a                	sw	t1,12(sp)
    69d6:	c452                	sw	s4,8(sp)
    69d8:	c25a                	sw	s6,4(sp)
    69da:	c002                	sw	zero,0(sp)
    69dc:	01f5d813          	srli	a6,a1,0x1f
    69e0:	8f95                	sub	a5,a5,a3
    69e2:	45d2                	lw	a1,20(sp)
    69e4:	86ce                	mv	a3,s3
    69e6:	866e                	mv	a2,s11
    69e8:	854a                	mv	a0,s2
    69ea:	926ff0ef          	jal	5b10 <_ZL15_ntoa_long_longPFvcPvjjEPcjjybyjjj>
    69ee:	8daa                	mv	s11,a0
    69f0:	8aa2                	mv	s5,s0
    69f2:	0004c503          	lbu	a0,0(s1)
    69f6:	a8051ce3          	bnez	a0,648e <_ZL10_vsnprintfPFvcPvjjEPcjPKcS_+0x34>
    69fa:	866e                	mv	a2,s11
    69fc:	013de463          	bltu	s11,s3,6a04 <_ZL10_vsnprintfPFvcPvjjEPcjPKcS_+0x5aa>
    6a00:	fff98613          	addi	a2,s3,-1
    6a04:	45d2                	lw	a1,20(sp)
    6a06:	86ce                	mv	a3,s3
    6a08:	4501                	li	a0,0
    6a0a:	9902                	jalr	s2
    6a0c:	40f6                	lw	ra,92(sp)
    6a0e:	4466                	lw	s0,88(sp)
    6a10:	44d6                	lw	s1,84(sp)
    6a12:	4946                	lw	s2,80(sp)
    6a14:	49b6                	lw	s3,76(sp)
    6a16:	4a26                	lw	s4,72(sp)
    6a18:	4a96                	lw	s5,68(sp)
    6a1a:	4b06                	lw	s6,64(sp)
    6a1c:	5bf2                	lw	s7,60(sp)
    6a1e:	5c62                	lw	s8,56(sp)
    6a20:	5cd2                	lw	s9,52(sp)
    6a22:	5d42                	lw	s10,48(sp)
    6a24:	856e                	mv	a0,s11
    6a26:	5db2                	lw	s11,44(sp)
    6a28:	6125                	addi	sp,sp,96
    6a2a:	8082                	ret

00006a2c <_Z8_putcharc>:
    6a2c:	a921                	j	6e44 <_Z9uart_putci>

00006a2e <_Z7printf_PKcz>:
    6a2e:	7139                	addi	sp,sp,-64
    6a30:	d636                	sw	a3,44(sp)
    6a32:	86aa                	mv	a3,a0
    6a34:	6519                	lui	a0,0x6
    6a36:	d22e                	sw	a1,36(sp)
    6a38:	d432                	sw	a2,40(sp)
    6a3a:	d83a                	sw	a4,48(sp)
    6a3c:	002c                	addi	a1,sp,8
    6a3e:	1058                	addi	a4,sp,36
    6a40:	567d                	li	a2,-1
    6a42:	bf650513          	addi	a0,a0,-1034 # 5bf6 <_ZL9_out_charcPvjj>
    6a46:	ce06                	sw	ra,28(sp)
    6a48:	da3e                	sw	a5,52(sp)
    6a4a:	dc42                	sw	a6,56(sp)
    6a4c:	de46                	sw	a7,60(sp)
    6a4e:	c63a                	sw	a4,12(sp)
    6a50:	3429                	jal	645a <_ZL10_vsnprintfPFvcPvjjEPcjPKcS_>
    6a52:	40f2                	lw	ra,28(sp)
    6a54:	6121                	addi	sp,sp,64
    6a56:	8082                	ret

00006a58 <_Z8sprintf_PcPKcz>:
    6a58:	7139                	addi	sp,sp,-64
    6a5a:	d636                	sw	a3,44(sp)
    6a5c:	86ae                	mv	a3,a1
    6a5e:	85aa                	mv	a1,a0
    6a60:	6519                	lui	a0,0x6
    6a62:	d432                	sw	a2,40(sp)
    6a64:	d83a                	sw	a4,48(sp)
    6a66:	567d                	li	a2,-1
    6a68:	1038                	addi	a4,sp,40
    6a6a:	87e50513          	addi	a0,a0,-1922 # 587e <_ZL11_out_buffercPvjj>
    6a6e:	ce06                	sw	ra,28(sp)
    6a70:	da3e                	sw	a5,52(sp)
    6a72:	dc42                	sw	a6,56(sp)
    6a74:	de46                	sw	a7,60(sp)
    6a76:	c63a                	sw	a4,12(sp)
    6a78:	32cd                	jal	645a <_ZL10_vsnprintfPFvcPvjjEPcjPKcS_>
    6a7a:	40f2                	lw	ra,28(sp)
    6a7c:	6121                	addi	sp,sp,64
    6a7e:	8082                	ret

00006a80 <_Z9snprintf_PcjPKcz>:
    6a80:	7139                	addi	sp,sp,-64
    6a82:	d636                	sw	a3,44(sp)
    6a84:	86b2                	mv	a3,a2
    6a86:	862e                	mv	a2,a1
    6a88:	85aa                	mv	a1,a0
    6a8a:	6519                	lui	a0,0x6
    6a8c:	d83a                	sw	a4,48(sp)
    6a8e:	87e50513          	addi	a0,a0,-1922 # 587e <_ZL11_out_buffercPvjj>
    6a92:	1078                	addi	a4,sp,44
    6a94:	ce06                	sw	ra,28(sp)
    6a96:	da3e                	sw	a5,52(sp)
    6a98:	dc42                	sw	a6,56(sp)
    6a9a:	de46                	sw	a7,60(sp)
    6a9c:	c63a                	sw	a4,12(sp)
    6a9e:	3a75                	jal	645a <_ZL10_vsnprintfPFvcPvjjEPcjPKcS_>
    6aa0:	40f2                	lw	ra,28(sp)
    6aa2:	6121                	addi	sp,sp,64
    6aa4:	8082                	ret

00006aa6 <_Z8vprintf_PKcPv>:
    6aa6:	1101                	addi	sp,sp,-32
    6aa8:	86aa                	mv	a3,a0
    6aaa:	6519                	lui	a0,0x6
    6aac:	872e                	mv	a4,a1
    6aae:	567d                	li	a2,-1
    6ab0:	006c                	addi	a1,sp,12
    6ab2:	bf650513          	addi	a0,a0,-1034 # 5bf6 <_ZL9_out_charcPvjj>
    6ab6:	ce06                	sw	ra,28(sp)
    6ab8:	324d                	jal	645a <_ZL10_vsnprintfPFvcPvjjEPcjPKcS_>
    6aba:	40f2                	lw	ra,28(sp)
    6abc:	6105                	addi	sp,sp,32
    6abe:	8082                	ret

00006ac0 <_Z10vsnprintf_PcjPKcPv>:
    6ac0:	8736                	mv	a4,a3
    6ac2:	86b2                	mv	a3,a2
    6ac4:	862e                	mv	a2,a1
    6ac6:	85aa                	mv	a1,a0
    6ac8:	6519                	lui	a0,0x6
    6aca:	87e50513          	addi	a0,a0,-1922 # 587e <_ZL11_out_buffercPvjj>
    6ace:	b271                	j	645a <_ZL10_vsnprintfPFvcPvjjEPcjPKcS_>

00006ad0 <_Z9fctprintfPFvcPvES_PKcz>:
    6ad0:	7139                	addi	sp,sp,-64
    6ad2:	c42a                	sw	a0,8(sp)
    6ad4:	6519                	lui	a0,0x6
    6ad6:	d636                	sw	a3,44(sp)
    6ad8:	d83a                	sw	a4,48(sp)
    6ada:	c62e                	sw	a1,12(sp)
    6adc:	1078                	addi	a4,sp,44
    6ade:	86b2                	mv	a3,a2
    6ae0:	002c                	addi	a1,sp,8
    6ae2:	567d                	li	a2,-1
    6ae4:	bfe50513          	addi	a0,a0,-1026 # 5bfe <_ZL8_out_fctcPvjj>
    6ae8:	ce06                	sw	ra,28(sp)
    6aea:	da3e                	sw	a5,52(sp)
    6aec:	dc42                	sw	a6,56(sp)
    6aee:	de46                	sw	a7,60(sp)
    6af0:	c23a                	sw	a4,4(sp)
    6af2:	32a5                	jal	645a <_ZL10_vsnprintfPFvcPvjjEPcjPKcS_>
    6af4:	40f2                	lw	ra,28(sp)
    6af6:	6121                	addi	sp,sp,64
    6af8:	8082                	ret

00006afa <_Z12test_printf_v>:
    6afa:	10001537          	lui	a0,0x10001
    6afe:	1141                	addi	sp,sp,-16
    6b00:	56050513          	addi	a0,a0,1376 # 10001560 <__rodata_start__+0xfff7f20>
    6b04:	c606                	sw	ra,12(sp)
    6b06:	3725                	jal	6a2e <_Z7printf_PKcz>
    6b08:	f0000793          	li	a5,-256
    6b0c:	100015b7          	lui	a1,0x10001
    6b10:	10001537          	lui	a0,0x10001
    6b14:	873e                	mv	a4,a5
    6b16:	86be                	mv	a3,a5
    6b18:	04800613          	li	a2,72
    6b1c:	4801                	li	a6,0
    6b1e:	57458593          	addi	a1,a1,1396 # 10001574 <__rodata_start__+0xfff7f34>
    6b22:	58450513          	addi	a0,a0,1412 # 10001584 <__rodata_start__+0xfff7f44>
    6b26:	3721                	jal	6a2e <_Z7printf_PKcz>
    6b28:	100057b7          	lui	a5,0x10005
    6b2c:	8907a703          	lw	a4,-1904(a5) # 10004890 <_ZZ23minimum_conv_single_8x8PaS_S_S_aE4Bias+0xa0>
    6b30:	8947a783          	lw	a5,-1900(a5)
    6b34:	40b2                	lw	ra,12(sp)
    6b36:	10001537          	lui	a0,0x10001
    6b3a:	863a                	mv	a2,a4
    6b3c:	86be                	mv	a3,a5
    6b3e:	5f050513          	addi	a0,a0,1520 # 100015f0 <__rodata_start__+0xfff7fb0>
    6b42:	0141                	addi	sp,sp,16
    6b44:	b5ed                	j	6a2e <_Z7printf_PKcz>

00006b46 <_Z16find_right_orderj>:
    6b46:	20000713          	li	a4,512
    6b4a:	87aa                	mv	a5,a0
    6b4c:	02a77563          	bgeu	a4,a0,6b76 <_Z16find_right_orderj+0x30>
    6b50:	40000713          	li	a4,1024
    6b54:	4505                	li	a0,1
    6b56:	02f77163          	bgeu	a4,a5,6b78 <_Z16find_right_orderj+0x32>
    6b5a:	6705                	lui	a4,0x1
    6b5c:	80070713          	addi	a4,a4,-2048 # 800 <_Z21minimum_pwconv_singlePaS_S_+0xc6>
    6b60:	4509                	li	a0,2
    6b62:	00f77b63          	bgeu	a4,a5,6b78 <_Z16find_right_orderj+0x32>
    6b66:	6705                	lui	a4,0x1
    6b68:	00f737b3          	sltu	a5,a4,a5
    6b6c:	40f007b3          	neg	a5,a5
    6b70:	0037e513          	ori	a0,a5,3
    6b74:	8082                	ret
    6b76:	4501                	li	a0,0
    6b78:	8082                	ret

00006b7a <_Z22kmem_cache_line_objectPvji>:
    6b7a:	40000793          	li	a5,1024
    6b7e:	00c79633          	sll	a2,a5,a2
    6b82:	00b50733          	add	a4,a0,a1
    6b86:	4781                	li	a5,0
    6b88:	86aa                	mv	a3,a0
    6b8a:	952e                	add	a0,a0,a1
    6b8c:	00c5e863          	bltu	a1,a2,6b9c <_Z22kmem_cache_line_objectPvji+0x22>
    6b90:	8d91                	sub	a1,a1,a2
    6b92:	0015b593          	seqz	a1,a1
    6b96:	00b78533          	add	a0,a5,a1
    6b9a:	8082                	ret
    6b9c:	c298                	sw	a4,0(a3)
    6b9e:	0785                	addi	a5,a5,1
    6ba0:	972e                	add	a4,a4,a1
    6ba2:	8e0d                	sub	a2,a2,a1
    6ba4:	b7d5                	j	6b88 <_Z22kmem_cache_line_objectPvji+0xe>

00006ba6 <_Z17kmem_cache_createP10kmem_cachejj>:
    6ba6:	1101                	addi	sp,sp,-32
    6ba8:	cc22                	sw	s0,24(sp)
    6baa:	842a                	mv	s0,a0
    6bac:	852e                	mv	a0,a1
    6bae:	c84a                	sw	s2,16(sp)
    6bb0:	c64e                	sw	s3,12(sp)
    6bb2:	ce06                	sw	ra,28(sp)
    6bb4:	ca26                	sw	s1,20(sp)
    6bb6:	892e                	mv	s2,a1
    6bb8:	89b2                	mv	s3,a2
    6bba:	3771                	jal	6b46 <_Z16find_right_orderj>
    6bbc:	57fd                	li	a5,-1
    6bbe:	00f51b63          	bne	a0,a5,6bd4 <_Z17kmem_cache_createP10kmem_cachejj+0x2e>
    6bc2:	4401                	li	s0,0
    6bc4:	40f2                	lw	ra,28(sp)
    6bc6:	8522                	mv	a0,s0
    6bc8:	4462                	lw	s0,24(sp)
    6bca:	44d2                	lw	s1,20(sp)
    6bcc:	4942                	lw	s2,16(sp)
    6bce:	49b2                	lw	s3,12(sp)
    6bd0:	6105                	addi	sp,sp,32
    6bd2:	8082                	ret
    6bd4:	85aa                	mv	a1,a0
    6bd6:	84aa                	mv	s1,a0
    6bd8:	4501                	li	a0,0
    6bda:	851fe0ef          	jal	542a <_Z11alloc_pagesji>
    6bde:	c808                	sw	a0,16(s0)
    6be0:	d16d                	beqz	a0,6bc2 <_Z17kmem_cache_createP10kmem_cachejj+0x1c>
    6be2:	845fe0ef          	jal	5426 <_Z12page_addressP4page>
    6be6:	cc08                	sw	a0,24(s0)
    6be8:	8626                	mv	a2,s1
    6bea:	85ca                	mv	a1,s2
    6bec:	3779                	jal	6b7a <_Z22kmem_cache_line_objectPvji>
    6bee:	4818                	lw	a4,16(s0)
    6bf0:	47f1                	li	a5,28
    6bf2:	009797b3          	sll	a5,a5,s1
    6bf6:	1791                	addi	a5,a5,-28
    6bf8:	97ba                	add	a5,a5,a4
    6bfa:	c048                	sw	a0,4(s0)
    6bfc:	01242023          	sw	s2,0(s0)
    6c00:	c404                	sw	s1,8(s0)
    6c02:	01342623          	sw	s3,12(s0)
    6c06:	c85c                	sw	a5,20(s0)
    6c08:	0007aa23          	sw	zero,20(a5)
    6c0c:	bf65                	j	6bc4 <_Z17kmem_cache_createP10kmem_cachejj+0x1e>

00006c0e <_Z18kmem_cache_destroyP10kmem_cache>:
    6c0e:	1141                	addi	sp,sp,-16
    6c10:	c04a                	sw	s2,0(sp)
    6c12:	00852903          	lw	s2,8(a0)
    6c16:	c422                	sw	s0,8(sp)
    6c18:	4908                	lw	a0,16(a0)
    6c1a:	4471                	li	s0,28
    6c1c:	01241433          	sll	s0,s0,s2
    6c20:	c606                	sw	ra,12(sp)
    6c22:	c226                	sw	s1,4(sp)
    6c24:	1411                	addi	s0,s0,-28
    6c26:	008507b3          	add	a5,a0,s0
    6c2a:	4bc4                	lw	s1,20(a5)
    6c2c:	85ca                	mv	a1,s2
    6c2e:	831fe0ef          	jal	545e <_Z10free_pagesP4pagei>
    6c32:	c481                	beqz	s1,6c3a <_Z18kmem_cache_destroyP10kmem_cache+0x2c>
    6c34:	fec48513          	addi	a0,s1,-20
    6c38:	b7fd                	j	6c26 <_Z18kmem_cache_destroyP10kmem_cache+0x18>
    6c3a:	40b2                	lw	ra,12(sp)
    6c3c:	4422                	lw	s0,8(sp)
    6c3e:	4492                	lw	s1,4(sp)
    6c40:	4902                	lw	s2,0(sp)
    6c42:	0141                	addi	sp,sp,16
    6c44:	8082                	ret

00006c46 <_Z15kmem_cache_freeP10kmem_cachePv>:
    6c46:	4d1c                	lw	a5,24(a0)
    6c48:	c19c                	sw	a5,0(a1)
    6c4a:	415c                	lw	a5,4(a0)
    6c4c:	cd0c                	sw	a1,24(a0)
    6c4e:	0785                	addi	a5,a5,1
    6c50:	c15c                	sw	a5,4(a0)
    6c52:	8082                	ret

00006c54 <_Z16kmem_cache_allocP10kmem_cachej>:
    6c54:	1141                	addi	sp,sp,-16
    6c56:	c606                	sw	ra,12(sp)
    6c58:	c422                	sw	s0,8(sp)
    6c5a:	c226                	sw	s1,4(sp)
    6c5c:	c04a                	sw	s2,0(sp)
    6c5e:	e909                	bnez	a0,6c70 <_Z16kmem_cache_allocP10kmem_cachej+0x1c>
    6c60:	4481                	li	s1,0
    6c62:	40b2                	lw	ra,12(sp)
    6c64:	4422                	lw	s0,8(sp)
    6c66:	4902                	lw	s2,0(sp)
    6c68:	8526                	mv	a0,s1
    6c6a:	4492                	lw	s1,4(sp)
    6c6c:	0141                	addi	sp,sp,16
    6c6e:	8082                	ret
    6c70:	842a                	mv	s0,a0
    6c72:	4148                	lw	a0,4(a0)
    6c74:	ed0d                	bnez	a0,6cae <_Z16kmem_cache_allocP10kmem_cachej+0x5a>
    6c76:	00842903          	lw	s2,8(s0)
    6c7a:	85ca                	mv	a1,s2
    6c7c:	faefe0ef          	jal	542a <_Z11alloc_pagesji>
    6c80:	84aa                	mv	s1,a0
    6c82:	dd79                	beqz	a0,6c60 <_Z16kmem_cache_allocP10kmem_cachej+0xc>
    6c84:	fa2fe0ef          	jal	5426 <_Z12page_addressP4page>
    6c88:	485c                	lw	a5,20(s0)
    6c8a:	cc08                	sw	a0,24(s0)
    6c8c:	01448713          	addi	a4,s1,20
    6c90:	cbd8                	sw	a4,20(a5)
    6c92:	47f1                	li	a5,28
    6c94:	012797b3          	sll	a5,a5,s2
    6c98:	1791                	addi	a5,a5,-28
    6c9a:	94be                	add	s1,s1,a5
    6c9c:	c844                	sw	s1,20(s0)
    6c9e:	0004aa23          	sw	zero,20(s1)
    6ca2:	400c                	lw	a1,0(s0)
    6ca4:	4c08                	lw	a0,24(s0)
    6ca6:	864a                	mv	a2,s2
    6ca8:	3dc9                	jal	6b7a <_Z22kmem_cache_line_objectPvji>
    6caa:	405c                	lw	a5,4(s0)
    6cac:	953e                	add	a0,a0,a5
    6cae:	4c04                	lw	s1,24(s0)
    6cb0:	157d                	addi	a0,a0,-1
    6cb2:	c048                	sw	a0,4(s0)
    6cb4:	409c                	lw	a5,0(s1)
    6cb6:	8526                	mv	a0,s1
    6cb8:	cc1c                	sw	a5,24(s0)
    6cba:	d9afe0ef          	jal	5254 <_Z12virt_to_pagej>
    6cbe:	c900                	sw	s0,16(a0)
    6cc0:	b74d                	j	6c62 <_Z16kmem_cache_allocP10kmem_cachej+0xe>

00006cc2 <_Z12kmalloc_initv>:
    6cc2:	7139                	addi	sp,sp,-64
    6cc4:	dc22                	sw	s0,56(sp)
    6cc6:	10007437          	lui	s0,0x10007
    6cca:	da26                	sw	s1,52(sp)
    6ccc:	d84a                	sw	s2,48(sp)
    6cce:	d64e                	sw	s3,44(sp)
    6cd0:	d452                	sw	s4,40(sp)
    6cd2:	d256                	sw	s5,36(sp)
    6cd4:	d05a                	sw	s6,32(sp)
    6cd6:	ce5e                	sw	s7,28(sp)
    6cd8:	de06                	sw	ra,60(sp)
    6cda:	0d840413          	addi	s0,s0,216 # 100070d8 <kmalloc_cache>
    6cde:	44c1                	li	s1,16
    6ce0:	10001bb7          	lui	s7,0x10001
    6ce4:	10001b37          	lui	s6,0x10001
    6ce8:	10000ab7          	lui	s5,0x10000
    6cec:	10001a37          	lui	s4,0x10001
    6cf0:	100009b7          	lui	s3,0x10000
    6cf4:	11000913          	li	s2,272
    6cf8:	4601                	li	a2,0
    6cfa:	85a6                	mv	a1,s1
    6cfc:	8522                	mv	a0,s0
    6cfe:	3565                	jal	6ba6 <_Z17kmem_cache_createP10kmem_cachejj>
    6d00:	c939                	beqz	a0,6d56 <_Z12kmalloc_initv+0x94>
    6d02:	09300693          	li	a3,147
    6d06:	618b8613          	addi	a2,s7,1560 # 10001618 <__rodata_start__+0xfff7fd8>
    6d0a:	628b0593          	addi	a1,s6,1576 # 10001628 <__rodata_start__+0xfff7fe8>
    6d0e:	014a8513          	addi	a0,s5,20 # 10000014 <__rodata_start__+0xfff69d4>
    6d12:	d1dff0ef          	jal	6a2e <_Z7printf_PKcz>
    6d16:	440c                	lw	a1,8(s0)
    6d18:	4808                	lw	a0,16(s0)
    6d1a:	04c1                	addi	s1,s1,16
    6d1c:	c62e                	sw	a1,12(sp)
    6d1e:	f08fe0ef          	jal	5426 <_Z12page_addressP4page>
    6d22:	4014                	lw	a3,0(s0)
    6d24:	45b2                	lw	a1,12(sp)
    6d26:	862a                	mv	a2,a0
    6d28:	65ca0513          	addi	a0,s4,1628 # 1000165c <__rodata_start__+0xfff801c>
    6d2c:	d03ff0ef          	jal	6a2e <_Z7printf_PKcz>
    6d30:	03098513          	addi	a0,s3,48 # 10000030 <__rodata_start__+0xfff69f0>
    6d34:	cfbff0ef          	jal	6a2e <_Z7printf_PKcz>
    6d38:	0471                	addi	s0,s0,28
    6d3a:	fb249fe3          	bne	s1,s2,6cf8 <_Z12kmalloc_initv+0x36>
    6d3e:	4501                	li	a0,0
    6d40:	50f2                	lw	ra,60(sp)
    6d42:	5462                	lw	s0,56(sp)
    6d44:	54d2                	lw	s1,52(sp)
    6d46:	5942                	lw	s2,48(sp)
    6d48:	59b2                	lw	s3,44(sp)
    6d4a:	5a22                	lw	s4,40(sp)
    6d4c:	5a92                	lw	s5,36(sp)
    6d4e:	5b02                	lw	s6,32(sp)
    6d50:	4bf2                	lw	s7,28(sp)
    6d52:	6121                	addi	sp,sp,64
    6d54:	8082                	ret
    6d56:	557d                	li	a0,-1
    6d58:	b7e5                	j	6d40 <_Z12kmalloc_initv+0x7e>

00006d5a <_Z7kmallocj>:
    6d5a:	1101                	addi	sp,sp,-32
    6d5c:	c84a                	sw	s2,16(sp)
    6d5e:	47f1                	li	a5,28
    6d60:	00455913          	srli	s2,a0,0x4
    6d64:	02f907b3          	mul	a5,s2,a5
    6d68:	cc22                	sw	s0,24(sp)
    6d6a:	10007437          	lui	s0,0x10007
    6d6e:	0d840413          	addi	s0,s0,216 # 100070d8 <kmalloc_cache>
    6d72:	4581                	li	a1,0
    6d74:	ca26                	sw	s1,20(sp)
    6d76:	ce06                	sw	ra,28(sp)
    6d78:	c64e                	sw	s3,12(sp)
    6d7a:	c452                	sw	s4,8(sp)
    6d7c:	c256                	sw	s5,4(sp)
    6d7e:	943e                	add	s0,s0,a5
    6d80:	8522                	mv	a0,s0
    6d82:	3dc9                	jal	6c54 <_Z16kmem_cache_allocP10kmem_cachej>
    6d84:	47bd                	li	a5,15
    6d86:	4481                	li	s1,0
    6d88:	0927ea63          	bltu	a5,s2,6e1c <_Z7kmallocj+0xc2>
    6d8c:	10001ab7          	lui	s5,0x10001
    6d90:	10001a37          	lui	s4,0x10001
    6d94:	100009b7          	lui	s3,0x10000
    6d98:	0a100693          	li	a3,161
    6d9c:	680a8613          	addi	a2,s5,1664 # 10001680 <__rodata_start__+0xfff8040>
    6da0:	84aa                	mv	s1,a0
    6da2:	628a0593          	addi	a1,s4,1576 # 10001628 <__rodata_start__+0xfff7fe8>
    6da6:	01498513          	addi	a0,s3,20 # 10000014 <__rodata_start__+0xfff69d4>
    6daa:	c85ff0ef          	jal	6a2e <_Z7printf_PKcz>
    6dae:	440c                	lw	a1,8(s0)
    6db0:	10001537          	lui	a0,0x10001
    6db4:	68850513          	addi	a0,a0,1672 # 10001688 <__rodata_start__+0xfff8048>
    6db8:	c77ff0ef          	jal	6a2e <_Z7printf_PKcz>
    6dbc:	10000937          	lui	s2,0x10000
    6dc0:	03090513          	addi	a0,s2,48 # 10000030 <__rodata_start__+0xfff69f0>
    6dc4:	c6bff0ef          	jal	6a2e <_Z7printf_PKcz>
    6dc8:	0a200693          	li	a3,162
    6dcc:	680a8613          	addi	a2,s5,1664
    6dd0:	628a0593          	addi	a1,s4,1576
    6dd4:	01498513          	addi	a0,s3,20
    6dd8:	c57ff0ef          	jal	6a2e <_Z7printf_PKcz>
    6ddc:	400c                	lw	a1,0(s0)
    6dde:	10001537          	lui	a0,0x10001
    6de2:	69850513          	addi	a0,a0,1688 # 10001698 <__rodata_start__+0xfff8058>
    6de6:	c49ff0ef          	jal	6a2e <_Z7printf_PKcz>
    6dea:	03090513          	addi	a0,s2,48
    6dee:	c41ff0ef          	jal	6a2e <_Z7printf_PKcz>
    6df2:	0a300693          	li	a3,163
    6df6:	680a8613          	addi	a2,s5,1664
    6dfa:	628a0593          	addi	a1,s4,1576
    6dfe:	01498513          	addi	a0,s3,20
    6e02:	c2dff0ef          	jal	6a2e <_Z7printf_PKcz>
    6e06:	10001537          	lui	a0,0x10001
    6e0a:	85a6                	mv	a1,s1
    6e0c:	6a850513          	addi	a0,a0,1704 # 100016a8 <__rodata_start__+0xfff8068>
    6e10:	c1fff0ef          	jal	6a2e <_Z7printf_PKcz>
    6e14:	03090513          	addi	a0,s2,48
    6e18:	c17ff0ef          	jal	6a2e <_Z7printf_PKcz>
    6e1c:	40f2                	lw	ra,28(sp)
    6e1e:	4462                	lw	s0,24(sp)
    6e20:	4942                	lw	s2,16(sp)
    6e22:	49b2                	lw	s3,12(sp)
    6e24:	4a22                	lw	s4,8(sp)
    6e26:	4a92                	lw	s5,4(sp)
    6e28:	8526                	mv	a0,s1
    6e2a:	44d2                	lw	s1,20(sp)
    6e2c:	6105                	addi	sp,sp,32
    6e2e:	8082                	ret

00006e30 <_Z5kfreePv>:
    6e30:	1101                	addi	sp,sp,-32
    6e32:	ce06                	sw	ra,28(sp)
    6e34:	c62a                	sw	a0,12(sp)
    6e36:	c1efe0ef          	jal	5254 <_Z12virt_to_pagej>
    6e3a:	45b2                	lw	a1,12(sp)
    6e3c:	40f2                	lw	ra,28(sp)
    6e3e:	4908                	lw	a0,16(a0)
    6e40:	6105                	addi	sp,sp,32
    6e42:	b511                	j	6c46 <_Z15kmem_cache_freeP10kmem_cachePv>

00006e44 <_Z9uart_putci>:
    6e44:	200007b7          	lui	a5,0x20000
    6e48:	c3c8                	sw	a0,4(a5)
    6e4a:	8082                	ret

00006e4c <_Z9uart_putsPc>:
    6e4c:	200007b7          	lui	a5,0x20000
    6e50:	0791                	addi	a5,a5,4 # 20000004 <linker_stack_start+0xffd0014>
    6e52:	00054703          	lbu	a4,0(a0)
    6e56:	e311                	bnez	a4,6e5a <_Z9uart_putsPc+0xe>
    6e58:	8082                	ret
    6e5a:	0505                	addi	a0,a0,1
    6e5c:	c398                	sw	a4,0(a5)
    6e5e:	bfd5                	j	6e52 <_Z9uart_putsPc+0x6>

00006e60 <__udivdi3>:
    6e60:	8832                	mv	a6,a2
    6e62:	88aa                	mv	a7,a0
    6e64:	872e                	mv	a4,a1
    6e66:	ead5                	bnez	a3,6f1a <__udivdi3+0xba>
    6e68:	0ec5ff63          	bgeu	a1,a2,6f66 <__udivdi3+0x106>
    6e6c:	67c1                	lui	a5,0x10
    6e6e:	18f66c63          	bltu	a2,a5,7006 <__udivdi3+0x1a6>
    6e72:	010007b7          	lui	a5,0x1000
    6e76:	46e1                	li	a3,24
    6e78:	00f67363          	bgeu	a2,a5,6e7e <__udivdi3+0x1e>
    6e7c:	46c1                	li	a3,16
    6e7e:	00d65333          	srl	t1,a2,a3
    6e82:	10000797          	auipc	a5,0x10000
    6e86:	fa27a783          	lw	a5,-94(a5) # 10006e24 <_GLOBAL_OFFSET_TABLE_+0x4>
    6e8a:	979a                	add	a5,a5,t1
    6e8c:	0007c783          	lbu	a5,0(a5)
    6e90:	02000313          	li	t1,32
    6e94:	97b6                	add	a5,a5,a3
    6e96:	40f306b3          	sub	a3,t1,a5
    6e9a:	00f30b63          	beq	t1,a5,6eb0 <__udivdi3+0x50>
    6e9e:	00d59733          	sll	a4,a1,a3
    6ea2:	00f557b3          	srl	a5,a0,a5
    6ea6:	8f5d                	or	a4,a4,a5
    6ea8:	00d61833          	sll	a6,a2,a3
    6eac:	00d518b3          	sll	a7,a0,a3
    6eb0:	01085613          	srli	a2,a6,0x10
    6eb4:	02c75533          	divu	a0,a4,a2
    6eb8:	01081693          	slli	a3,a6,0x10
    6ebc:	82c1                	srli	a3,a3,0x10
    6ebe:	0108d793          	srli	a5,a7,0x10
    6ec2:	02c77733          	remu	a4,a4,a2
    6ec6:	02a685b3          	mul	a1,a3,a0
    6eca:	0742                	slli	a4,a4,0x10
    6ecc:	8fd9                	or	a5,a5,a4
    6ece:	00b7fa63          	bgeu	a5,a1,6ee2 <__udivdi3+0x82>
    6ed2:	97c2                	add	a5,a5,a6
    6ed4:	fff50713          	addi	a4,a0,-1
    6ed8:	0107e463          	bltu	a5,a6,6ee0 <__udivdi3+0x80>
    6edc:	30b7ee63          	bltu	a5,a1,71f8 <__udivdi3+0x398>
    6ee0:	853a                	mv	a0,a4
    6ee2:	8f8d                	sub	a5,a5,a1
    6ee4:	02c7d733          	divu	a4,a5,a2
    6ee8:	08c2                	slli	a7,a7,0x10
    6eea:	0108d893          	srli	a7,a7,0x10
    6eee:	02c7f7b3          	remu	a5,a5,a2
    6ef2:	02e686b3          	mul	a3,a3,a4
    6ef6:	07c2                	slli	a5,a5,0x10
    6ef8:	00f8e8b3          	or	a7,a7,a5
    6efc:	00d8fb63          	bgeu	a7,a3,6f12 <__udivdi3+0xb2>
    6f00:	98c2                	add	a7,a7,a6
    6f02:	fff70793          	addi	a5,a4,-1 # fff <_Z24minimum_matmul_multi_8x8PaS_S_+0x13d>
    6f06:	0108e563          	bltu	a7,a6,6f10 <__udivdi3+0xb0>
    6f0a:	1779                	addi	a4,a4,-2
    6f0c:	00d8e363          	bltu	a7,a3,6f12 <__udivdi3+0xb2>
    6f10:	873e                	mv	a4,a5
    6f12:	0542                	slli	a0,a0,0x10
    6f14:	8d59                	or	a0,a0,a4
    6f16:	4581                	li	a1,0
    6f18:	8082                	ret
    6f1a:	00d5f563          	bgeu	a1,a3,6f24 <__udivdi3+0xc4>
    6f1e:	4581                	li	a1,0
    6f20:	4501                	li	a0,0
    6f22:	8082                	ret
    6f24:	67c1                	lui	a5,0x10
    6f26:	18f6e863          	bltu	a3,a5,70b6 <__udivdi3+0x256>
    6f2a:	01000737          	lui	a4,0x1000
    6f2e:	47e1                	li	a5,24
    6f30:	00e6f363          	bgeu	a3,a4,6f36 <__udivdi3+0xd6>
    6f34:	47c1                	li	a5,16
    6f36:	00f6d833          	srl	a6,a3,a5
    6f3a:	10000717          	auipc	a4,0x10000
    6f3e:	eea72703          	lw	a4,-278(a4) # 10006e24 <_GLOBAL_OFFSET_TABLE_+0x4>
    6f42:	9742                	add	a4,a4,a6
    6f44:	00074703          	lbu	a4,0(a4)
    6f48:	02000813          	li	a6,32
    6f4c:	973e                	add	a4,a4,a5
    6f4e:	40e808b3          	sub	a7,a6,a4
    6f52:	18e81763          	bne	a6,a4,70e0 <__udivdi3+0x280>
    6f56:	28b6e363          	bltu	a3,a1,71dc <__udivdi3+0x37c>
    6f5a:	00c53533          	sltu	a0,a0,a2
    6f5e:	00153513          	seqz	a0,a0
    6f62:	4581                	li	a1,0
    6f64:	8082                	ret
    6f66:	c655                	beqz	a2,7012 <__udivdi3+0x1b2>
    6f68:	67c1                	lui	a5,0x10
    6f6a:	26f67163          	bgeu	a2,a5,71cc <__udivdi3+0x36c>
    6f6e:	10063713          	sltiu	a4,a2,256
    6f72:	00173713          	seqz	a4,a4
    6f76:	070e                	slli	a4,a4,0x3
    6f78:	00e656b3          	srl	a3,a2,a4
    6f7c:	10000797          	auipc	a5,0x10000
    6f80:	ea87a783          	lw	a5,-344(a5) # 10006e24 <_GLOBAL_OFFSET_TABLE_+0x4>
    6f84:	97b6                	add	a5,a5,a3
    6f86:	0007c783          	lbu	a5,0(a5)
    6f8a:	02000693          	li	a3,32
    6f8e:	97ba                	add	a5,a5,a4
    6f90:	40f68eb3          	sub	t4,a3,a5
    6f94:	08f69f63          	bne	a3,a5,7032 <__udivdi3+0x1d2>
    6f98:	40c587b3          	sub	a5,a1,a2
    6f9c:	01065693          	srli	a3,a2,0x10
    6fa0:	0642                	slli	a2,a2,0x10
    6fa2:	8241                	srli	a2,a2,0x10
    6fa4:	4585                	li	a1,1
    6fa6:	02d7d533          	divu	a0,a5,a3
    6faa:	0108d713          	srli	a4,a7,0x10
    6fae:	02d7f7b3          	remu	a5,a5,a3
    6fb2:	02c50333          	mul	t1,a0,a2
    6fb6:	07c2                	slli	a5,a5,0x10
    6fb8:	8fd9                	or	a5,a5,a4
    6fba:	0067fa63          	bgeu	a5,t1,6fce <__udivdi3+0x16e>
    6fbe:	97c2                	add	a5,a5,a6
    6fc0:	fff50713          	addi	a4,a0,-1
    6fc4:	0107e463          	bltu	a5,a6,6fcc <__udivdi3+0x16c>
    6fc8:	2267e563          	bltu	a5,t1,71f2 <__udivdi3+0x392>
    6fcc:	853a                	mv	a0,a4
    6fce:	406787b3          	sub	a5,a5,t1
    6fd2:	02d7d733          	divu	a4,a5,a3
    6fd6:	08c2                	slli	a7,a7,0x10
    6fd8:	0108d893          	srli	a7,a7,0x10
    6fdc:	02d7f7b3          	remu	a5,a5,a3
    6fe0:	02c70633          	mul	a2,a4,a2
    6fe4:	07c2                	slli	a5,a5,0x10
    6fe6:	00f8e8b3          	or	a7,a7,a5
    6fea:	00c8fb63          	bgeu	a7,a2,7000 <__udivdi3+0x1a0>
    6fee:	98c2                	add	a7,a7,a6
    6ff0:	fff70793          	addi	a5,a4,-1
    6ff4:	0108e563          	bltu	a7,a6,6ffe <__udivdi3+0x19e>
    6ff8:	1779                	addi	a4,a4,-2
    6ffa:	00c8e363          	bltu	a7,a2,7000 <__udivdi3+0x1a0>
    6ffe:	873e                	mv	a4,a5
    7000:	0542                	slli	a0,a0,0x10
    7002:	8d59                	or	a0,a0,a4
    7004:	8082                	ret
    7006:	10063693          	sltiu	a3,a2,256
    700a:	0016b693          	seqz	a3,a3
    700e:	068e                	slli	a3,a3,0x3
    7010:	b5bd                	j	6e7e <__udivdi3+0x1e>
    7012:	4681                	li	a3,0
    7014:	10000797          	auipc	a5,0x10000
    7018:	e107a783          	lw	a5,-496(a5) # 10006e24 <_GLOBAL_OFFSET_TABLE_+0x4>
    701c:	97b6                	add	a5,a5,a3
    701e:	0007c783          	lbu	a5,0(a5)
    7022:	4701                	li	a4,0
    7024:	02000693          	li	a3,32
    7028:	97ba                	add	a5,a5,a4
    702a:	40f68eb3          	sub	t4,a3,a5
    702e:	f6f685e3          	beq	a3,a5,6f98 <__udivdi3+0x138>
    7032:	01d61833          	sll	a6,a2,t4
    7036:	00f5d333          	srl	t1,a1,a5
    703a:	01085693          	srli	a3,a6,0x10
    703e:	02d35e33          	divu	t3,t1,a3
    7042:	01081613          	slli	a2,a6,0x10
    7046:	01d595b3          	sll	a1,a1,t4
    704a:	8241                	srli	a2,a2,0x10
    704c:	00f557b3          	srl	a5,a0,a5
    7050:	8fcd                	or	a5,a5,a1
    7052:	0107d713          	srli	a4,a5,0x10
    7056:	01d518b3          	sll	a7,a0,t4
    705a:	02d37333          	remu	t1,t1,a3
    705e:	03c605b3          	mul	a1,a2,t3
    7062:	0342                	slli	t1,t1,0x10
    7064:	00676733          	or	a4,a4,t1
    7068:	00b77b63          	bgeu	a4,a1,707e <__udivdi3+0x21e>
    706c:	9742                	add	a4,a4,a6
    706e:	fffe0513          	addi	a0,t3,-1
    7072:	17076c63          	bltu	a4,a6,71ea <__udivdi3+0x38a>
    7076:	16b77a63          	bgeu	a4,a1,71ea <__udivdi3+0x38a>
    707a:	1e79                	addi	t3,t3,-2
    707c:	9742                	add	a4,a4,a6
    707e:	8f0d                	sub	a4,a4,a1
    7080:	02d75533          	divu	a0,a4,a3
    7084:	07c2                	slli	a5,a5,0x10
    7086:	83c1                	srli	a5,a5,0x10
    7088:	02d77733          	remu	a4,a4,a3
    708c:	02a60333          	mul	t1,a2,a0
    7090:	0742                	slli	a4,a4,0x10
    7092:	8fd9                	or	a5,a5,a4
    7094:	0067fb63          	bgeu	a5,t1,70aa <__udivdi3+0x24a>
    7098:	97c2                	add	a5,a5,a6
    709a:	fff50713          	addi	a4,a0,-1
    709e:	1507e263          	bltu	a5,a6,71e2 <__udivdi3+0x382>
    70a2:	1467f063          	bgeu	a5,t1,71e2 <__udivdi3+0x382>
    70a6:	1579                	addi	a0,a0,-2
    70a8:	97c2                	add	a5,a5,a6
    70aa:	010e1593          	slli	a1,t3,0x10
    70ae:	8dc9                	or	a1,a1,a0
    70b0:	406787b3          	sub	a5,a5,t1
    70b4:	bdcd                	j	6fa6 <__udivdi3+0x146>
    70b6:	1006b793          	sltiu	a5,a3,256
    70ba:	0017b793          	seqz	a5,a5
    70be:	078e                	slli	a5,a5,0x3
    70c0:	00f6d833          	srl	a6,a3,a5
    70c4:	10000717          	auipc	a4,0x10000
    70c8:	d6072703          	lw	a4,-672(a4) # 10006e24 <_GLOBAL_OFFSET_TABLE_+0x4>
    70cc:	9742                	add	a4,a4,a6
    70ce:	00074703          	lbu	a4,0(a4)
    70d2:	02000813          	li	a6,32
    70d6:	973e                	add	a4,a4,a5
    70d8:	40e808b3          	sub	a7,a6,a4
    70dc:	e6e80de3          	beq	a6,a4,6f56 <__udivdi3+0xf6>
    70e0:	00e65e33          	srl	t3,a2,a4
    70e4:	011696b3          	sll	a3,a3,a7
    70e8:	00de6e33          	or	t3,t3,a3
    70ec:	00e5d833          	srl	a6,a1,a4
    70f0:	010e5e93          	srli	t4,t3,0x10
    70f4:	03d857b3          	divu	a5,a6,t4
    70f8:	010e1313          	slli	t1,t3,0x10
    70fc:	011595b3          	sll	a1,a1,a7
    7100:	01035313          	srli	t1,t1,0x10
    7104:	00e55733          	srl	a4,a0,a4
    7108:	8f4d                	or	a4,a4,a1
    710a:	01075693          	srli	a3,a4,0x10
    710e:	01161633          	sll	a2,a2,a7
    7112:	03d87833          	remu	a6,a6,t4
    7116:	02f305b3          	mul	a1,t1,a5
    711a:	0842                	slli	a6,a6,0x10
    711c:	0106e6b3          	or	a3,a3,a6
    7120:	00b6fb63          	bgeu	a3,a1,7136 <__udivdi3+0x2d6>
    7124:	96f2                	add	a3,a3,t3
    7126:	fff78813          	addi	a6,a5,-1
    712a:	0dc6e263          	bltu	a3,t3,71ee <__udivdi3+0x38e>
    712e:	0cb6f063          	bgeu	a3,a1,71ee <__udivdi3+0x38e>
    7132:	17f9                	addi	a5,a5,-2
    7134:	96f2                	add	a3,a3,t3
    7136:	8e8d                	sub	a3,a3,a1
    7138:	03d6d833          	divu	a6,a3,t4
    713c:	0742                	slli	a4,a4,0x10
    713e:	8341                	srli	a4,a4,0x10
    7140:	03d6f6b3          	remu	a3,a3,t4
    7144:	030305b3          	mul	a1,t1,a6
    7148:	06c2                	slli	a3,a3,0x10
    714a:	8f55                	or	a4,a4,a3
    714c:	00b77b63          	bgeu	a4,a1,7162 <__udivdi3+0x302>
    7150:	9772                	add	a4,a4,t3
    7152:	fff80693          	addi	a3,a6,-1
    7156:	09c76863          	bltu	a4,t3,71e6 <__udivdi3+0x386>
    715a:	08b77663          	bgeu	a4,a1,71e6 <__udivdi3+0x386>
    715e:	1879                	addi	a6,a6,-2
    7160:	9772                	add	a4,a4,t3
    7162:	07c2                	slli	a5,a5,0x10
    7164:	01081693          	slli	a3,a6,0x10
    7168:	01061313          	slli	t1,a2,0x10
    716c:	0107e7b3          	or	a5,a5,a6
    7170:	82c1                	srli	a3,a3,0x10
    7172:	01035313          	srli	t1,t1,0x10
    7176:	0107d813          	srli	a6,a5,0x10
    717a:	8241                	srli	a2,a2,0x10
    717c:	02680e33          	mul	t3,a6,t1
    7180:	8f0d                	sub	a4,a4,a1
    7182:	02668333          	mul	t1,a3,t1
    7186:	02c686b3          	mul	a3,a3,a2
    718a:	01035593          	srli	a1,t1,0x10
    718e:	96f2                	add	a3,a3,t3
    7190:	96ae                	add	a3,a3,a1
    7192:	02c80833          	mul	a6,a6,a2
    7196:	01c6f463          	bgeu	a3,t3,719e <__udivdi3+0x33e>
    719a:	6641                	lui	a2,0x10
    719c:	9832                	add	a6,a6,a2
    719e:	0106d613          	srli	a2,a3,0x10
    71a2:	9642                	add	a2,a2,a6
    71a4:	02c76063          	bltu	a4,a2,71c4 <__udivdi3+0x364>
    71a8:	00c70563          	beq	a4,a2,71b2 <__udivdi3+0x352>
    71ac:	853e                	mv	a0,a5
    71ae:	4581                	li	a1,0
    71b0:	8082                	ret
    71b2:	0342                	slli	t1,t1,0x10
    71b4:	01035313          	srli	t1,t1,0x10
    71b8:	06c2                	slli	a3,a3,0x10
    71ba:	01151533          	sll	a0,a0,a7
    71be:	969a                	add	a3,a3,t1
    71c0:	fed576e3          	bgeu	a0,a3,71ac <__udivdi3+0x34c>
    71c4:	fff78513          	addi	a0,a5,-1
    71c8:	4581                	li	a1,0
    71ca:	8082                	ret
    71cc:	010007b7          	lui	a5,0x1000
    71d0:	02f67763          	bgeu	a2,a5,71fe <__udivdi3+0x39e>
    71d4:	01065693          	srli	a3,a2,0x10
    71d8:	4741                	li	a4,16
    71da:	b34d                	j	6f7c <__udivdi3+0x11c>
    71dc:	4581                	li	a1,0
    71de:	4505                	li	a0,1
    71e0:	8082                	ret
    71e2:	853a                	mv	a0,a4
    71e4:	b5d9                	j	70aa <__udivdi3+0x24a>
    71e6:	8836                	mv	a6,a3
    71e8:	bfad                	j	7162 <__udivdi3+0x302>
    71ea:	8e2a                	mv	t3,a0
    71ec:	bd49                	j	707e <__udivdi3+0x21e>
    71ee:	87c2                	mv	a5,a6
    71f0:	b799                	j	7136 <__udivdi3+0x2d6>
    71f2:	1579                	addi	a0,a0,-2
    71f4:	97c2                	add	a5,a5,a6
    71f6:	bbe1                	j	6fce <__udivdi3+0x16e>
    71f8:	1579                	addi	a0,a0,-2
    71fa:	97c2                	add	a5,a5,a6
    71fc:	b1dd                	j	6ee2 <__udivdi3+0x82>
    71fe:	01865693          	srli	a3,a2,0x18
    7202:	4761                	li	a4,24
    7204:	bba5                	j	6f7c <__udivdi3+0x11c>

00007206 <__umoddi3>:
    7206:	8832                	mv	a6,a2
    7208:	88aa                	mv	a7,a0
    720a:	87ae                	mv	a5,a1
    720c:	872e                	mv	a4,a1
    720e:	e6cd                	bnez	a3,72b8 <__umoddi3+0xb2>
    7210:	0ec5ff63          	bgeu	a1,a2,730e <__umoddi3+0x108>
    7214:	67c1                	lui	a5,0x10
    7216:	18f66263          	bltu	a2,a5,739a <__umoddi3+0x194>
    721a:	010007b7          	lui	a5,0x1000
    721e:	46e1                	li	a3,24
    7220:	00f67363          	bgeu	a2,a5,7226 <__umoddi3+0x20>
    7224:	46c1                	li	a3,16
    7226:	00d65333          	srl	t1,a2,a3
    722a:	10000797          	auipc	a5,0x10000
    722e:	bfa7a783          	lw	a5,-1030(a5) # 10006e24 <_GLOBAL_OFFSET_TABLE_+0x4>
    7232:	979a                	add	a5,a5,t1
    7234:	0007c783          	lbu	a5,0(a5)
    7238:	02000313          	li	t1,32
    723c:	97b6                	add	a5,a5,a3
    723e:	40f306b3          	sub	a3,t1,a5
    7242:	00f30b63          	beq	t1,a5,7258 <__umoddi3+0x52>
    7246:	00d59733          	sll	a4,a1,a3
    724a:	00f557b3          	srl	a5,a0,a5
    724e:	8f5d                	or	a4,a4,a5
    7250:	00d61833          	sll	a6,a2,a3
    7254:	00d518b3          	sll	a7,a0,a3
    7258:	01085593          	srli	a1,a6,0x10
    725c:	02b75633          	divu	a2,a4,a1
    7260:	01081313          	slli	t1,a6,0x10
    7264:	01035313          	srli	t1,t1,0x10
    7268:	0108d793          	srli	a5,a7,0x10
    726c:	02b77733          	remu	a4,a4,a1
    7270:	02660633          	mul	a2,a2,t1
    7274:	0742                	slli	a4,a4,0x10
    7276:	8fd9                	or	a5,a5,a4
    7278:	00c7f763          	bgeu	a5,a2,7286 <__umoddi3+0x80>
    727c:	97c2                	add	a5,a5,a6
    727e:	0107e463          	bltu	a5,a6,7286 <__umoddi3+0x80>
    7282:	30c7e363          	bltu	a5,a2,7588 <__umoddi3+0x382>
    7286:	8f91                	sub	a5,a5,a2
    7288:	02b7d733          	divu	a4,a5,a1
    728c:	01089513          	slli	a0,a7,0x10
    7290:	8141                	srli	a0,a0,0x10
    7292:	02b7f7b3          	remu	a5,a5,a1
    7296:	02670733          	mul	a4,a4,t1
    729a:	07c2                	slli	a5,a5,0x10
    729c:	8d5d                	or	a0,a0,a5
    729e:	00e57863          	bgeu	a0,a4,72ae <__umoddi3+0xa8>
    72a2:	9542                	add	a0,a0,a6
    72a4:	01056563          	bltu	a0,a6,72ae <__umoddi3+0xa8>
    72a8:	00e57363          	bgeu	a0,a4,72ae <__umoddi3+0xa8>
    72ac:	9542                	add	a0,a0,a6
    72ae:	8d19                	sub	a0,a0,a4
    72b0:	00d55533          	srl	a0,a0,a3
    72b4:	4581                	li	a1,0
    72b6:	8082                	ret
    72b8:	00d5f363          	bgeu	a1,a3,72be <__umoddi3+0xb8>
    72bc:	8082                	ret
    72be:	6741                	lui	a4,0x10
    72c0:	16e6eb63          	bltu	a3,a4,7436 <__umoddi3+0x230>
    72c4:	01000737          	lui	a4,0x1000
    72c8:	4861                	li	a6,24
    72ca:	00e6f363          	bgeu	a3,a4,72d0 <__umoddi3+0xca>
    72ce:	4841                	li	a6,16
    72d0:	0106d333          	srl	t1,a3,a6
    72d4:	10000717          	auipc	a4,0x10000
    72d8:	b5072703          	lw	a4,-1200(a4) # 10006e24 <_GLOBAL_OFFSET_TABLE_+0x4>
    72dc:	971a                	add	a4,a4,t1
    72de:	00074703          	lbu	a4,0(a4)
    72e2:	02000313          	li	t1,32
    72e6:	9742                	add	a4,a4,a6
    72e8:	40e30833          	sub	a6,t1,a4
    72ec:	16e31a63          	bne	t1,a4,7460 <__umoddi3+0x25a>
    72f0:	00b6e463          	bltu	a3,a1,72f8 <__umoddi3+0xf2>
    72f4:	00c56a63          	bltu	a0,a2,7308 <__umoddi3+0x102>
    72f8:	40c508b3          	sub	a7,a0,a2
    72fc:	011537b3          	sltu	a5,a0,a7
    7300:	40d586b3          	sub	a3,a1,a3
    7304:	40f687b3          	sub	a5,a3,a5
    7308:	8546                	mv	a0,a7
    730a:	85be                	mv	a1,a5
    730c:	8082                	ret
    730e:	ce41                	beqz	a2,73a6 <__umoddi3+0x1a0>
    7310:	67c1                	lui	a5,0x10
    7312:	24f67f63          	bgeu	a2,a5,7570 <__umoddi3+0x36a>
    7316:	10063713          	sltiu	a4,a2,256
    731a:	00173713          	seqz	a4,a4
    731e:	070e                	slli	a4,a4,0x3
    7320:	00e656b3          	srl	a3,a2,a4
    7324:	10000797          	auipc	a5,0x10000
    7328:	b007a783          	lw	a5,-1280(a5) # 10006e24 <_GLOBAL_OFFSET_TABLE_+0x4>
    732c:	97b6                	add	a5,a5,a3
    732e:	0007c783          	lbu	a5,0(a5)
    7332:	02000313          	li	t1,32
    7336:	97ba                	add	a5,a5,a4
    7338:	40f306b3          	sub	a3,t1,a5
    733c:	08f31563          	bne	t1,a5,73c6 <__umoddi3+0x1c0>
    7340:	40c58733          	sub	a4,a1,a2
    7344:	01065313          	srli	t1,a2,0x10
    7348:	0642                	slli	a2,a2,0x10
    734a:	8241                	srli	a2,a2,0x10
    734c:	026755b3          	divu	a1,a4,t1
    7350:	0108d793          	srli	a5,a7,0x10
    7354:	02677733          	remu	a4,a4,t1
    7358:	02c585b3          	mul	a1,a1,a2
    735c:	0742                	slli	a4,a4,0x10
    735e:	8fd9                	or	a5,a5,a4
    7360:	00b7f863          	bgeu	a5,a1,7370 <__umoddi3+0x16a>
    7364:	97c2                	add	a5,a5,a6
    7366:	0107e563          	bltu	a5,a6,7370 <__umoddi3+0x16a>
    736a:	00b7f363          	bgeu	a5,a1,7370 <__umoddi3+0x16a>
    736e:	97c2                	add	a5,a5,a6
    7370:	8f8d                	sub	a5,a5,a1
    7372:	0267d733          	divu	a4,a5,t1
    7376:	08c2                	slli	a7,a7,0x10
    7378:	0108d893          	srli	a7,a7,0x10
    737c:	0267f7b3          	remu	a5,a5,t1
    7380:	02c70733          	mul	a4,a4,a2
    7384:	01079513          	slli	a0,a5,0x10
    7388:	00a8e533          	or	a0,a7,a0
    738c:	f0e56be3          	bltu	a0,a4,72a2 <__umoddi3+0x9c>
    7390:	8d19                	sub	a0,a0,a4
    7392:	00d55533          	srl	a0,a0,a3
    7396:	4581                	li	a1,0
    7398:	8082                	ret
    739a:	10063693          	sltiu	a3,a2,256
    739e:	0016b693          	seqz	a3,a3
    73a2:	068e                	slli	a3,a3,0x3
    73a4:	b549                	j	7226 <__umoddi3+0x20>
    73a6:	4681                	li	a3,0
    73a8:	10000797          	auipc	a5,0x10000
    73ac:	a7c7a783          	lw	a5,-1412(a5) # 10006e24 <_GLOBAL_OFFSET_TABLE_+0x4>
    73b0:	97b6                	add	a5,a5,a3
    73b2:	0007c783          	lbu	a5,0(a5)
    73b6:	4701                	li	a4,0
    73b8:	02000313          	li	t1,32
    73bc:	97ba                	add	a5,a5,a4
    73be:	40f306b3          	sub	a3,t1,a5
    73c2:	f6f30fe3          	beq	t1,a5,7340 <__umoddi3+0x13a>
    73c6:	00d61833          	sll	a6,a2,a3
    73ca:	00f5de33          	srl	t3,a1,a5
    73ce:	01085313          	srli	t1,a6,0x10
    73d2:	026e5eb3          	divu	t4,t3,t1
    73d6:	01081613          	slli	a2,a6,0x10
    73da:	00d595b3          	sll	a1,a1,a3
    73de:	00f55733          	srl	a4,a0,a5
    73e2:	8241                	srli	a2,a2,0x10
    73e4:	8f4d                	or	a4,a4,a1
    73e6:	01075793          	srli	a5,a4,0x10
    73ea:	00d518b3          	sll	a7,a0,a3
    73ee:	026e7e33          	remu	t3,t3,t1
    73f2:	02ce85b3          	mul	a1,t4,a2
    73f6:	0e42                	slli	t3,t3,0x10
    73f8:	01c7e7b3          	or	a5,a5,t3
    73fc:	00b7f863          	bgeu	a5,a1,740c <__umoddi3+0x206>
    7400:	97c2                	add	a5,a5,a6
    7402:	0107e563          	bltu	a5,a6,740c <__umoddi3+0x206>
    7406:	00b7f363          	bgeu	a5,a1,740c <__umoddi3+0x206>
    740a:	97c2                	add	a5,a5,a6
    740c:	8f8d                	sub	a5,a5,a1
    740e:	0267d5b3          	divu	a1,a5,t1
    7412:	0742                	slli	a4,a4,0x10
    7414:	8341                	srli	a4,a4,0x10
    7416:	0267f7b3          	remu	a5,a5,t1
    741a:	02c585b3          	mul	a1,a1,a2
    741e:	07c2                	slli	a5,a5,0x10
    7420:	8f5d                	or	a4,a4,a5
    7422:	00b77863          	bgeu	a4,a1,7432 <__umoddi3+0x22c>
    7426:	9742                	add	a4,a4,a6
    7428:	01076563          	bltu	a4,a6,7432 <__umoddi3+0x22c>
    742c:	00b77363          	bgeu	a4,a1,7432 <__umoddi3+0x22c>
    7430:	9742                	add	a4,a4,a6
    7432:	8f0d                	sub	a4,a4,a1
    7434:	bf21                	j	734c <__umoddi3+0x146>
    7436:	1006b813          	sltiu	a6,a3,256
    743a:	00183813          	seqz	a6,a6
    743e:	080e                	slli	a6,a6,0x3
    7440:	0106d333          	srl	t1,a3,a6
    7444:	10000717          	auipc	a4,0x10000
    7448:	9e072703          	lw	a4,-1568(a4) # 10006e24 <_GLOBAL_OFFSET_TABLE_+0x4>
    744c:	971a                	add	a4,a4,t1
    744e:	00074703          	lbu	a4,0(a4)
    7452:	02000313          	li	t1,32
    7456:	9742                	add	a4,a4,a6
    7458:	40e30833          	sub	a6,t1,a4
    745c:	e8e30ae3          	beq	t1,a4,72f0 <__umoddi3+0xea>
    7460:	010696b3          	sll	a3,a3,a6
    7464:	00e658b3          	srl	a7,a2,a4
    7468:	00d8e8b3          	or	a7,a7,a3
    746c:	00e5d333          	srl	t1,a1,a4
    7470:	0108de13          	srli	t3,a7,0x10
    7474:	03c356b3          	divu	a3,t1,t3
    7478:	01089e93          	slli	t4,a7,0x10
    747c:	010ede93          	srli	t4,t4,0x10
    7480:	00e557b3          	srl	a5,a0,a4
    7484:	010595b3          	sll	a1,a1,a6
    7488:	8ddd                	or	a1,a1,a5
    748a:	0105d793          	srli	a5,a1,0x10
    748e:	01061633          	sll	a2,a2,a6
    7492:	01051533          	sll	a0,a0,a6
    7496:	03c37333          	remu	t1,t1,t3
    749a:	02de8f33          	mul	t5,t4,a3
    749e:	0342                	slli	t1,t1,0x10
    74a0:	0067e7b3          	or	a5,a5,t1
    74a4:	01e7fb63          	bgeu	a5,t5,74ba <__umoddi3+0x2b4>
    74a8:	97c6                	add	a5,a5,a7
    74aa:	fff68313          	addi	t1,a3,-1
    74ae:	0d17eb63          	bltu	a5,a7,7584 <__umoddi3+0x37e>
    74b2:	0de7f963          	bgeu	a5,t5,7584 <__umoddi3+0x37e>
    74b6:	16f9                	addi	a3,a3,-2
    74b8:	97c6                	add	a5,a5,a7
    74ba:	41e787b3          	sub	a5,a5,t5
    74be:	03c7df33          	divu	t5,a5,t3
    74c2:	05c2                	slli	a1,a1,0x10
    74c4:	81c1                	srli	a1,a1,0x10
    74c6:	03c7f7b3          	remu	a5,a5,t3
    74ca:	03ee8eb3          	mul	t4,t4,t5
    74ce:	07c2                	slli	a5,a5,0x10
    74d0:	8fcd                	or	a5,a5,a1
    74d2:	01d7fb63          	bgeu	a5,t4,74e8 <__umoddi3+0x2e2>
    74d6:	97c6                	add	a5,a5,a7
    74d8:	ffff0593          	addi	a1,t5,-1
    74dc:	0b17e263          	bltu	a5,a7,7580 <__umoddi3+0x37a>
    74e0:	0bd7f063          	bgeu	a5,t4,7580 <__umoddi3+0x37a>
    74e4:	1f79                	addi	t5,t5,-2
    74e6:	97c6                	add	a5,a5,a7
    74e8:	06c2                	slli	a3,a3,0x10
    74ea:	010f1e13          	slli	t3,t5,0x10
    74ee:	01e6e6b3          	or	a3,a3,t5
    74f2:	01061313          	slli	t1,a2,0x10
    74f6:	010e5e13          	srli	t3,t3,0x10
    74fa:	01035313          	srli	t1,t1,0x10
    74fe:	82c1                	srli	a3,a3,0x10
    7500:	01065f13          	srli	t5,a2,0x10
    7504:	02668fb3          	mul	t6,a3,t1
    7508:	41d785b3          	sub	a1,a5,t4
    750c:	026e0333          	mul	t1,t3,t1
    7510:	03ee0e33          	mul	t3,t3,t5
    7514:	01035793          	srli	a5,t1,0x10
    7518:	9e7e                	add	t3,t3,t6
    751a:	97f2                	add	a5,a5,t3
    751c:	03e686b3          	mul	a3,a3,t5
    7520:	01f7f463          	bgeu	a5,t6,7528 <__umoddi3+0x322>
    7524:	6e41                	lui	t3,0x10
    7526:	96f2                	add	a3,a3,t3
    7528:	0107de13          	srli	t3,a5,0x10
    752c:	0342                	slli	t1,t1,0x10
    752e:	01035313          	srli	t1,t1,0x10
    7532:	07c2                	slli	a5,a5,0x10
    7534:	96f2                	add	a3,a3,t3
    7536:	979a                	add	a5,a5,t1
    7538:	02d5e463          	bltu	a1,a3,7560 <__umoddi3+0x35a>
    753c:	02d58063          	beq	a1,a3,755c <__umoddi3+0x356>
    7540:	40f507b3          	sub	a5,a0,a5
    7544:	00f53533          	sltu	a0,a0,a5
    7548:	8d95                	sub	a1,a1,a3
    754a:	8d89                	sub	a1,a1,a0
    754c:	00e59733          	sll	a4,a1,a4
    7550:	0107d533          	srl	a0,a5,a6
    7554:	0105d5b3          	srl	a1,a1,a6
    7558:	8d59                	or	a0,a0,a4
    755a:	8082                	ret
    755c:	fef572e3          	bgeu	a0,a5,7540 <__umoddi3+0x33a>
    7560:	40c78633          	sub	a2,a5,a2
    7564:	00c7b7b3          	sltu	a5,a5,a2
    7568:	97c6                	add	a5,a5,a7
    756a:	8e9d                	sub	a3,a3,a5
    756c:	87b2                	mv	a5,a2
    756e:	bfc9                	j	7540 <__umoddi3+0x33a>
    7570:	010007b7          	lui	a5,0x1000
    7574:	00f67c63          	bgeu	a2,a5,758c <__umoddi3+0x386>
    7578:	01065693          	srli	a3,a2,0x10
    757c:	4741                	li	a4,16
    757e:	b35d                	j	7324 <__umoddi3+0x11e>
    7580:	8f2e                	mv	t5,a1
    7582:	b79d                	j	74e8 <__umoddi3+0x2e2>
    7584:	869a                	mv	a3,t1
    7586:	bf15                	j	74ba <__umoddi3+0x2b4>
    7588:	97c2                	add	a5,a5,a6
    758a:	b9f5                	j	7286 <__umoddi3+0x80>
    758c:	01865693          	srli	a3,a2,0x18
    7590:	4761                	li	a4,24
    7592:	bb49                	j	7324 <__umoddi3+0x11e>

00007594 <__adddf3>:
    7594:	00100337          	lui	t1,0x100
    7598:	1101                	addi	sp,sp,-32
    759a:	137d                	addi	t1,t1,-1 # fffff <__rodata_start__+0xf69bf>
    759c:	0146d713          	srli	a4,a3,0x14
    75a0:	00b377b3          	and	a5,t1,a1
    75a4:	00d37833          	and	a6,t1,a3
    75a8:	c256                	sw	s5,4(sp)
    75aa:	0145da93          	srli	s5,a1,0x14
    75ae:	078e                	slli	a5,a5,0x3
    75b0:	ca26                	sw	s1,20(sp)
    75b2:	c452                	sw	s4,8(sp)
    75b4:	7ffafa93          	andi	s5,s5,2047
    75b8:	01d55a13          	srli	s4,a0,0x1d
    75bc:	01f5d493          	srli	s1,a1,0x1f
    75c0:	080e                	slli	a6,a6,0x3
    75c2:	7ff77593          	andi	a1,a4,2047
    75c6:	ce06                	sw	ra,28(sp)
    75c8:	01d65713          	srli	a4,a2,0x1d
    75cc:	cc22                	sw	s0,24(sp)
    75ce:	c84a                	sw	s2,16(sp)
    75d0:	c64e                	sw	s3,12(sp)
    75d2:	82fd                	srli	a3,a3,0x1f
    75d4:	00fa6a33          	or	s4,s4,a5
    75d8:	88b2                	mv	a7,a2
    75da:	40ba87b3          	sub	a5,s5,a1
    75de:	01076733          	or	a4,a4,a6
    75e2:	00351e13          	slli	t3,a0,0x3
    75e6:	00361e93          	slli	t4,a2,0x3
    75ea:	0ed48963          	beq	s1,a3,76dc <__adddf3+0x148>
    75ee:	04f05563          	blez	a5,7638 <__adddf3+0xa4>
    75f2:	16059263          	bnez	a1,7756 <__adddf3+0x1c2>
    75f6:	01d766b3          	or	a3,a4,t4
    75fa:	30068163          	beqz	a3,78fc <__adddf3+0x368>
    75fe:	fff78693          	addi	a3,a5,-1 # ffffff <__rodata_start__+0xff69bf>
    7602:	62068c63          	beqz	a3,7c3a <__adddf3+0x6a6>
    7606:	7ff00613          	li	a2,2047
    760a:	3ac78663          	beq	a5,a2,79b6 <__adddf3+0x422>
    760e:	03800613          	li	a2,56
    7612:	56d65f63          	bge	a2,a3,7b90 <__adddf3+0x5fc>
    7616:	fffe0413          	addi	s0,t3,-1 # ffff <__rodata_start__+0x69bf>
    761a:	008e3e33          	sltu	t3,t3,s0
    761e:	41ca0a33          	sub	s4,s4,t3
    7622:	008a1693          	slli	a3,s4,0x8
    7626:	00800737          	lui	a4,0x800
    762a:	8abe                	mv	s5,a5
    762c:	0406da63          	bgez	a3,7680 <__adddf3+0xec>
    7630:	fff70a13          	addi	s4,a4,-1 # 7fffff <__rodata_start__+0x7f69bf>
    7634:	547d                	li	s0,-1
    7636:	a2b9                	j	7784 <__adddf3+0x1f0>
    7638:	1a078463          	beqz	a5,77e0 <__adddf3+0x24c>
    763c:	415587b3          	sub	a5,a1,s5
    7640:	3c0a9d63          	bnez	s5,7a1a <__adddf3+0x486>
    7644:	01ca6633          	or	a2,s4,t3
    7648:	58060063          	beqz	a2,7bc8 <__adddf3+0x634>
    764c:	fff78613          	addi	a2,a5,-1
    7650:	6a060763          	beqz	a2,7cfe <__adddf3+0x76a>
    7654:	7ff00513          	li	a0,2047
    7658:	62a78f63          	beq	a5,a0,7c96 <__adddf3+0x702>
    765c:	03800513          	li	a0,56
    7660:	74c55663          	bge	a0,a2,7dac <__adddf3+0x818>
    7664:	fffe8413          	addi	s0,t4,-1
    7668:	008ebeb3          	sltu	t4,t4,s0
    766c:	41d70a33          	sub	s4,a4,t4
    7670:	008a1613          	slli	a2,s4,0x8
    7674:	00800737          	lui	a4,0x800
    7678:	7c064163          	bltz	a2,7e3a <__adddf3+0x8a6>
    767c:	84b6                	mv	s1,a3
    767e:	8abe                	mv	s5,a5
    7680:	00440793          	addi	a5,s0,4
    7684:	0087b433          	sltu	s0,a5,s0
    7688:	9a22                	add	s4,s4,s0
    768a:	843e                	mv	s0,a5
    768c:	008a1793          	slli	a5,s4,0x8
    7690:	2007dd63          	bgez	a5,78aa <__adddf3+0x316>
    7694:	001a8793          	addi	a5,s5,1
    7698:	7ff00713          	li	a4,2047
    769c:	8826                	mv	a6,s1
    769e:	20e78a63          	beq	a5,a4,78b2 <__adddf3+0x31e>
    76a2:	ff800737          	lui	a4,0xff800
    76a6:	177d                	addi	a4,a4,-1 # ff7fffff <linker_stack_start+0xef7d000f>
    76a8:	7ff7f793          	andi	a5,a5,2047
    76ac:	00ea7733          	and	a4,s4,a4
    76b0:	01d71613          	slli	a2,a4,0x1d
    76b4:	800d                	srli	s0,s0,0x3
    76b6:	0726                	slli	a4,a4,0x9
    76b8:	8e41                	or	a2,a2,s0
    76ba:	8331                	srli	a4,a4,0xc
    76bc:	40f2                	lw	ra,28(sp)
    76be:	4462                	lw	s0,24(sp)
    76c0:	07d2                	slli	a5,a5,0x14
    76c2:	8fd9                	or	a5,a5,a4
    76c4:	01f81713          	slli	a4,a6,0x1f
    76c8:	8fd9                	or	a5,a5,a4
    76ca:	44d2                	lw	s1,20(sp)
    76cc:	4942                	lw	s2,16(sp)
    76ce:	49b2                	lw	s3,12(sp)
    76d0:	4a22                	lw	s4,8(sp)
    76d2:	4a92                	lw	s5,4(sp)
    76d4:	8532                	mv	a0,a2
    76d6:	85be                	mv	a1,a5
    76d8:	6105                	addi	sp,sp,32
    76da:	8082                	ret
    76dc:	8826                	mv	a6,s1
    76de:	1cf05d63          	blez	a5,78b8 <__adddf3+0x324>
    76e2:	16059263          	bnez	a1,7846 <__adddf3+0x2b2>
    76e6:	01d766b3          	or	a3,a4,t4
    76ea:	20068963          	beqz	a3,78fc <__adddf3+0x368>
    76ee:	fff78693          	addi	a3,a5,-1
    76f2:	4e068e63          	beqz	a3,7bee <__adddf3+0x65a>
    76f6:	7ff00613          	li	a2,2047
    76fa:	5ac78963          	beq	a5,a2,7cac <__adddf3+0x718>
    76fe:	03800613          	li	a2,56
    7702:	62d65c63          	bge	a2,a3,7d3a <__adddf3+0x7a6>
    7706:	008a1693          	slli	a3,s4,0x8
    770a:	00800737          	lui	a4,0x800
    770e:	001e0413          	addi	s0,t3,1
    7712:	8abe                	mv	s5,a5
    7714:	f606d6e3          	bgez	a3,7680 <__adddf3+0xec>
    7718:	8a3a                	mv	s4,a4
    771a:	4401                	li	s0,0
    771c:	0a85                	addi	s5,s5,1
    771e:	7ff00793          	li	a5,2047
    7722:	18fa8763          	beq	s5,a5,78b0 <__adddf3+0x31c>
    7726:	ff8007b7          	lui	a5,0xff800
    772a:	17fd                	addi	a5,a5,-1 # ff7fffff <linker_stack_start+0xef7d000f>
    772c:	00fa77b3          	and	a5,s4,a5
    7730:	00145713          	srli	a4,s0,0x1
    7734:	8805                	andi	s0,s0,1
    7736:	01f79693          	slli	a3,a5,0x1f
    773a:	8f41                	or	a4,a4,s0
    773c:	0017da13          	srli	s4,a5,0x1
    7740:	00e6e433          	or	s0,a3,a4
    7744:	00747793          	andi	a5,s0,7
    7748:	d3b1                	beqz	a5,768c <__adddf3+0xf8>
    774a:	00f47793          	andi	a5,s0,15
    774e:	4711                	li	a4,4
    7750:	f2e78ee3          	beq	a5,a4,768c <__adddf3+0xf8>
    7754:	b735                	j	7680 <__adddf3+0xec>
    7756:	7ff00693          	li	a3,2047
    775a:	24da8e63          	beq	s5,a3,79b6 <__adddf3+0x422>
    775e:	03800693          	li	a3,56
    7762:	1cf6d263          	bge	a3,a5,7926 <__adddf3+0x392>
    7766:	fffe0413          	addi	s0,t3,-1
    776a:	008e3e33          	sltu	t3,t3,s0
    776e:	41ca0a33          	sub	s4,s4,t3
    7772:	008a1713          	slli	a4,s4,0x8
    7776:	008007b7          	lui	a5,0x800
    777a:	f00753e3          	bgez	a4,7680 <__adddf3+0xec>
    777e:	fff78a13          	addi	s4,a5,-1 # 7fffff <__rodata_start__+0x7f69bf>
    7782:	547d                	li	s0,-1
    7784:	8552                	mv	a0,s4
    7786:	64b010ef          	jal	95d0 <__clzsi2>
    778a:	ff850793          	addi	a5,a0,-8
    778e:	02000713          	li	a4,32
    7792:	40f706b3          	sub	a3,a4,a5
    7796:	00d456b3          	srl	a3,s0,a3
    779a:	00fa1a33          	sll	s4,s4,a5
    779e:	0146e6b3          	or	a3,a3,s4
    77a2:	00f41433          	sll	s0,s0,a5
    77a6:	2f57c763          	blt	a5,s5,7a94 <__adddf3+0x500>
    77aa:	415787b3          	sub	a5,a5,s5
    77ae:	0785                	addi	a5,a5,1
    77b0:	8f1d                	sub	a4,a4,a5
    77b2:	00e41633          	sll	a2,s0,a4
    77b6:	00c03633          	snez	a2,a2
    77ba:	00f45a33          	srl	s4,s0,a5
    77be:	01466633          	or	a2,a2,s4
    77c2:	00e69733          	sll	a4,a3,a4
    77c6:	00c76433          	or	s0,a4,a2
    77ca:	00f6da33          	srl	s4,a3,a5
    77ce:	014467b3          	or	a5,s0,s4
    77d2:	4a81                	li	s5,0
    77d4:	fba5                	bnez	a5,7744 <__adddf3+0x1b0>
    77d6:	8826                	mv	a6,s1
    77d8:	4781                	li	a5,0
    77da:	4701                	li	a4,0
    77dc:	4601                	li	a2,0
    77de:	bdf9                	j	76bc <__adddf3+0x128>
    77e0:	001a8793          	addi	a5,s5,1
    77e4:	7fe7f793          	andi	a5,a5,2046
    77e8:	28079263          	bnez	a5,7a6c <__adddf3+0x4d8>
    77ec:	01ca67b3          	or	a5,s4,t3
    77f0:	01d76633          	or	a2,a4,t4
    77f4:	3e0a9163          	bnez	s5,7bd6 <__adddf3+0x642>
    77f8:	52078b63          	beqz	a5,7d2e <__adddf3+0x79a>
    77fc:	20060563          	beqz	a2,7a06 <__adddf3+0x472>
    7800:	41de05b3          	sub	a1,t3,t4
    7804:	00be3633          	sltu	a2,t3,a1
    7808:	40ea07b3          	sub	a5,s4,a4
    780c:	8f91                	sub	a5,a5,a2
    780e:	00879613          	slli	a2,a5,0x8
    7812:	5c065f63          	bgez	a2,7df0 <__adddf3+0x85c>
    7816:	41ce8e33          	sub	t3,t4,t3
    781a:	01cebeb3          	sltu	t4,t4,t3
    781e:	41470733          	sub	a4,a4,s4
    7822:	41d70733          	sub	a4,a4,t4
    7826:	00ee67b3          	or	a5,t3,a4
    782a:	8472                	mv	s0,t3
    782c:	84b6                	mv	s1,a3
    782e:	d7c5                	beqz	a5,77d6 <__adddf3+0x242>
    7830:	00871793          	slli	a5,a4,0x8
    7834:	6007d763          	bgez	a5,7e42 <__adddf3+0x8ae>
    7838:	ff8007b7          	lui	a5,0xff800
    783c:	17fd                	addi	a5,a5,-1 # ff7fffff <linker_stack_start+0xef7d000f>
    783e:	8f7d                	and	a4,a4,a5
    7840:	8836                	mv	a6,a3
    7842:	4785                	li	a5,1
    7844:	b5b5                	j	76b0 <__adddf3+0x11c>
    7846:	7ff00693          	li	a3,2047
    784a:	16da8663          	beq	s5,a3,79b6 <__adddf3+0x422>
    784e:	03800693          	li	a3,56
    7852:	2cf6c263          	blt	a3,a5,7b16 <__adddf3+0x582>
    7856:	008006b7          	lui	a3,0x800
    785a:	8f55                	or	a4,a4,a3
    785c:	46fd                	li	a3,31
    785e:	40f6c863          	blt	a3,a5,7c6e <__adddf3+0x6da>
    7862:	02000613          	li	a2,32
    7866:	8e1d                	sub	a2,a2,a5
    7868:	00c716b3          	sll	a3,a4,a2
    786c:	00ce9633          	sll	a2,t4,a2
    7870:	00fedeb3          	srl	t4,t4,a5
    7874:	00f75733          	srl	a4,a4,a5
    7878:	00c03633          	snez	a2,a2
    787c:	01d6e6b3          	or	a3,a3,t4
    7880:	00c6e7b3          	or	a5,a3,a2
    7884:	9a3a                	add	s4,s4,a4
    7886:	9e3e                	add	t3,t3,a5
    7888:	00fe37b3          	sltu	a5,t3,a5
    788c:	9a3e                	add	s4,s4,a5
    788e:	8472                	mv	s0,t3
    7890:	008a1793          	slli	a5,s4,0x8
    7894:	e807c4e3          	bltz	a5,771c <__adddf3+0x188>
    7898:	00747793          	andi	a5,s0,7
    789c:	5a078c63          	beqz	a5,7e54 <__adddf3+0x8c0>
    78a0:	00f47793          	andi	a5,s0,15
    78a4:	4711                	li	a4,4
    78a6:	dce79de3          	bne	a5,a4,7680 <__adddf3+0xec>
    78aa:	87d6                	mv	a5,s5
    78ac:	800d                	srli	s0,s0,0x3
    78ae:	a891                	j	7902 <__adddf3+0x36e>
    78b0:	87d6                	mv	a5,s5
    78b2:	4701                	li	a4,0
    78b4:	4601                	li	a2,0
    78b6:	b519                	j	76bc <__adddf3+0x128>
    78b8:	10078963          	beqz	a5,79ca <__adddf3+0x436>
    78bc:	415587b3          	sub	a5,a1,s5
    78c0:	260a9463          	bnez	s5,7b28 <__adddf3+0x594>
    78c4:	01ca66b3          	or	a3,s4,t3
    78c8:	4c068d63          	beqz	a3,7da2 <__adddf3+0x80e>
    78cc:	fff78693          	addi	a3,a5,-1
    78d0:	30068f63          	beqz	a3,7bee <__adddf3+0x65a>
    78d4:	7ff00613          	li	a2,2047
    78d8:	3ec78463          	beq	a5,a2,7cc0 <__adddf3+0x72c>
    78dc:	03800613          	li	a2,56
    78e0:	52d65b63          	bge	a2,a3,7e16 <__adddf3+0x882>
    78e4:	00871693          	slli	a3,a4,0x8
    78e8:	00800a37          	lui	s4,0x800
    78ec:	8abe                	mv	s5,a5
    78ee:	4401                	li	s0,0
    78f0:	e206c6e3          	bltz	a3,771c <__adddf3+0x188>
    78f4:	001e8413          	addi	s0,t4,1
    78f8:	8a3a                	mv	s4,a4
    78fa:	b359                	j	7680 <__adddf3+0xec>
    78fc:	00351413          	slli	s0,a0,0x3
    7900:	800d                	srli	s0,s0,0x3
    7902:	01da1613          	slli	a2,s4,0x1d
    7906:	7ff00693          	li	a3,2047
    790a:	8e41                	or	a2,a2,s0
    790c:	003a5713          	srli	a4,s4,0x3
    7910:	08d79863          	bne	a5,a3,79a0 <__adddf3+0x40c>
    7914:	8e59                	or	a2,a2,a4
    7916:	ca59                	beqz	a2,79ac <__adddf3+0x418>
    7918:	4801                	li	a6,0
    791a:	7ff00793          	li	a5,2047
    791e:	00080737          	lui	a4,0x80
    7922:	4601                	li	a2,0
    7924:	bb61                	j	76bc <__adddf3+0x128>
    7926:	008006b7          	lui	a3,0x800
    792a:	8f55                	or	a4,a4,a3
    792c:	46fd                	li	a3,31
    792e:	18f6c063          	blt	a3,a5,7aae <__adddf3+0x51a>
    7932:	02000693          	li	a3,32
    7936:	8e9d                	sub	a3,a3,a5
    7938:	00d71433          	sll	s0,a4,a3
    793c:	00de96b3          	sll	a3,t4,a3
    7940:	00fedeb3          	srl	t4,t4,a5
    7944:	00d036b3          	snez	a3,a3
    7948:	01d46433          	or	s0,s0,t4
    794c:	00f75733          	srl	a4,a4,a5
    7950:	8c55                	or	s0,s0,a3
    7952:	40ea0a33          	sub	s4,s4,a4
    7956:	408e0433          	sub	s0,t3,s0
    795a:	008e3e33          	sltu	t3,t3,s0
    795e:	41ca0a33          	sub	s4,s4,t3
    7962:	008a1793          	slli	a5,s4,0x8
    7966:	f207d9e3          	bgez	a5,7898 <__adddf3+0x304>
    796a:	0a26                	slli	s4,s4,0x9
    796c:	009a5a13          	srli	s4,s4,0x9
    7970:	e00a1ae3          	bnez	s4,7784 <__adddf3+0x1f0>
    7974:	8522                	mv	a0,s0
    7976:	45b010ef          	jal	95d0 <__clzsi2>
    797a:	01850793          	addi	a5,a0,24
    797e:	477d                	li	a4,31
    7980:	e0f757e3          	bge	a4,a5,778e <__adddf3+0x1fa>
    7984:	1561                	addi	a0,a0,-8
    7986:	00a416b3          	sll	a3,s0,a0
    798a:	1557d663          	bge	a5,s5,7ad6 <__adddf3+0x542>
    798e:	ff800737          	lui	a4,0xff800
    7992:	177d                	addi	a4,a4,-1 # ff7fffff <linker_stack_start+0xef7d000f>
    7994:	8f75                	and	a4,a4,a3
    7996:	01d71613          	slli	a2,a4,0x1d
    799a:	40fa87b3          	sub	a5,s5,a5
    799e:	830d                	srli	a4,a4,0x3
    79a0:	0732                	slli	a4,a4,0xc
    79a2:	8331                	srli	a4,a4,0xc
    79a4:	7ff7f793          	andi	a5,a5,2047
    79a8:	8826                	mv	a6,s1
    79aa:	bb09                	j	76bc <__adddf3+0x128>
    79ac:	8826                	mv	a6,s1
    79ae:	7ff00793          	li	a5,2047
    79b2:	4701                	li	a4,0
    79b4:	b321                	j	76bc <__adddf3+0x128>
    79b6:	00351413          	slli	s0,a0,0x3
    79ba:	00345513          	srli	a0,s0,0x3
    79be:	01da1613          	slli	a2,s4,0x1d
    79c2:	8e49                	or	a2,a2,a0
    79c4:	003a5713          	srli	a4,s4,0x3
    79c8:	b7b1                	j	7914 <__adddf3+0x380>
    79ca:	001a8793          	addi	a5,s5,1
    79ce:	7fe7f693          	andi	a3,a5,2046
    79d2:	16069f63          	bnez	a3,7b50 <__adddf3+0x5bc>
    79d6:	01ca67b3          	or	a5,s4,t3
    79da:	3a0a9e63          	bnez	s5,7d96 <__adddf3+0x802>
    79de:	01d766b3          	or	a3,a4,t4
    79e2:	40078063          	beqz	a5,7de2 <__adddf3+0x84e>
    79e6:	c285                	beqz	a3,7a06 <__adddf3+0x472>
    79e8:	9ef2                	add	t4,t4,t3
    79ea:	01cebe33          	sltu	t3,t4,t3
    79ee:	9752                	add	a4,a4,s4
    79f0:	01c70a33          	add	s4,a4,t3
    79f4:	008a1793          	slli	a5,s4,0x8
    79f8:	8e76                	mv	t3,t4
    79fa:	4207c063          	bltz	a5,7e1a <__adddf3+0x886>
    79fe:	014ee7b3          	or	a5,t4,s4
    7a02:	dc078ae3          	beqz	a5,77d6 <__adddf3+0x242>
    7a06:	003e5e13          	srli	t3,t3,0x3
    7a0a:	01da1613          	slli	a2,s4,0x1d
    7a0e:	01c66633          	or	a2,a2,t3
    7a12:	003a5713          	srli	a4,s4,0x3
    7a16:	4781                	li	a5,0
    7a18:	b761                	j	79a0 <__adddf3+0x40c>
    7a1a:	7ff00613          	li	a2,2047
    7a1e:	26c58c63          	beq	a1,a2,7c96 <__adddf3+0x702>
    7a22:	03800613          	li	a2,56
    7a26:	16f64763          	blt	a2,a5,7b94 <__adddf3+0x600>
    7a2a:	00800637          	lui	a2,0x800
    7a2e:	00ca6a33          	or	s4,s4,a2
    7a32:	467d                	li	a2,31
    7a34:	28f64e63          	blt	a2,a5,7cd0 <__adddf3+0x73c>
    7a38:	02000613          	li	a2,32
    7a3c:	8e1d                	sub	a2,a2,a5
    7a3e:	00ca1433          	sll	s0,s4,a2
    7a42:	00ce1633          	sll	a2,t3,a2
    7a46:	00fe5e33          	srl	t3,t3,a5
    7a4a:	00c03633          	snez	a2,a2
    7a4e:	01c46433          	or	s0,s0,t3
    7a52:	00fa57b3          	srl	a5,s4,a5
    7a56:	8c51                	or	s0,s0,a2
    7a58:	8f1d                	sub	a4,a4,a5
    7a5a:	408e8433          	sub	s0,t4,s0
    7a5e:	008ebeb3          	sltu	t4,t4,s0
    7a62:	41d70a33          	sub	s4,a4,t4
    7a66:	8aae                	mv	s5,a1
    7a68:	84b6                	mv	s1,a3
    7a6a:	bde5                	j	7962 <__adddf3+0x3ce>
    7a6c:	41de0433          	sub	s0,t3,t4
    7a70:	008e3633          	sltu	a2,t3,s0
    7a74:	40ea07b3          	sub	a5,s4,a4
    7a78:	8f91                	sub	a5,a5,a2
    7a7a:	00879613          	slli	a2,a5,0x8
    7a7e:	12064a63          	bltz	a2,7bb2 <__adddf3+0x61e>
    7a82:	00f46633          	or	a2,s0,a5
    7a86:	8a3e                	mv	s4,a5
    7a88:	ee0614e3          	bnez	a2,7970 <__adddf3+0x3dc>
    7a8c:	4801                	li	a6,0
    7a8e:	4781                	li	a5,0
    7a90:	4701                	li	a4,0
    7a92:	b12d                	j	76bc <__adddf3+0x128>
    7a94:	ff800a37          	lui	s4,0xff800
    7a98:	1a7d                	addi	s4,s4,-1 # ff7fffff <linker_stack_start+0xef7d000f>
    7a9a:	00747713          	andi	a4,s0,7
    7a9e:	40fa8ab3          	sub	s5,s5,a5
    7aa2:	0146fa33          	and	s4,a3,s4
    7aa6:	de071de3          	bnez	a4,78a0 <__adddf3+0x30c>
    7aaa:	87d6                	mv	a5,s5
    7aac:	b501                	j	78ac <__adddf3+0x318>
    7aae:	fe078693          	addi	a3,a5,-32
    7ab2:	02000613          	li	a2,32
    7ab6:	00d756b3          	srl	a3,a4,a3
    7aba:	00c78a63          	beq	a5,a2,7ace <__adddf3+0x53a>
    7abe:	04000613          	li	a2,64
    7ac2:	40f607b3          	sub	a5,a2,a5
    7ac6:	00f717b3          	sll	a5,a4,a5
    7aca:	00feeeb3          	or	t4,t4,a5
    7ace:	01d03433          	snez	s0,t4
    7ad2:	8c55                	or	s0,s0,a3
    7ad4:	b549                	j	7956 <__adddf3+0x3c2>
    7ad6:	41578433          	sub	s0,a5,s5
    7ada:	00140793          	addi	a5,s0,1
    7ade:	2ef75d63          	bge	a4,a5,7dd8 <__adddf3+0x844>
    7ae2:	1405                	addi	s0,s0,-31
    7ae4:	02000713          	li	a4,32
    7ae8:	0086d433          	srl	s0,a3,s0
    7aec:	00e78b63          	beq	a5,a4,7b02 <__adddf3+0x56e>
    7af0:	04000713          	li	a4,64
    7af4:	40f707b3          	sub	a5,a4,a5
    7af8:	00f697b3          	sll	a5,a3,a5
    7afc:	00f037b3          	snez	a5,a5
    7b00:	8c5d                	or	s0,s0,a5
    7b02:	cc040ae3          	beqz	s0,77d6 <__adddf3+0x242>
    7b06:	00747793          	andi	a5,s0,7
    7b0a:	4a81                	li	s5,0
    7b0c:	c2079fe3          	bnez	a5,774a <__adddf3+0x1b6>
    7b10:	4a01                	li	s4,0
    7b12:	800d                	srli	s0,s0,0x3
    7b14:	b3fd                	j	7902 <__adddf3+0x36e>
    7b16:	008a1713          	slli	a4,s4,0x8
    7b1a:	008007b7          	lui	a5,0x800
    7b1e:	1c075d63          	bgez	a4,7cf8 <__adddf3+0x764>
    7b22:	8a3e                	mv	s4,a5
    7b24:	4401                	li	s0,0
    7b26:	bedd                	j	771c <__adddf3+0x188>
    7b28:	7ff00693          	li	a3,2047
    7b2c:	18d58a63          	beq	a1,a3,7cc0 <__adddf3+0x72c>
    7b30:	03800693          	li	a3,56
    7b34:	20f6d563          	bge	a3,a5,7d3e <__adddf3+0x7aa>
    7b38:	00871793          	slli	a5,a4,0x8
    7b3c:	00800a37          	lui	s4,0x800
    7b40:	8aae                	mv	s5,a1
    7b42:	4401                	li	s0,0
    7b44:	bc07cce3          	bltz	a5,771c <__adddf3+0x188>
    7b48:	001e8413          	addi	s0,t4,1
    7b4c:	8a3a                	mv	s4,a4
    7b4e:	be0d                	j	7680 <__adddf3+0xec>
    7b50:	7ff00693          	li	a3,2047
    7b54:	d4d78fe3          	beq	a5,a3,78b2 <__adddf3+0x31e>
    7b58:	9ef2                	add	t4,t4,t3
    7b5a:	01cebe33          	sltu	t3,t4,t3
    7b5e:	9752                	add	a4,a4,s4
    7b60:	9772                	add	a4,a4,t3
    7b62:	001ede93          	srli	t4,t4,0x1
    7b66:	01f71413          	slli	s0,a4,0x1f
    7b6a:	007ef693          	andi	a3,t4,7
    7b6e:	01d46433          	or	s0,s0,t4
    7b72:	00175a13          	srli	s4,a4,0x1
    7b76:	c699                	beqz	a3,7b84 <__adddf3+0x5f0>
    7b78:	00f47693          	andi	a3,s0,15
    7b7c:	4611                	li	a2,4
    7b7e:	8abe                	mv	s5,a5
    7b80:	b0c690e3          	bne	a3,a2,7680 <__adddf3+0xec>
    7b84:	800d                	srli	s0,s0,0x3
    7b86:	01da1613          	slli	a2,s4,0x1d
    7b8a:	8e41                	or	a2,a2,s0
    7b8c:	8311                	srli	a4,a4,0x4
    7b8e:	bd09                	j	79a0 <__adddf3+0x40c>
    7b90:	87b6                	mv	a5,a3
    7b92:	bb69                	j	792c <__adddf3+0x398>
    7b94:	fffe8413          	addi	s0,t4,-1
    7b98:	008ebeb3          	sltu	t4,t4,s0
    7b9c:	41d70a33          	sub	s4,a4,t4
    7ba0:	008a1713          	slli	a4,s4,0x8
    7ba4:	008007b7          	lui	a5,0x800
    7ba8:	1c074b63          	bltz	a4,7d7e <__adddf3+0x7ea>
    7bac:	84b6                	mv	s1,a3
    7bae:	8aae                	mv	s5,a1
    7bb0:	bcc1                	j	7680 <__adddf3+0xec>
    7bb2:	41ce8e33          	sub	t3,t4,t3
    7bb6:	01cebeb3          	sltu	t4,t4,t3
    7bba:	41470733          	sub	a4,a4,s4
    7bbe:	8472                	mv	s0,t3
    7bc0:	41d70a33          	sub	s4,a4,t4
    7bc4:	84b6                	mv	s1,a3
    7bc6:	b36d                	j	7970 <__adddf3+0x3dc>
    7bc8:	00389613          	slli	a2,a7,0x3
    7bcc:	00365413          	srli	s0,a2,0x3
    7bd0:	84b6                	mv	s1,a3
    7bd2:	8a3a                	mv	s4,a4
    7bd4:	b33d                	j	7902 <__adddf3+0x36e>
    7bd6:	ebe9                	bnez	a5,7ca8 <__adddf3+0x714>
    7bd8:	22060963          	beqz	a2,7e0a <__adddf3+0x876>
    7bdc:	00389613          	slli	a2,a7,0x3
    7be0:	01d71793          	slli	a5,a4,0x1d
    7be4:	820d                	srli	a2,a2,0x3
    7be6:	84b6                	mv	s1,a3
    7be8:	8e5d                	or	a2,a2,a5
    7bea:	830d                	srli	a4,a4,0x3
    7bec:	b325                	j	7914 <__adddf3+0x380>
    7bee:	9ef2                	add	t4,t4,t3
    7bf0:	01cebe33          	sltu	t3,t4,t3
    7bf4:	9752                	add	a4,a4,s4
    7bf6:	9772                	add	a4,a4,t3
    7bf8:	00871793          	slli	a5,a4,0x8
    7bfc:	1807d463          	bgez	a5,7d84 <__adddf3+0x7f0>
    7c00:	ff8007b7          	lui	a5,0xff800
    7c04:	17fd                	addi	a5,a5,-1 # ff7fffff <linker_stack_start+0xef7d000f>
    7c06:	001ed693          	srli	a3,t4,0x1
    7c0a:	8f7d                	and	a4,a4,a5
    7c0c:	01f71793          	slli	a5,a4,0x1f
    7c10:	0076f593          	andi	a1,a3,7
    7c14:	8fd5                	or	a5,a5,a3
    7c16:	00175613          	srli	a2,a4,0x1
    7c1a:	1e058263          	beqz	a1,7dfe <__adddf3+0x86a>
    7c1e:	00f7f693          	andi	a3,a5,15
    7c22:	4591                	li	a1,4
    7c24:	1cb68d63          	beq	a3,a1,7dfe <__adddf3+0x86a>
    7c28:	00b78433          	add	s0,a5,a1
    7c2c:	00f437b3          	sltu	a5,s0,a5
    7c30:	00c78a33          	add	s4,a5,a2
    7c34:	800d                	srli	s0,s0,0x3
    7c36:	4789                	li	a5,2
    7c38:	b1e9                	j	7902 <__adddf3+0x36e>
    7c3a:	41de0eb3          	sub	t4,t3,t4
    7c3e:	01de3e33          	sltu	t3,t3,t4
    7c42:	40ea0733          	sub	a4,s4,a4
    7c46:	41c70a33          	sub	s4,a4,t3
    7c4a:	008a1793          	slli	a5,s4,0x8
    7c4e:	8476                	mv	s0,t4
    7c50:	0007cd63          	bltz	a5,7c6a <__adddf3+0x6d6>
    7c54:	003ede93          	srli	t4,t4,0x3
    7c58:	01da1613          	slli	a2,s4,0x1d
    7c5c:	01d66633          	or	a2,a2,t4
    7c60:	003a5713          	srli	a4,s4,0x3
    7c64:	4785                	li	a5,1
    7c66:	bb2d                	j	79a0 <__adddf3+0x40c>
    7c68:	84b6                	mv	s1,a3
    7c6a:	4a85                	li	s5,1
    7c6c:	b9fd                	j	796a <__adddf3+0x3d6>
    7c6e:	fe078693          	addi	a3,a5,-32
    7c72:	02000613          	li	a2,32
    7c76:	00d756b3          	srl	a3,a4,a3
    7c7a:	00c78a63          	beq	a5,a2,7c8e <__adddf3+0x6fa>
    7c7e:	04000613          	li	a2,64
    7c82:	40f607b3          	sub	a5,a2,a5
    7c86:	00f717b3          	sll	a5,a4,a5
    7c8a:	00feeeb3          	or	t4,t4,a5
    7c8e:	01d037b3          	snez	a5,t4
    7c92:	8fd5                	or	a5,a5,a3
    7c94:	becd                	j	7886 <__adddf3+0x2f2>
    7c96:	00389793          	slli	a5,a7,0x3
    7c9a:	01d71613          	slli	a2,a4,0x1d
    7c9e:	838d                	srli	a5,a5,0x3
    7ca0:	84b6                	mv	s1,a3
    7ca2:	8e5d                	or	a2,a2,a5
    7ca4:	830d                	srli	a4,a4,0x3
    7ca6:	b1bd                	j	7914 <__adddf3+0x380>
    7ca8:	c60618e3          	bnez	a2,7918 <__adddf3+0x384>
    7cac:	00351413          	slli	s0,a0,0x3
    7cb0:	00345793          	srli	a5,s0,0x3
    7cb4:	01da1613          	slli	a2,s4,0x1d
    7cb8:	8e5d                	or	a2,a2,a5
    7cba:	003a5713          	srli	a4,s4,0x3
    7cbe:	b999                	j	7914 <__adddf3+0x380>
    7cc0:	00389793          	slli	a5,a7,0x3
    7cc4:	01d71613          	slli	a2,a4,0x1d
    7cc8:	838d                	srli	a5,a5,0x3
    7cca:	8e5d                	or	a2,a2,a5
    7ccc:	830d                	srli	a4,a4,0x3
    7cce:	b199                	j	7914 <__adddf3+0x380>
    7cd0:	fe078613          	addi	a2,a5,-32
    7cd4:	02000513          	li	a0,32
    7cd8:	00ca5633          	srl	a2,s4,a2
    7cdc:	00a78a63          	beq	a5,a0,7cf0 <__adddf3+0x75c>
    7ce0:	04000513          	li	a0,64
    7ce4:	40f507b3          	sub	a5,a0,a5
    7ce8:	00fa17b3          	sll	a5,s4,a5
    7cec:	00fe6e33          	or	t3,t3,a5
    7cf0:	01c03433          	snez	s0,t3
    7cf4:	8c51                	or	s0,s0,a2
    7cf6:	b395                	j	7a5a <__adddf3+0x4c6>
    7cf8:	001e0413          	addi	s0,t3,1
    7cfc:	b251                	j	7680 <__adddf3+0xec>
    7cfe:	41ce8e33          	sub	t3,t4,t3
    7d02:	01cebeb3          	sltu	t4,t4,t3
    7d06:	41470733          	sub	a4,a4,s4
    7d0a:	41d70a33          	sub	s4,a4,t4
    7d0e:	008a1793          	slli	a5,s4,0x8
    7d12:	8472                	mv	s0,t3
    7d14:	f407cae3          	bltz	a5,7c68 <__adddf3+0x6d4>
    7d18:	003e5e13          	srli	t3,t3,0x3
    7d1c:	01da1613          	slli	a2,s4,0x1d
    7d20:	84b6                	mv	s1,a3
    7d22:	00ce6633          	or	a2,t3,a2
    7d26:	003a5713          	srli	a4,s4,0x3
    7d2a:	4785                	li	a5,1
    7d2c:	b995                	j	79a0 <__adddf3+0x40c>
    7d2e:	d4060fe3          	beqz	a2,7a8c <__adddf3+0x4f8>
    7d32:	8a3a                	mv	s4,a4
    7d34:	8e76                	mv	t3,t4
    7d36:	84b6                	mv	s1,a3
    7d38:	b1f9                	j	7a06 <__adddf3+0x472>
    7d3a:	87b6                	mv	a5,a3
    7d3c:	b605                	j	785c <__adddf3+0x2c8>
    7d3e:	008006b7          	lui	a3,0x800
    7d42:	00da6a33          	or	s4,s4,a3
    7d46:	46fd                	li	a3,31
    7d48:	06f6c463          	blt	a3,a5,7db0 <__adddf3+0x81c>
    7d4c:	02000613          	li	a2,32
    7d50:	8e1d                	sub	a2,a2,a5
    7d52:	00ca16b3          	sll	a3,s4,a2
    7d56:	00ce1633          	sll	a2,t3,a2
    7d5a:	00fe5e33          	srl	t3,t3,a5
    7d5e:	00c03633          	snez	a2,a2
    7d62:	01c6e6b3          	or	a3,a3,t3
    7d66:	00fa57b3          	srl	a5,s4,a5
    7d6a:	8ed1                	or	a3,a3,a2
    7d6c:	973e                	add	a4,a4,a5
    7d6e:	9eb6                	add	t4,t4,a3
    7d70:	00deb6b3          	sltu	a3,t4,a3
    7d74:	00e68a33          	add	s4,a3,a4
    7d78:	8476                	mv	s0,t4
    7d7a:	8aae                	mv	s5,a1
    7d7c:	be11                	j	7890 <__adddf3+0x2fc>
    7d7e:	8aae                	mv	s5,a1
    7d80:	84b6                	mv	s1,a3
    7d82:	baf5                	j	777e <__adddf3+0x1ea>
    7d84:	01d71613          	slli	a2,a4,0x1d
    7d88:	003ede93          	srli	t4,t4,0x3
    7d8c:	01d66633          	or	a2,a2,t4
    7d90:	830d                	srli	a4,a4,0x3
    7d92:	4785                	li	a5,1
    7d94:	b131                	j	79a0 <__adddf3+0x40c>
    7d96:	d78d                	beqz	a5,7cc0 <__adddf3+0x72c>
    7d98:	01d76eb3          	or	t4,a4,t4
    7d9c:	b60e9ee3          	bnez	t4,7918 <__adddf3+0x384>
    7da0:	b731                	j	7cac <__adddf3+0x718>
    7da2:	060e                	slli	a2,a2,0x3
    7da4:	00365413          	srli	s0,a2,0x3
    7da8:	8a3a                	mv	s4,a4
    7daa:	bea1                	j	7902 <__adddf3+0x36e>
    7dac:	87b2                	mv	a5,a2
    7dae:	b151                	j	7a32 <__adddf3+0x49e>
    7db0:	fe078613          	addi	a2,a5,-32
    7db4:	02000693          	li	a3,32
    7db8:	00ca5633          	srl	a2,s4,a2
    7dbc:	00d78a63          	beq	a5,a3,7dd0 <__adddf3+0x83c>
    7dc0:	04000693          	li	a3,64
    7dc4:	40f687b3          	sub	a5,a3,a5
    7dc8:	00fa17b3          	sll	a5,s4,a5
    7dcc:	00fe6e33          	or	t3,t3,a5
    7dd0:	01c036b3          	snez	a3,t3
    7dd4:	8ed1                	or	a3,a3,a2
    7dd6:	bf61                	j	7d6e <__adddf3+0x7da>
    7dd8:	02000713          	li	a4,32
    7ddc:	8f1d                	sub	a4,a4,a5
    7dde:	4601                	li	a2,0
    7de0:	baf9                	j	77be <__adddf3+0x22a>
    7de2:	9e068ae3          	beqz	a3,77d6 <__adddf3+0x242>
    7de6:	8476                	mv	s0,t4
    7de8:	8a3a                	mv	s4,a4
    7dea:	4781                	li	a5,0
    7dec:	800d                	srli	s0,s0,0x3
    7dee:	be11                	j	7902 <__adddf3+0x36e>
    7df0:	00f5e633          	or	a2,a1,a5
    7df4:	c8060ce3          	beqz	a2,7a8c <__adddf3+0x4f8>
    7df8:	8a3e                	mv	s4,a5
    7dfa:	8e2e                	mv	t3,a1
    7dfc:	b129                	j	7a06 <__adddf3+0x472>
    7dfe:	838d                	srli	a5,a5,0x3
    7e00:	0676                	slli	a2,a2,0x1d
    7e02:	8e5d                	or	a2,a2,a5
    7e04:	8311                	srli	a4,a4,0x4
    7e06:	4789                	li	a5,2
    7e08:	be61                	j	79a0 <__adddf3+0x40c>
    7e0a:	4801                	li	a6,0
    7e0c:	7ff00793          	li	a5,2047
    7e10:	00080737          	lui	a4,0x80
    7e14:	b065                	j	76bc <__adddf3+0x128>
    7e16:	87b6                	mv	a5,a3
    7e18:	b73d                	j	7d46 <__adddf3+0x7b2>
    7e1a:	ff800737          	lui	a4,0xff800
    7e1e:	177d                	addi	a4,a4,-1 # ff7fffff <linker_stack_start+0xef7d000f>
    7e20:	00ea7733          	and	a4,s4,a4
    7e24:	01d71613          	slli	a2,a4,0x1d
    7e28:	003ede93          	srli	t4,t4,0x3
    7e2c:	830d                	srli	a4,a4,0x3
    7e2e:	01d66633          	or	a2,a2,t4
    7e32:	00677733          	and	a4,a4,t1
    7e36:	4785                	li	a5,1
    7e38:	b051                	j	76bc <__adddf3+0x128>
    7e3a:	8abe                	mv	s5,a5
    7e3c:	84b6                	mv	s1,a3
    7e3e:	ff2ff06f          	j	7630 <__adddf3+0x9c>
    7e42:	01d71613          	slli	a2,a4,0x1d
    7e46:	003e5e13          	srli	t3,t3,0x3
    7e4a:	00ce6633          	or	a2,t3,a2
    7e4e:	830d                	srli	a4,a4,0x3
    7e50:	4781                	li	a5,0
    7e52:	b6b9                	j	79a0 <__adddf3+0x40c>
    7e54:	800d                	srli	s0,s0,0x3
    7e56:	87d6                	mv	a5,s5
    7e58:	b46d                	j	7902 <__adddf3+0x36e>

00007e5a <__divdf3>:
    7e5a:	7179                	addi	sp,sp,-48
    7e5c:	0145d793          	srli	a5,a1,0x14
    7e60:	d422                	sw	s0,40(sp)
    7e62:	d226                	sw	s1,36(sp)
    7e64:	cc52                	sw	s4,24(sp)
    7e66:	ca56                	sw	s5,20(sp)
    7e68:	c266                	sw	s9,4(sp)
    7e6a:	00c59493          	slli	s1,a1,0xc
    7e6e:	d606                	sw	ra,44(sp)
    7e70:	d04a                	sw	s2,32(sp)
    7e72:	ce4e                	sw	s3,28(sp)
    7e74:	c85a                	sw	s6,16(sp)
    7e76:	c65e                	sw	s7,12(sp)
    7e78:	c462                	sw	s8,8(sp)
    7e7a:	c06a                	sw	s10,0(sp)
    7e7c:	7ff7f793          	andi	a5,a5,2047
    7e80:	842a                	mv	s0,a0
    7e82:	8cb2                	mv	s9,a2
    7e84:	8a36                	mv	s4,a3
    7e86:	80b1                	srli	s1,s1,0xc
    7e88:	01f5da93          	srli	s5,a1,0x1f
    7e8c:	12078a63          	beqz	a5,7fc0 <__divdf3+0x166>
    7e90:	7ff00713          	li	a4,2047
    7e94:	06e78b63          	beq	a5,a4,7f0a <__divdf3+0xb0>
    7e98:	048e                	slli	s1,s1,0x3
    7e9a:	01d55b93          	srli	s7,a0,0x1d
    7e9e:	009bebb3          	or	s7,s7,s1
    7ea2:	00800737          	lui	a4,0x800
    7ea6:	c0178b13          	addi	s6,a5,-1023
    7eaa:	00351c13          	slli	s8,a0,0x3
    7eae:	00ebebb3          	or	s7,s7,a4
    7eb2:	4481                	li	s1,0
    7eb4:	4d01                	li	s10,0
    7eb6:	014a5793          	srli	a5,s4,0x14
    7eba:	00ca1413          	slli	s0,s4,0xc
    7ebe:	7ff7f793          	andi	a5,a5,2047
    7ec2:	8031                	srli	s0,s0,0xc
    7ec4:	01fa5a13          	srli	s4,s4,0x1f
    7ec8:	c3bd                	beqz	a5,7f2e <__divdf3+0xd4>
    7eca:	7ff00713          	li	a4,2047
    7ece:	0ce78f63          	beq	a5,a4,7fac <__divdf3+0x152>
    7ed2:	040e                	slli	s0,s0,0x3
    7ed4:	01dcd713          	srli	a4,s9,0x1d
    7ed8:	c0178793          	addi	a5,a5,-1023
    7edc:	8f41                	or	a4,a4,s0
    7ede:	00800437          	lui	s0,0x800
    7ee2:	40fb0b33          	sub	s6,s6,a5
    7ee6:	8c59                	or	s0,s0,a4
    7ee8:	003c9793          	slli	a5,s9,0x3
    7eec:	4601                	li	a2,0
    7eee:	473d                	li	a4,15
    7ef0:	014ac5b3          	xor	a1,s5,s4
    7ef4:	18976e63          	bltu	a4,s1,8090 <__divdf3+0x236>
    7ef8:	0fffc697          	auipc	a3,0xfffc
    7efc:	7b868693          	addi	a3,a3,1976 # 100046b0 <_ZZL5_ftoaPFvcPvjjEPcjjdjjjE5pow10+0x50>
    7f00:	048a                	slli	s1,s1,0x2
    7f02:	94b6                	add	s1,s1,a3
    7f04:	4098                	lw	a4,0(s1)
    7f06:	9736                	add	a4,a4,a3
    7f08:	8702                	jr	a4
    7f0a:	00a4ebb3          	or	s7,s1,a0
    7f0e:	140b9c63          	bnez	s7,8066 <__divdf3+0x20c>
    7f12:	8b3e                	mv	s6,a5
    7f14:	014a5793          	srli	a5,s4,0x14
    7f18:	00ca1413          	slli	s0,s4,0xc
    7f1c:	7ff7f793          	andi	a5,a5,2047
    7f20:	4c01                	li	s8,0
    7f22:	44a1                	li	s1,8
    7f24:	4d09                	li	s10,2
    7f26:	8031                	srli	s0,s0,0xc
    7f28:	01fa5a13          	srli	s4,s4,0x1f
    7f2c:	ffd9                	bnez	a5,7eca <__divdf3+0x70>
    7f2e:	019467b3          	or	a5,s0,s9
    7f32:	14078563          	beqz	a5,807c <__divdf3+0x222>
    7f36:	36040663          	beqz	s0,82a2 <__divdf3+0x448>
    7f3a:	8522                	mv	a0,s0
    7f3c:	694010ef          	jal	95d0 <__clzsi2>
    7f40:	872a                	mv	a4,a0
    7f42:	ff550793          	addi	a5,a0,-11
    7f46:	46f5                	li	a3,29
    7f48:	8e9d                	sub	a3,a3,a5
    7f4a:	ff870793          	addi	a5,a4,-8 # 7ffff8 <__rodata_start__+0x7f69b8>
    7f4e:	00f41433          	sll	s0,s0,a5
    7f52:	00dcd6b3          	srl	a3,s9,a3
    7f56:	8c55                	or	s0,s0,a3
    7f58:	00fc97b3          	sll	a5,s9,a5
    7f5c:	975a                	add	a4,a4,s6
    7f5e:	3f370b13          	addi	s6,a4,1011
    7f62:	4601                	li	a2,0
    7f64:	b769                	j	7eee <__divdf3+0x94>
    7f66:	7ff00793          	li	a5,2047
    7f6a:	4681                	li	a3,0
    7f6c:	4701                	li	a4,0
    7f6e:	50b2                	lw	ra,44(sp)
    7f70:	5422                	lw	s0,40(sp)
    7f72:	07d2                	slli	a5,a5,0x14
    7f74:	05fe                	slli	a1,a1,0x1f
    7f76:	8fd5                	or	a5,a5,a3
    7f78:	8fcd                	or	a5,a5,a1
    7f7a:	5492                	lw	s1,36(sp)
    7f7c:	5902                	lw	s2,32(sp)
    7f7e:	49f2                	lw	s3,28(sp)
    7f80:	4a62                	lw	s4,24(sp)
    7f82:	4ad2                	lw	s5,20(sp)
    7f84:	4b42                	lw	s6,16(sp)
    7f86:	4bb2                	lw	s7,12(sp)
    7f88:	4c22                	lw	s8,8(sp)
    7f8a:	4c92                	lw	s9,4(sp)
    7f8c:	4d02                	lw	s10,0(sp)
    7f8e:	853a                	mv	a0,a4
    7f90:	85be                	mv	a1,a5
    7f92:	6145                	addi	sp,sp,48
    7f94:	8082                	ret
    7f96:	4781                	li	a5,0
    7f98:	4681                	li	a3,0
    7f9a:	4701                	li	a4,0
    7f9c:	bfc9                	j	7f6e <__divdf3+0x114>
    7f9e:	4581                	li	a1,0
    7fa0:	7ff00793          	li	a5,2047
    7fa4:	000806b7          	lui	a3,0x80
    7fa8:	4701                	li	a4,0
    7faa:	b7d1                	j	7f6e <__divdf3+0x114>
    7fac:	019467b3          	or	a5,s0,s9
    7fb0:	801b0b13          	addi	s6,s6,-2047
    7fb4:	ebe9                	bnez	a5,8086 <__divdf3+0x22c>
    7fb6:	0024e493          	ori	s1,s1,2
    7fba:	4401                	li	s0,0
    7fbc:	4609                	li	a2,2
    7fbe:	bf05                	j	7eee <__divdf3+0x94>
    7fc0:	00a4ebb3          	or	s7,s1,a0
    7fc4:	0a0b8763          	beqz	s7,8072 <__divdf3+0x218>
    7fc8:	2a048f63          	beqz	s1,8286 <__divdf3+0x42c>
    7fcc:	8526                	mv	a0,s1
    7fce:	602010ef          	jal	95d0 <__clzsi2>
    7fd2:	872a                	mv	a4,a0
    7fd4:	ff550793          	addi	a5,a0,-11
    7fd8:	4bf5                	li	s7,29
    7fda:	ff870c13          	addi	s8,a4,-8
    7fde:	40fb8bb3          	sub	s7,s7,a5
    7fe2:	018494b3          	sll	s1,s1,s8
    7fe6:	01745bb3          	srl	s7,s0,s7
    7fea:	009bebb3          	or	s7,s7,s1
    7fee:	01841c33          	sll	s8,s0,s8
    7ff2:	c0d00793          	li	a5,-1011
    7ff6:	40e78b33          	sub	s6,a5,a4
    7ffa:	4481                	li	s1,0
    7ffc:	4d01                	li	s10,0
    7ffe:	bd65                	j	7eb6 <__divdf3+0x5c>
    8000:	85d6                	mv	a1,s5
    8002:	845e                	mv	s0,s7
    8004:	87e2                	mv	a5,s8
    8006:	4709                	li	a4,2
    8008:	f4ed0fe3          	beq	s10,a4,7f66 <__divdf3+0x10c>
    800c:	470d                	li	a4,3
    800e:	f8ed08e3          	beq	s10,a4,7f9e <__divdf3+0x144>
    8012:	4705                	li	a4,1
    8014:	f8ed01e3          	beq	s10,a4,7f96 <__divdf3+0x13c>
    8018:	3ffb0f93          	addi	t6,s6,1023
    801c:	877e                	mv	a4,t6
    801e:	3bf05a63          	blez	t6,83d2 <__divdf3+0x578>
    8022:	0077f693          	andi	a3,a5,7
    8026:	30069463          	bnez	a3,832e <__divdf3+0x4d4>
    802a:	0037d513          	srli	a0,a5,0x3
    802e:	00741793          	slli	a5,s0,0x7
    8032:	0007d863          	bgez	a5,8042 <__divdf3+0x1e8>
    8036:	ff0007b7          	lui	a5,0xff000
    803a:	17fd                	addi	a5,a5,-1 # feffffff <linker_stack_start+0xeefd000f>
    803c:	400b0713          	addi	a4,s6,1024
    8040:	8c7d                	and	s0,s0,a5
    8042:	7fe00793          	li	a5,2046
    8046:	f2e7c0e3          	blt	a5,a4,7f66 <__divdf3+0x10c>
    804a:	01d41693          	slli	a3,s0,0x1d
    804e:	00941613          	slli	a2,s0,0x9
    8052:	7ff77793          	andi	a5,a4,2047
    8056:	00a6e733          	or	a4,a3,a0
    805a:	00c65693          	srli	a3,a2,0xc
    805e:	bf01                	j	7f6e <__divdf3+0x114>
    8060:	85d2                	mv	a1,s4
    8062:	8d32                	mv	s10,a2
    8064:	b74d                	j	8006 <__divdf3+0x1ac>
    8066:	8ba6                	mv	s7,s1
    8068:	8c2a                	mv	s8,a0
    806a:	8b3e                	mv	s6,a5
    806c:	44b1                	li	s1,12
    806e:	4d0d                	li	s10,3
    8070:	b599                	j	7eb6 <__divdf3+0x5c>
    8072:	4c01                	li	s8,0
    8074:	4491                	li	s1,4
    8076:	4b01                	li	s6,0
    8078:	4d05                	li	s10,1
    807a:	bd35                	j	7eb6 <__divdf3+0x5c>
    807c:	0014e493          	ori	s1,s1,1
    8080:	4401                	li	s0,0
    8082:	4605                	li	a2,1
    8084:	b5ad                	j	7eee <__divdf3+0x94>
    8086:	0034e493          	ori	s1,s1,3
    808a:	87e6                	mv	a5,s9
    808c:	460d                	li	a2,3
    808e:	b585                	j	7eee <__divdf3+0x94>
    8090:	1f746263          	bltu	s0,s7,8274 <__divdf3+0x41a>
    8094:	1c8b8e63          	beq	s7,s0,8270 <__divdf3+0x416>
    8098:	86e2                	mv	a3,s8
    809a:	1b7d                	addi	s6,s6,-1
    809c:	4c01                	li	s8,0
    809e:	00841713          	slli	a4,s0,0x8
    80a2:	01075313          	srli	t1,a4,0x10
    80a6:	026bd433          	divu	s0,s7,t1
    80aa:	0187d613          	srli	a2,a5,0x18
    80ae:	8e59                	or	a2,a2,a4
    80b0:	01061893          	slli	a7,a2,0x10
    80b4:	0108d893          	srli	a7,a7,0x10
    80b8:	0106d713          	srli	a4,a3,0x10
    80bc:	00879813          	slli	a6,a5,0x8
    80c0:	026bfbb3          	remu	s7,s7,t1
    80c4:	02888533          	mul	a0,a7,s0
    80c8:	0bc2                	slli	s7,s7,0x10
    80ca:	017767b3          	or	a5,a4,s7
    80ce:	00a7f863          	bgeu	a5,a0,80de <__divdf3+0x284>
    80d2:	97b2                	add	a5,a5,a2
    80d4:	fff40713          	addi	a4,s0,-1 # 7fffff <__rodata_start__+0x7f69bf>
    80d8:	24c7f663          	bgeu	a5,a2,8324 <__divdf3+0x4ca>
    80dc:	843a                	mv	s0,a4
    80de:	8f89                	sub	a5,a5,a0
    80e0:	0267d733          	divu	a4,a5,t1
    80e4:	06c2                	slli	a3,a3,0x10
    80e6:	82c1                	srli	a3,a3,0x10
    80e8:	0267f7b3          	remu	a5,a5,t1
    80ec:	02e88fb3          	mul	t6,a7,a4
    80f0:	07c2                	slli	a5,a5,0x10
    80f2:	8edd                	or	a3,a3,a5
    80f4:	01f6f863          	bgeu	a3,t6,8104 <__divdf3+0x2aa>
    80f8:	96b2                	add	a3,a3,a2
    80fa:	fff70793          	addi	a5,a4,-1
    80fe:	20c6fe63          	bgeu	a3,a2,831a <__divdf3+0x4c0>
    8102:	873e                	mv	a4,a5
    8104:	0442                	slli	s0,s0,0x10
    8106:	8c59                	or	s0,s0,a4
    8108:	01041793          	slli	a5,s0,0x10
    810c:	01081e13          	slli	t3,a6,0x10
    8110:	83c1                	srli	a5,a5,0x10
    8112:	010e5e13          	srli	t3,t3,0x10
    8116:	01085e93          	srli	t4,a6,0x10
    811a:	01045513          	srli	a0,s0,0x10
    811e:	02fe8733          	mul	a4,t4,a5
    8122:	41f686b3          	sub	a3,a3,t6
    8126:	03c78f33          	mul	t5,a5,t3
    812a:	03c50fb3          	mul	t6,a0,t3
    812e:	010f5793          	srli	a5,t5,0x10
    8132:	977e                	add	a4,a4,t6
    8134:	97ba                	add	a5,a5,a4
    8136:	03d50533          	mul	a0,a0,t4
    813a:	01f7f463          	bgeu	a5,t6,8142 <__divdf3+0x2e8>
    813e:	6741                	lui	a4,0x10
    8140:	953a                	add	a0,a0,a4
    8142:	010f1f93          	slli	t6,t5,0x10
    8146:	0107d713          	srli	a4,a5,0x10
    814a:	01079f13          	slli	t5,a5,0x10
    814e:	010fdf93          	srli	t6,t6,0x10
    8152:	00a707b3          	add	a5,a4,a0
    8156:	9f7e                	add	t5,t5,t6
    8158:	0ef6e263          	bltu	a3,a5,823c <__divdf3+0x3e2>
    815c:	0cf68e63          	beq	a3,a5,8238 <__divdf3+0x3de>
    8160:	41ec0f33          	sub	t5,s8,t5
    8164:	01ec3c33          	sltu	s8,s8,t5
    8168:	8e9d                	sub	a3,a3,a5
    816a:	3ffb0f93          	addi	t6,s6,1023
    816e:	418686b3          	sub	a3,a3,s8
    8172:	877e                	mv	a4,t6
    8174:	16d60463          	beq	a2,a3,82dc <__divdf3+0x482>
    8178:	0266d7b3          	divu	a5,a3,t1
    817c:	010f5513          	srli	a0,t5,0x10
    8180:	0266f6b3          	remu	a3,a3,t1
    8184:	02f882b3          	mul	t0,a7,a5
    8188:	06c2                	slli	a3,a3,0x10
    818a:	8ec9                	or	a3,a3,a0
    818c:	0056fb63          	bgeu	a3,t0,81a2 <__divdf3+0x348>
    8190:	96b2                	add	a3,a3,a2
    8192:	fff78513          	addi	a0,a5,-1
    8196:	1ac6e263          	bltu	a3,a2,833a <__divdf3+0x4e0>
    819a:	1a56f063          	bgeu	a3,t0,833a <__divdf3+0x4e0>
    819e:	17f9                	addi	a5,a5,-2
    81a0:	96b2                	add	a3,a3,a2
    81a2:	405686b3          	sub	a3,a3,t0
    81a6:	0266d533          	divu	a0,a3,t1
    81aa:	0f42                	slli	t5,t5,0x10
    81ac:	010f5f13          	srli	t5,t5,0x10
    81b0:	0266f6b3          	remu	a3,a3,t1
    81b4:	02a888b3          	mul	a7,a7,a0
    81b8:	06c2                	slli	a3,a3,0x10
    81ba:	00df6f33          	or	t5,t5,a3
    81be:	011f7b63          	bgeu	t5,a7,81d4 <__divdf3+0x37a>
    81c2:	9f32                	add	t5,t5,a2
    81c4:	fff50693          	addi	a3,a0,-1
    81c8:	16cf6b63          	bltu	t5,a2,833e <__divdf3+0x4e4>
    81cc:	171f7963          	bgeu	t5,a7,833e <__divdf3+0x4e4>
    81d0:	1579                	addi	a0,a0,-2
    81d2:	9f32                	add	t5,t5,a2
    81d4:	07c2                	slli	a5,a5,0x10
    81d6:	8fc9                	or	a5,a5,a0
    81d8:	01079693          	slli	a3,a5,0x10
    81dc:	82c1                	srli	a3,a3,0x10
    81de:	0107d293          	srli	t0,a5,0x10
    81e2:	02de8533          	mul	a0,t4,a3
    81e6:	411f0f33          	sub	t5,t5,a7
    81ea:	03c28333          	mul	t1,t0,t3
    81ee:	02de0e33          	mul	t3,t3,a3
    81f2:	951a                	add	a0,a0,t1
    81f4:	010e5693          	srli	a3,t3,0x10
    81f8:	96aa                	add	a3,a3,a0
    81fa:	025e8eb3          	mul	t4,t4,t0
    81fe:	0066f463          	bgeu	a3,t1,8206 <__divdf3+0x3ac>
    8202:	6541                	lui	a0,0x10
    8204:	9eaa                	add	t4,t4,a0
    8206:	0106d513          	srli	a0,a3,0x10
    820a:	0e42                	slli	t3,t3,0x10
    820c:	010e5e13          	srli	t3,t3,0x10
    8210:	06c2                	slli	a3,a3,0x10
    8212:	9576                	add	a0,a0,t4
    8214:	96f2                	add	a3,a3,t3
    8216:	0aaf6763          	bltu	t5,a0,82c4 <__divdf3+0x46a>
    821a:	0aaf0363          	beq	t5,a0,82c0 <__divdf3+0x466>
    821e:	c0200693          	li	a3,-1022
    8222:	0017e793          	ori	a5,a5,1
    8226:	12db4863          	blt	s6,a3,8356 <__divdf3+0x4fc>
    822a:	00478513          	addi	a0,a5,4
    822e:	00f537b3          	sltu	a5,a0,a5
    8232:	810d                	srli	a0,a0,0x3
    8234:	943e                	add	s0,s0,a5
    8236:	bbe5                	j	802e <__divdf3+0x1d4>
    8238:	f3ec74e3          	bgeu	s8,t5,8160 <__divdf3+0x306>
    823c:	010c0733          	add	a4,s8,a6
    8240:	01873533          	sltu	a0,a4,s8
    8244:	00c50fb3          	add	t6,a0,a2
    8248:	96fe                	add	a3,a3,t6
    824a:	8c3a                	mv	s8,a4
    824c:	fff40f93          	addi	t6,s0,-1
    8250:	0cd67163          	bgeu	a2,a3,8312 <__divdf3+0x4b8>
    8254:	00f6e663          	bltu	a3,a5,8260 <__divdf3+0x406>
    8258:	0ad79f63          	bne	a5,a3,8316 <__divdf3+0x4bc>
    825c:	0be77d63          	bgeu	a4,t5,8316 <__divdf3+0x4bc>
    8260:	9742                	add	a4,a4,a6
    8262:	01073533          	sltu	a0,a4,a6
    8266:	9532                	add	a0,a0,a2
    8268:	1479                	addi	s0,s0,-2
    826a:	96aa                	add	a3,a3,a0
    826c:	8c3a                	mv	s8,a4
    826e:	bdcd                	j	8160 <__divdf3+0x306>
    8270:	e2fc64e3          	bltu	s8,a5,8098 <__divdf3+0x23e>
    8274:	01fb9693          	slli	a3,s7,0x1f
    8278:	001c5713          	srli	a4,s8,0x1
    827c:	001bdb93          	srli	s7,s7,0x1
    8280:	8ed9                	or	a3,a3,a4
    8282:	0c7e                	slli	s8,s8,0x1f
    8284:	bd29                	j	809e <__divdf3+0x244>
    8286:	34a010ef          	jal	95d0 <__clzsi2>
    828a:	01550793          	addi	a5,a0,21 # 10015 <__rodata_start__+0x69d5>
    828e:	46f1                	li	a3,28
    8290:	02050713          	addi	a4,a0,32
    8294:	d4f6d2e3          	bge	a3,a5,7fd8 <__divdf3+0x17e>
    8298:	1561                	addi	a0,a0,-8
    829a:	00a41bb3          	sll	s7,s0,a0
    829e:	4c01                	li	s8,0
    82a0:	bb89                	j	7ff2 <__divdf3+0x198>
    82a2:	8566                	mv	a0,s9
    82a4:	32c010ef          	jal	95d0 <__clzsi2>
    82a8:	01550793          	addi	a5,a0,21
    82ac:	46f1                	li	a3,28
    82ae:	02050713          	addi	a4,a0,32
    82b2:	c8f6dae3          	bge	a3,a5,7f46 <__divdf3+0xec>
    82b6:	1561                	addi	a0,a0,-8
    82b8:	00ac9433          	sll	s0,s9,a0
    82bc:	4781                	li	a5,0
    82be:	b979                	j	7f5c <__divdf3+0x102>
    82c0:	d4068ee3          	beqz	a3,801c <__divdf3+0x1c2>
    82c4:	9f32                	add	t5,t5,a2
    82c6:	88fa                	mv	a7,t5
    82c8:	fff78313          	addi	t1,a5,-1
    82cc:	06cf6b63          	bltu	t5,a2,8342 <__divdf3+0x4e8>
    82d0:	12af6a63          	bltu	t5,a0,8404 <__divdf3+0x5aa>
    82d4:	14af0363          	beq	t5,a0,841a <__divdf3+0x5c0>
    82d8:	879a                	mv	a5,t1
    82da:	b791                	j	821e <__divdf3+0x3c4>
    82dc:	4501                	li	a0,0
    82de:	4785                	li	a5,1
    82e0:	f5f04ae3          	bgtz	t6,8234 <__divdf3+0x3da>
    82e4:	080f9663          	bnez	t6,8370 <__divdf3+0x516>
    82e8:	80000737          	lui	a4,0x80000
    82ec:	01f41793          	slli	a5,s0,0x1f
    82f0:	177d                	addi	a4,a4,-1 # 7fffffff <linker_stack_start+0x6ffd000f>
    82f2:	8fd9                	or	a5,a5,a4
    82f4:	8005                	srli	s0,s0,0x1
    82f6:	00478713          	addi	a4,a5,4
    82fa:	00f737b3          	sltu	a5,a4,a5
    82fe:	943e                	add	s0,s0,a5
    8300:	87ba                	mv	a5,a4
    8302:	00841713          	slli	a4,s0,0x8
    8306:	12075963          	bgez	a4,8438 <__divdf3+0x5de>
    830a:	4785                	li	a5,1
    830c:	4681                	li	a3,0
    830e:	4701                	li	a4,0
    8310:	b9b9                	j	7f6e <__divdf3+0x114>
    8312:	02d60e63          	beq	a2,a3,834e <__divdf3+0x4f4>
    8316:	847e                	mv	s0,t6
    8318:	b5a1                	j	8160 <__divdf3+0x306>
    831a:	dff6f4e3          	bgeu	a3,t6,8102 <__divdf3+0x2a8>
    831e:	1779                	addi	a4,a4,-2
    8320:	96b2                	add	a3,a3,a2
    8322:	b3cd                	j	8104 <__divdf3+0x2aa>
    8324:	daa7fce3          	bgeu	a5,a0,80dc <__divdf3+0x282>
    8328:	1479                	addi	s0,s0,-2
    832a:	97b2                	add	a5,a5,a2
    832c:	bb4d                	j	80de <__divdf3+0x284>
    832e:	00f7f693          	andi	a3,a5,15
    8332:	4611                	li	a2,4
    8334:	cec68be3          	beq	a3,a2,802a <__divdf3+0x1d0>
    8338:	bdcd                	j	822a <__divdf3+0x3d0>
    833a:	87aa                	mv	a5,a0
    833c:	b59d                	j	81a2 <__divdf3+0x348>
    833e:	8536                	mv	a0,a3
    8340:	bd51                	j	81d4 <__divdf3+0x37a>
    8342:	879a                	mv	a5,t1
    8344:	eca89de3          	bne	a7,a0,821e <__divdf3+0x3c4>
    8348:	ed069be3          	bne	a3,a6,821e <__divdf3+0x3c4>
    834c:	b9c1                	j	801c <__divdf3+0x1c2>
    834e:	f561                	bnez	a0,8316 <__divdf3+0x4bc>
    8350:	f0f6e8e3          	bltu	a3,a5,8260 <__divdf3+0x406>
    8354:	b711                	j	8258 <__divdf3+0x3fe>
    8356:	c0100713          	li	a4,-1023
    835a:	00eb1c63          	bne	s6,a4,8372 <__divdf3+0x518>
    835e:	0017d713          	srli	a4,a5,0x1
    8362:	00176713          	ori	a4,a4,1
    8366:	01f41793          	slli	a5,s0,0x1f
    836a:	8fd9                	or	a5,a5,a4
    836c:	8005                	srli	s0,s0,0x1
    836e:	b761                	j	82f6 <__divdf3+0x49c>
    8370:	57fd                	li	a5,-1
    8372:	4705                	li	a4,1
    8374:	41f70733          	sub	a4,a4,t6
    8378:	03800693          	li	a3,56
    837c:	c0e6cde3          	blt	a3,a4,7f96 <__divdf3+0x13c>
    8380:	46fd                	li	a3,31
    8382:	0ae6d263          	bge	a3,a4,8426 <__divdf3+0x5cc>
    8386:	5685                	li	a3,-31
    8388:	41f686b3          	sub	a3,a3,t6
    838c:	02000613          	li	a2,32
    8390:	00d456b3          	srl	a3,s0,a3
    8394:	00c70763          	beq	a4,a2,83a2 <__divdf3+0x548>
    8398:	43eb0b13          	addi	s6,s6,1086
    839c:	01641433          	sll	s0,s0,s6
    83a0:	8fc1                	or	a5,a5,s0
    83a2:	00f037b3          	snez	a5,a5
    83a6:	8fd5                	or	a5,a5,a3
    83a8:	0077f713          	andi	a4,a5,7
    83ac:	4681                	li	a3,0
    83ae:	cf11                	beqz	a4,83ca <__divdf3+0x570>
    83b0:	00f7f613          	andi	a2,a5,15
    83b4:	4511                	li	a0,4
    83b6:	4701                	li	a4,0
    83b8:	00a60963          	beq	a2,a0,83ca <__divdf3+0x570>
    83bc:	00a78633          	add	a2,a5,a0
    83c0:	00f637b3          	sltu	a5,a2,a5
    83c4:	01d79713          	slli	a4,a5,0x1d
    83c8:	87b2                	mv	a5,a2
    83ca:	838d                	srli	a5,a5,0x3
    83cc:	8f5d                	or	a4,a4,a5
    83ce:	4781                	li	a5,0
    83d0:	be79                	j	7f6e <__divdf3+0x114>
    83d2:	fa0f90e3          	bnez	t6,8372 <__divdf3+0x518>
    83d6:	0077f693          	andi	a3,a5,7
    83da:	0017d613          	srli	a2,a5,0x1
    83de:	4b7d                	li	s6,31
    83e0:	4705                	li	a4,1
    83e2:	e2ad                	bnez	a3,8444 <__divdf3+0x5ea>
    83e4:	01641b33          	sll	s6,s0,s6
    83e8:	8e55                	or	a2,a2,a3
    83ea:	00cb67b3          	or	a5,s6,a2
    83ee:	0077f693          	andi	a3,a5,7
    83f2:	00e45433          	srl	s0,s0,a4
    83f6:	d691                	beqz	a3,8302 <__divdf3+0x4a8>
    83f8:	00f7f713          	andi	a4,a5,15
    83fc:	4691                	li	a3,4
    83fe:	f0d702e3          	beq	a4,a3,8302 <__divdf3+0x4a8>
    8402:	bdd5                	j	82f6 <__divdf3+0x49c>
    8404:	00181313          	slli	t1,a6,0x1
    8408:	010338b3          	sltu	a7,t1,a6
    840c:	98b2                	add	a7,a7,a2
    840e:	98fa                	add	a7,a7,t5
    8410:	17f9                	addi	a5,a5,-2
    8412:	881a                	mv	a6,t1
    8414:	f2a88ae3          	beq	a7,a0,8348 <__divdf3+0x4ee>
    8418:	b519                	j	821e <__divdf3+0x3c4>
    841a:	fed865e3          	bltu	a6,a3,8404 <__divdf3+0x5aa>
    841e:	879a                	mv	a5,t1
    8420:	df069fe3          	bne	a3,a6,821e <__divdf3+0x3c4>
    8424:	bee5                	j	801c <__divdf3+0x1c2>
    8426:	41eb0b13          	addi	s6,s6,1054
    842a:	016796b3          	sll	a3,a5,s6
    842e:	00d036b3          	snez	a3,a3
    8432:	00e7d633          	srl	a2,a5,a4
    8436:	b77d                	j	83e4 <__divdf3+0x58a>
    8438:	00941693          	slli	a3,s0,0x9
    843c:	82b1                	srli	a3,a3,0xc
    843e:	01d41713          	slli	a4,s0,0x1d
    8442:	b761                	j	83ca <__divdf3+0x570>
    8444:	00e7f6b3          	and	a3,a5,a4
    8448:	bf71                	j	83e4 <__divdf3+0x58a>

0000844a <__eqdf2>:
    844a:	0145d713          	srli	a4,a1,0x14
    844e:	001007b7          	lui	a5,0x100
    8452:	0146d813          	srli	a6,a3,0x14
    8456:	17fd                	addi	a5,a5,-1 # fffff <__rodata_start__+0xf69bf>
    8458:	7ff00313          	li	t1,2047
    845c:	7ff77713          	andi	a4,a4,2047
    8460:	00b7fe33          	and	t3,a5,a1
    8464:	88aa                	mv	a7,a0
    8466:	8ff5                	and	a5,a5,a3
    8468:	00687833          	and	a6,a6,t1
    846c:	81fd                	srli	a1,a1,0x1f
    846e:	82fd                	srli	a3,a3,0x1f
    8470:	4505                	li	a0,1
    8472:	00670a63          	beq	a4,t1,8486 <__eqdf2+0x3c>
    8476:	00680763          	beq	a6,t1,8484 <__eqdf2+0x3a>
    847a:	01071463          	bne	a4,a6,8482 <__eqdf2+0x38>
    847e:	02fe0063          	beq	t3,a5,849e <__eqdf2+0x54>
    8482:	8082                	ret
    8484:	8082                	ret
    8486:	fee81ee3          	bne	a6,a4,8482 <__eqdf2+0x38>
    848a:	00fe67b3          	or	a5,t3,a5
    848e:	8fd1                	or	a5,a5,a2
    8490:	0117e7b3          	or	a5,a5,a7
    8494:	f7fd                	bnez	a5,8482 <__eqdf2+0x38>
    8496:	8d95                	sub	a1,a1,a3
    8498:	00b03533          	snez	a0,a1
    849c:	8082                	ret
    849e:	fec892e3          	bne	a7,a2,8482 <__eqdf2+0x38>
    84a2:	00d58863          	beq	a1,a3,84b2 <__eqdf2+0x68>
    84a6:	ff71                	bnez	a4,8482 <__eqdf2+0x38>
    84a8:	011e6e33          	or	t3,t3,a7
    84ac:	01c03533          	snez	a0,t3
    84b0:	8082                	ret
    84b2:	4501                	li	a0,0
    84b4:	8082                	ret

000084b6 <__gedf2>:
    84b6:	0145d893          	srli	a7,a1,0x14
    84ba:	001007b7          	lui	a5,0x100
    84be:	0146d713          	srli	a4,a3,0x14
    84c2:	882a                	mv	a6,a0
    84c4:	17fd                	addi	a5,a5,-1 # fffff <__rodata_start__+0xf69bf>
    84c6:	7ff00313          	li	t1,2047
    84ca:	7ff8f893          	andi	a7,a7,2047
    84ce:	00677533          	and	a0,a4,t1
    84d2:	8e42                	mv	t3,a6
    84d4:	00b7f733          	and	a4,a5,a1
    84d8:	8eb2                	mv	t4,a2
    84da:	8ff5                	and	a5,a5,a3
    84dc:	81fd                	srli	a1,a1,0x1f
    84de:	82fd                	srli	a3,a3,0x1f
    84e0:	02688e63          	beq	a7,t1,851c <__gedf2+0x66>
    84e4:	00650f63          	beq	a0,t1,8502 <__gedf2+0x4c>
    84e8:	04089763          	bnez	a7,8536 <__gedf2+0x80>
    84ec:	01076833          	or	a6,a4,a6
    84f0:	e121                	bnez	a0,8530 <__gedf2+0x7a>
    84f2:	8e5d                	or	a2,a2,a5
    84f4:	c235                	beqz	a2,8558 <__gedf2+0xa2>
    84f6:	06081c63          	bnez	a6,856e <__gedf2+0xb8>
    84fa:	00169513          	slli	a0,a3,0x1
    84fe:	157d                	addi	a0,a0,-1
    8500:	8082                	ret
    8502:	8e5d                	or	a2,a2,a5
    8504:	e23d                	bnez	a2,856a <__gedf2+0xb4>
    8506:	00089563          	bnez	a7,8510 <__gedf2+0x5a>
    850a:	01076733          	or	a4,a4,a6
    850e:	d775                	beqz	a4,84fa <__gedf2+0x44>
    8510:	00d59b63          	bne	a1,a3,8526 <__gedf2+0x70>
    8514:	00159513          	slli	a0,a1,0x1
    8518:	157d                	addi	a0,a0,-1
    851a:	8082                	ret
    851c:	01076733          	or	a4,a4,a6
    8520:	e729                	bnez	a4,856a <__gedf2+0xb4>
    8522:	03150e63          	beq	a0,a7,855e <__gedf2+0xa8>
    8526:	40b005b3          	neg	a1,a1
    852a:	0015e513          	ori	a0,a1,1
    852e:	8082                	ret
    8530:	fc0805e3          	beqz	a6,84fa <__gedf2+0x44>
    8534:	bff1                	j	8510 <__gedf2+0x5a>
    8536:	d965                	beqz	a0,8526 <__gedf2+0x70>
    8538:	fed597e3          	bne	a1,a3,8526 <__gedf2+0x70>
    853c:	ff1545e3          	blt	a0,a7,8526 <__gedf2+0x70>
    8540:	fca8cae3          	blt	a7,a0,8514 <__gedf2+0x5e>
    8544:	fee7e1e3          	bltu	a5,a4,8526 <__gedf2+0x70>
    8548:	fcf716e3          	bne	a4,a5,8514 <__gedf2+0x5e>
    854c:	fdceede3          	bltu	t4,t3,8526 <__gedf2+0x70>
    8550:	4501                	li	a0,0
    8552:	fdde61e3          	bltu	t3,t4,8514 <__gedf2+0x5e>
    8556:	8082                	ret
    8558:	fc0817e3          	bnez	a6,8526 <__gedf2+0x70>
    855c:	8082                	ret
    855e:	8fd1                	or	a5,a5,a2
    8560:	e789                	bnez	a5,856a <__gedf2+0xb4>
    8562:	fcd592e3          	bne	a1,a3,8526 <__gedf2+0x70>
    8566:	4501                	li	a0,0
    8568:	8082                	ret
    856a:	5579                	li	a0,-2
    856c:	8082                	ret
    856e:	fcd58be3          	beq	a1,a3,8544 <__gedf2+0x8e>
    8572:	bf55                	j	8526 <__gedf2+0x70>

00008574 <__ledf2>:
    8574:	0145d893          	srli	a7,a1,0x14
    8578:	001007b7          	lui	a5,0x100
    857c:	0146d713          	srli	a4,a3,0x14
    8580:	882a                	mv	a6,a0
    8582:	17fd                	addi	a5,a5,-1 # fffff <__rodata_start__+0xf69bf>
    8584:	7ff00313          	li	t1,2047
    8588:	7ff8f893          	andi	a7,a7,2047
    858c:	00677533          	and	a0,a4,t1
    8590:	8e42                	mv	t3,a6
    8592:	00b7f733          	and	a4,a5,a1
    8596:	8eb2                	mv	t4,a2
    8598:	8ff5                	and	a5,a5,a3
    859a:	81fd                	srli	a1,a1,0x1f
    859c:	82fd                	srli	a3,a3,0x1f
    859e:	04688363          	beq	a7,t1,85e4 <__ledf2+0x70>
    85a2:	00650f63          	beq	a0,t1,85c0 <__ledf2+0x4c>
    85a6:	04089b63          	bnez	a7,85fc <__ledf2+0x88>
    85aa:	01076833          	or	a6,a4,a6
    85ae:	e93d                	bnez	a0,8624 <__ledf2+0xb0>
    85b0:	8e5d                	or	a2,a2,a5
    85b2:	c615                	beqz	a2,85de <__ledf2+0x6a>
    85b4:	06081d63          	bnez	a6,862e <__ledf2+0xba>
    85b8:	00169513          	slli	a0,a3,0x1
    85bc:	157d                	addi	a0,a0,-1
    85be:	8082                	ret
    85c0:	8e5d                	or	a2,a2,a5
    85c2:	4509                	li	a0,2
    85c4:	ee19                	bnez	a2,85e2 <__ledf2+0x6e>
    85c6:	00089563          	bnez	a7,85d0 <__ledf2+0x5c>
    85ca:	01076733          	or	a4,a4,a6
    85ce:	d76d                	beqz	a4,85b8 <__ledf2+0x44>
    85d0:	04d58663          	beq	a1,a3,861c <__ledf2+0xa8>
    85d4:	40b005b3          	neg	a1,a1
    85d8:	0015e513          	ori	a0,a1,1
    85dc:	8082                	ret
    85de:	fe081be3          	bnez	a6,85d4 <__ledf2+0x60>
    85e2:	8082                	ret
    85e4:	01076733          	or	a4,a4,a6
    85e8:	e329                	bnez	a4,862a <__ledf2+0xb6>
    85ea:	ff1515e3          	bne	a0,a7,85d4 <__ledf2+0x60>
    85ee:	8fd1                	or	a5,a5,a2
    85f0:	4509                	li	a0,2
    85f2:	fbe5                	bnez	a5,85e2 <__ledf2+0x6e>
    85f4:	fed590e3          	bne	a1,a3,85d4 <__ledf2+0x60>
    85f8:	4501                	li	a0,0
    85fa:	8082                	ret
    85fc:	dd61                	beqz	a0,85d4 <__ledf2+0x60>
    85fe:	fcd59be3          	bne	a1,a3,85d4 <__ledf2+0x60>
    8602:	fd1549e3          	blt	a0,a7,85d4 <__ledf2+0x60>
    8606:	00a8cb63          	blt	a7,a0,861c <__ledf2+0xa8>
    860a:	fce7e5e3          	bltu	a5,a4,85d4 <__ledf2+0x60>
    860e:	00f71763          	bne	a4,a5,861c <__ledf2+0xa8>
    8612:	fdcee1e3          	bltu	t4,t3,85d4 <__ledf2+0x60>
    8616:	4501                	li	a0,0
    8618:	fdde75e3          	bgeu	t3,t4,85e2 <__ledf2+0x6e>
    861c:	00159513          	slli	a0,a1,0x1
    8620:	157d                	addi	a0,a0,-1
    8622:	8082                	ret
    8624:	f8080ae3          	beqz	a6,85b8 <__ledf2+0x44>
    8628:	b765                	j	85d0 <__ledf2+0x5c>
    862a:	4509                	li	a0,2
    862c:	8082                	ret
    862e:	fcd58ee3          	beq	a1,a3,860a <__ledf2+0x96>
    8632:	b74d                	j	85d4 <__ledf2+0x60>

00008634 <__muldf3>:
    8634:	7179                	addi	sp,sp,-48
    8636:	0145d793          	srli	a5,a1,0x14
    863a:	d422                	sw	s0,40(sp)
    863c:	d226                	sw	s1,36(sp)
    863e:	cc52                	sw	s4,24(sp)
    8640:	ca56                	sw	s5,20(sp)
    8642:	c462                	sw	s8,8(sp)
    8644:	00c59413          	slli	s0,a1,0xc
    8648:	d606                	sw	ra,44(sp)
    864a:	d04a                	sw	s2,32(sp)
    864c:	ce4e                	sw	s3,28(sp)
    864e:	c85a                	sw	s6,16(sp)
    8650:	c65e                	sw	s7,12(sp)
    8652:	c266                	sw	s9,4(sp)
    8654:	c06a                	sw	s10,0(sp)
    8656:	7ff7f793          	andi	a5,a5,2047
    865a:	8aaa                	mv	s5,a0
    865c:	8c32                	mv	s8,a2
    865e:	84b6                	mv	s1,a3
    8660:	8031                	srli	s0,s0,0xc
    8662:	01f5da13          	srli	s4,a1,0x1f
    8666:	34078263          	beqz	a5,89aa <__muldf3+0x376>
    866a:	7ff00713          	li	a4,2047
    866e:	22e78463          	beq	a5,a4,8896 <__muldf3+0x262>
    8672:	040e                	slli	s0,s0,0x3
    8674:	01d55713          	srli	a4,a0,0x1d
    8678:	8f41                	or	a4,a4,s0
    867a:	00800437          	lui	s0,0x800
    867e:	c0178b13          	addi	s6,a5,-1023
    8682:	00351b93          	slli	s7,a0,0x3
    8686:	8c59                	or	s0,s0,a4
    8688:	4c81                	li	s9,0
    868a:	4d01                	li	s10,0
    868c:	0144d793          	srli	a5,s1,0x14
    8690:	00c49713          	slli	a4,s1,0xc
    8694:	7ff7f793          	andi	a5,a5,2047
    8698:	00c75a93          	srli	s5,a4,0xc
    869c:	80fd                	srli	s1,s1,0x1f
    869e:	20078f63          	beqz	a5,88bc <__muldf3+0x288>
    86a2:	7ff00713          	li	a4,2047
    86a6:	2ce78e63          	beq	a5,a4,8982 <__muldf3+0x34e>
    86aa:	c0178793          	addi	a5,a5,-1023
    86ae:	4729                	li	a4,10
    86b0:	9b3e                	add	s6,s6,a5
    86b2:	25974c63          	blt	a4,s9,890a <__muldf3+0x2d6>
    86b6:	003a9713          	slli	a4,s5,0x3
    86ba:	01dc5793          	srli	a5,s8,0x1d
    86be:	8fd9                	or	a5,a5,a4
    86c0:	009a46b3          	xor	a3,s4,s1
    86c4:	00800737          	lui	a4,0x800
    86c8:	4609                	li	a2,2
    86ca:	00e7eab3          	or	s5,a5,a4
    86ce:	003c1813          	slli	a6,s8,0x3
    86d2:	85b6                	mv	a1,a3
    86d4:	4781                	li	a5,0
    86d6:	03965163          	bge	a2,s9,86f8 <__muldf3+0xc4>
    86da:	4605                	li	a2,1
    86dc:	01961633          	sll	a2,a2,s9
    86e0:	53067713          	andi	a4,a2,1328
    86e4:	22071463          	bnez	a4,890c <__muldf3+0x2d8>
    86e8:	24067593          	andi	a1,a2,576
    86ec:	3c059b63          	bnez	a1,8ac2 <__muldf3+0x48e>
    86f0:	08867613          	andi	a2,a2,136
    86f4:	3a061a63          	bnez	a2,8aa8 <__muldf3+0x474>
    86f8:	010b9793          	slli	a5,s7,0x10
    86fc:	01081613          	slli	a2,a6,0x10
    8700:	83c1                	srli	a5,a5,0x10
    8702:	8241                	srli	a2,a2,0x10
    8704:	010bdb93          	srli	s7,s7,0x10
    8708:	01085813          	srli	a6,a6,0x10
    870c:	02c78733          	mul	a4,a5,a2
    8710:	02cb8533          	mul	a0,s7,a2
    8714:	01075313          	srli	t1,a4,0x10
    8718:	02f805b3          	mul	a1,a6,a5
    871c:	95aa                	add	a1,a1,a0
    871e:	932e                	add	t1,t1,a1
    8720:	030b8eb3          	mul	t4,s7,a6
    8724:	00a37463          	bgeu	t1,a0,872c <__muldf3+0xf8>
    8728:	65c1                	lui	a1,0x10
    872a:	9eae                	add	t4,t4,a1
    872c:	010a9e13          	slli	t3,s5,0x10
    8730:	0742                	slli	a4,a4,0x10
    8732:	010e5e13          	srli	t3,t3,0x10
    8736:	010ada93          	srli	s5,s5,0x10
    873a:	8341                	srli	a4,a4,0x10
    873c:	01031593          	slli	a1,t1,0x10
    8740:	03cb88b3          	mul	a7,s7,t3
    8744:	95ba                	add	a1,a1,a4
    8746:	01035313          	srli	t1,t1,0x10
    874a:	03c78733          	mul	a4,a5,t3
    874e:	02fa87b3          	mul	a5,s5,a5
    8752:	01075513          	srli	a0,a4,0x10
    8756:	97c6                	add	a5,a5,a7
    8758:	953e                	add	a0,a0,a5
    875a:	035b8bb3          	mul	s7,s7,s5
    875e:	01157463          	bgeu	a0,a7,8766 <__muldf3+0x132>
    8762:	67c1                	lui	a5,0x10
    8764:	9bbe                	add	s7,s7,a5
    8766:	01041793          	slli	a5,s0,0x10
    876a:	01071893          	slli	a7,a4,0x10
    876e:	83c1                	srli	a5,a5,0x10
    8770:	8041                	srli	s0,s0,0x10
    8772:	0108d893          	srli	a7,a7,0x10
    8776:	01051713          	slli	a4,a0,0x10
    877a:	02f80fb3          	mul	t6,a6,a5
    877e:	9746                	add	a4,a4,a7
    8780:	8141                	srli	a0,a0,0x10
    8782:	933a                	add	t1,t1,a4
    8784:	955e                	add	a0,a0,s7
    8786:	02c408b3          	mul	a7,s0,a2
    878a:	02c78f33          	mul	t5,a5,a2
    878e:	9fc6                	add	t6,t6,a7
    8790:	010f5613          	srli	a2,t5,0x10
    8794:	967e                	add	a2,a2,t6
    8796:	02880833          	mul	a6,a6,s0
    879a:	01167463          	bgeu	a2,a7,87a2 <__muldf3+0x16e>
    879e:	68c1                	lui	a7,0x10
    87a0:	9846                	add	a6,a6,a7
    87a2:	0f42                	slli	t5,t5,0x10
    87a4:	01061893          	slli	a7,a2,0x10
    87a8:	010f5f13          	srli	t5,t5,0x10
    87ac:	8241                	srli	a2,a2,0x10
    87ae:	9f46                	add	t5,t5,a7
    87b0:	9642                	add	a2,a2,a6
    87b2:	03c408b3          	mul	a7,s0,t3
    87b6:	03c78833          	mul	a6,a5,t3
    87ba:	02fa87b3          	mul	a5,s5,a5
    87be:	01085e13          	srli	t3,a6,0x10
    87c2:	97c6                	add	a5,a5,a7
    87c4:	9e3e                	add	t3,t3,a5
    87c6:	028a8ab3          	mul	s5,s5,s0
    87ca:	011e7463          	bgeu	t3,a7,87d2 <__muldf3+0x19e>
    87ce:	67c1                	lui	a5,0x10
    87d0:	9abe                	add	s5,s5,a5
    87d2:	01081893          	slli	a7,a6,0x10
    87d6:	0108d893          	srli	a7,a7,0x10
    87da:	010e1793          	slli	a5,t3,0x10
    87de:	01d30833          	add	a6,t1,t4
    87e2:	97c6                	add	a5,a5,a7
    87e4:	953e                	add	a0,a0,a5
    87e6:	00e83733          	sltu	a4,a6,a4
    87ea:	01e808b3          	add	a7,a6,t5
    87ee:	972a                	add	a4,a4,a0
    87f0:	963a                	add	a2,a2,a4
    87f2:	0108b833          	sltu	a6,a7,a6
    87f6:	9832                	add	a6,a6,a2
    87f8:	00f537b3          	sltu	a5,a0,a5
    87fc:	00a73533          	sltu	a0,a4,a0
    8800:	8fc9                	or	a5,a5,a0
    8802:	00e63733          	sltu	a4,a2,a4
    8806:	010e5e13          	srli	t3,t3,0x10
    880a:	00c83633          	sltu	a2,a6,a2
    880e:	97f2                	add	a5,a5,t3
    8810:	8f51                	or	a4,a4,a2
    8812:	00989b93          	slli	s7,a7,0x9
    8816:	973e                	add	a4,a4,a5
    8818:	00bbebb3          	or	s7,s7,a1
    881c:	9756                	add	a4,a4,s5
    881e:	0726                	slli	a4,a4,0x9
    8820:	01703bb3          	snez	s7,s7
    8824:	0178d893          	srli	a7,a7,0x17
    8828:	01785413          	srli	s0,a6,0x17
    882c:	011bebb3          	or	s7,s7,a7
    8830:	0826                	slli	a6,a6,0x9
    8832:	00771793          	slli	a5,a4,0x7
    8836:	8c59                	or	s0,s0,a4
    8838:	010bebb3          	or	s7,s7,a6
    883c:	1007c963          	bltz	a5,894e <__muldf3+0x31a>
    8840:	3ffb0793          	addi	a5,s6,1023
    8844:	20f05b63          	blez	a5,8a5a <__muldf3+0x426>
    8848:	007bf713          	andi	a4,s7,7
    884c:	c715                	beqz	a4,8878 <__muldf3+0x244>
    884e:	00fbf713          	andi	a4,s7,15
    8852:	4611                	li	a2,4
    8854:	02c70263          	beq	a4,a2,8878 <__muldf3+0x244>
    8858:	004b8713          	addi	a4,s7,4
    885c:	01773bb3          	sltu	s7,a4,s7
    8860:	945e                	add	s0,s0,s7
    8862:	8bba                	mv	s7,a4
    8864:	00741713          	slli	a4,s0,0x7
    8868:	00075863          	bgez	a4,8878 <__muldf3+0x244>
    886c:	ff000737          	lui	a4,0xff000
    8870:	177d                	addi	a4,a4,-1 # feffffff <linker_stack_start+0xeefd000f>
    8872:	400b0793          	addi	a5,s6,1024
    8876:	8c79                	and	s0,s0,a4
    8878:	7fe00713          	li	a4,2046
    887c:	24f74963          	blt	a4,a5,8ace <__muldf3+0x49a>
    8880:	01d41713          	slli	a4,s0,0x1d
    8884:	003bdb93          	srli	s7,s7,0x3
    8888:	0426                	slli	s0,s0,0x9
    888a:	7ff7f793          	andi	a5,a5,2047
    888e:	01776733          	or	a4,a4,s7
    8892:	8031                	srli	s0,s0,0xc
    8894:	a849                	j	8926 <__muldf3+0x2f2>
    8896:	00a46bb3          	or	s7,s0,a0
    889a:	1a0b9463          	bnez	s7,8a42 <__muldf3+0x40e>
    889e:	8b3e                	mv	s6,a5
    88a0:	0144d793          	srli	a5,s1,0x14
    88a4:	00c49713          	slli	a4,s1,0xc
    88a8:	7ff7f793          	andi	a5,a5,2047
    88ac:	4401                	li	s0,0
    88ae:	4ca1                	li	s9,8
    88b0:	4d09                	li	s10,2
    88b2:	00c75a93          	srli	s5,a4,0xc
    88b6:	80fd                	srli	s1,s1,0x1f
    88b8:	de0795e3          	bnez	a5,86a2 <__muldf3+0x6e>
    88bc:	018ae833          	or	a6,s5,s8
    88c0:	12080863          	beqz	a6,89f0 <__muldf3+0x3bc>
    88c4:	220a8863          	beqz	s5,8af4 <__muldf3+0x4c0>
    88c8:	8556                	mv	a0,s5
    88ca:	507000ef          	jal	95d0 <__clzsi2>
    88ce:	87aa                	mv	a5,a0
    88d0:	ff550713          	addi	a4,a0,-11
    88d4:	46f5                	li	a3,29
    88d6:	8e99                	sub	a3,a3,a4
    88d8:	ff878813          	addi	a6,a5,-8 # fff8 <__rodata_start__+0x69b8>
    88dc:	010a9733          	sll	a4,s5,a6
    88e0:	00dc56b3          	srl	a3,s8,a3
    88e4:	00e6eab3          	or	s5,a3,a4
    88e8:	010c1833          	sll	a6,s8,a6
    88ec:	40fb07b3          	sub	a5,s6,a5
    88f0:	4729                	li	a4,10
    88f2:	c0d78b13          	addi	s6,a5,-1011
    88f6:	01974a63          	blt	a4,s9,890a <__muldf3+0x2d6>
    88fa:	4789                	li	a5,2
    88fc:	009a46b3          	xor	a3,s4,s1
    8900:	df97dce3          	bge	a5,s9,86f8 <__muldf3+0xc4>
    8904:	85b6                	mv	a1,a3
    8906:	4781                	li	a5,0
    8908:	bbc9                	j	86da <__muldf3+0xa6>
    890a:	85d2                	mv	a1,s4
    890c:	4789                	li	a5,2
    890e:	1afd0463          	beq	s10,a5,8ab6 <__muldf3+0x482>
    8912:	478d                	li	a5,3
    8914:	12fd0c63          	beq	s10,a5,8a4c <__muldf3+0x418>
    8918:	4785                	li	a5,1
    891a:	86ae                	mv	a3,a1
    891c:	04fd1463          	bne	s10,a5,8964 <__muldf3+0x330>
    8920:	4781                	li	a5,0
    8922:	4401                	li	s0,0
    8924:	4701                	li	a4,0
    8926:	07d2                	slli	a5,a5,0x14
    8928:	50b2                	lw	ra,44(sp)
    892a:	8fc1                	or	a5,a5,s0
    892c:	5422                	lw	s0,40(sp)
    892e:	06fe                	slli	a3,a3,0x1f
    8930:	8fd5                	or	a5,a5,a3
    8932:	5492                	lw	s1,36(sp)
    8934:	5902                	lw	s2,32(sp)
    8936:	49f2                	lw	s3,28(sp)
    8938:	4a62                	lw	s4,24(sp)
    893a:	4ad2                	lw	s5,20(sp)
    893c:	4b42                	lw	s6,16(sp)
    893e:	4bb2                	lw	s7,12(sp)
    8940:	4c22                	lw	s8,8(sp)
    8942:	4c92                	lw	s9,4(sp)
    8944:	4d02                	lw	s10,0(sp)
    8946:	853a                	mv	a0,a4
    8948:	85be                	mv	a1,a5
    894a:	6145                	addi	sp,sp,48
    894c:	8082                	ret
    894e:	001bd793          	srli	a5,s7,0x1
    8952:	001bfb93          	andi	s7,s7,1
    8956:	0177e7b3          	or	a5,a5,s7
    895a:	01f41b93          	slli	s7,s0,0x1f
    895e:	0177ebb3          	or	s7,a5,s7
    8962:	8005                	srli	s0,s0,0x1
    8964:	400b0793          	addi	a5,s6,1024
    8968:	0b05                	addi	s6,s6,1
    896a:	0ef05863          	blez	a5,8a5a <__muldf3+0x426>
    896e:	007bf713          	andi	a4,s7,7
    8972:	ee0709e3          	beqz	a4,8864 <__muldf3+0x230>
    8976:	00fbf713          	andi	a4,s7,15
    897a:	4611                	li	a2,4
    897c:	ecc71ee3          	bne	a4,a2,8858 <__muldf3+0x224>
    8980:	b5d5                	j	8864 <__muldf3+0x230>
    8982:	018ae833          	or	a6,s5,s8
    8986:	7ffb0b13          	addi	s6,s6,2047
    898a:	08081b63          	bnez	a6,8a20 <__muldf3+0x3ec>
    898e:	002ce793          	ori	a5,s9,2
    8992:	4729                	li	a4,10
    8994:	f6f74be3          	blt	a4,a5,890a <__muldf3+0x2d6>
    8998:	009a45b3          	xor	a1,s4,s1
    899c:	86ae                	mv	a3,a1
    899e:	1c0c8e63          	beqz	s9,8b7a <__muldf3+0x546>
    89a2:	8cbe                	mv	s9,a5
    89a4:	4a81                	li	s5,0
    89a6:	4789                	li	a5,2
    89a8:	bb0d                	j	86da <__muldf3+0xa6>
    89aa:	00a46bb3          	or	s7,s0,a0
    89ae:	020b8c63          	beqz	s7,89e6 <__muldf3+0x3b2>
    89b2:	12040363          	beqz	s0,8ad8 <__muldf3+0x4a4>
    89b6:	8522                	mv	a0,s0
    89b8:	419000ef          	jal	95d0 <__clzsi2>
    89bc:	872a                	mv	a4,a0
    89be:	ff550693          	addi	a3,a0,-11
    89c2:	47f5                	li	a5,29
    89c4:	ff870b93          	addi	s7,a4,-8
    89c8:	8f95                	sub	a5,a5,a3
    89ca:	01741433          	sll	s0,s0,s7
    89ce:	00fad7b3          	srl	a5,s5,a5
    89d2:	8c5d                	or	s0,s0,a5
    89d4:	017a9bb3          	sll	s7,s5,s7
    89d8:	c0d00793          	li	a5,-1011
    89dc:	40e78b33          	sub	s6,a5,a4
    89e0:	4c81                	li	s9,0
    89e2:	4d01                	li	s10,0
    89e4:	b165                	j	868c <__muldf3+0x58>
    89e6:	4401                	li	s0,0
    89e8:	4c91                	li	s9,4
    89ea:	4b01                	li	s6,0
    89ec:	4d05                	li	s10,1
    89ee:	b979                	j	868c <__muldf3+0x58>
    89f0:	001cec93          	ori	s9,s9,1
    89f4:	47a9                	li	a5,10
    89f6:	f197cae3          	blt	a5,s9,890a <__muldf3+0x2d6>
    89fa:	009a45b3          	xor	a1,s4,s1
    89fe:	4709                	li	a4,2
    8a00:	86ae                	mv	a3,a1
    8a02:	4a81                	li	s5,0
    8a04:	4785                	li	a5,1
    8a06:	cd974ae3          	blt	a4,s9,86da <__muldf3+0xa6>
    8a0a:	4709                	li	a4,2
    8a0c:	0ae78563          	beq	a5,a4,8ab6 <__muldf3+0x482>
    8a10:	4d05                	li	s10,1
    8a12:	4785                	li	a5,1
    8a14:	4401                	li	s0,0
    8a16:	4b81                	li	s7,0
    8a18:	86ae                	mv	a3,a1
    8a1a:	f4fd15e3          	bne	s10,a5,8964 <__muldf3+0x330>
    8a1e:	b709                	j	8920 <__muldf3+0x2ec>
    8a20:	003cec93          	ori	s9,s9,3
    8a24:	4729                	li	a4,10
    8a26:	15974563          	blt	a4,s9,8b70 <__muldf3+0x53c>
    8a2a:	4705                	li	a4,1
    8a2c:	01971633          	sll	a2,a4,s9
    8a30:	08867613          	andi	a2,a2,136
    8a34:	009a46b3          	xor	a3,s4,s1
    8a38:	8862                	mv	a6,s8
    8a3a:	478d                	li	a5,3
    8a3c:	ca060ee3          	beqz	a2,86f8 <__muldf3+0xc4>
    8a40:	a0a5                	j	8aa8 <__muldf3+0x474>
    8a42:	8baa                	mv	s7,a0
    8a44:	8b3e                	mv	s6,a5
    8a46:	4cb1                	li	s9,12
    8a48:	4d0d                	li	s10,3
    8a4a:	b189                	j	868c <__muldf3+0x58>
    8a4c:	4681                	li	a3,0
    8a4e:	7ff00793          	li	a5,2047
    8a52:	00080437          	lui	s0,0x80
    8a56:	4701                	li	a4,0
    8a58:	b5f9                	j	8926 <__muldf3+0x2f2>
    8a5a:	4605                	li	a2,1
    8a5c:	ebdd                	bnez	a5,8b12 <__muldf3+0x4de>
    8a5e:	41eb0b13          	addi	s6,s6,1054
    8a62:	016b97b3          	sll	a5,s7,s6
    8a66:	00f037b3          	snez	a5,a5
    8a6a:	01641b33          	sll	s6,s0,s6
    8a6e:	0167e7b3          	or	a5,a5,s6
    8a72:	00cbd733          	srl	a4,s7,a2
    8a76:	8f5d                	or	a4,a4,a5
    8a78:	00777793          	andi	a5,a4,7
    8a7c:	00c45633          	srl	a2,s0,a2
    8a80:	cf81                	beqz	a5,8a98 <__muldf3+0x464>
    8a82:	00f77793          	andi	a5,a4,15
    8a86:	4591                	li	a1,4
    8a88:	00b78863          	beq	a5,a1,8a98 <__muldf3+0x464>
    8a8c:	00b707b3          	add	a5,a4,a1
    8a90:	00e7b733          	sltu	a4,a5,a4
    8a94:	963a                	add	a2,a2,a4
    8a96:	873e                	mv	a4,a5
    8a98:	00861793          	slli	a5,a2,0x8
    8a9c:	0e07d163          	bgez	a5,8b7e <__muldf3+0x54a>
    8aa0:	4785                	li	a5,1
    8aa2:	4401                	li	s0,0
    8aa4:	4701                	li	a4,0
    8aa6:	b541                	j	8926 <__muldf3+0x2f2>
    8aa8:	8d3e                	mv	s10,a5
    8aaa:	4789                	li	a5,2
    8aac:	85a6                	mv	a1,s1
    8aae:	8456                	mv	s0,s5
    8ab0:	8bc2                	mv	s7,a6
    8ab2:	e6fd10e3          	bne	s10,a5,8912 <__muldf3+0x2de>
    8ab6:	86ae                	mv	a3,a1
    8ab8:	7ff00793          	li	a5,2047
    8abc:	4401                	li	s0,0
    8abe:	4701                	li	a4,0
    8ac0:	b59d                	j	8926 <__muldf3+0x2f2>
    8ac2:	4681                	li	a3,0
    8ac4:	7ff00793          	li	a5,2047
    8ac8:	00080437          	lui	s0,0x80
    8acc:	bda9                	j	8926 <__muldf3+0x2f2>
    8ace:	7ff00793          	li	a5,2047
    8ad2:	4401                	li	s0,0
    8ad4:	4701                	li	a4,0
    8ad6:	bd81                	j	8926 <__muldf3+0x2f2>
    8ad8:	2f9000ef          	jal	95d0 <__clzsi2>
    8adc:	01550693          	addi	a3,a0,21
    8ae0:	47f1                	li	a5,28
    8ae2:	02050713          	addi	a4,a0,32
    8ae6:	ecd7dee3          	bge	a5,a3,89c2 <__muldf3+0x38e>
    8aea:	1561                	addi	a0,a0,-8
    8aec:	00aa9433          	sll	s0,s5,a0
    8af0:	4b81                	li	s7,0
    8af2:	b5dd                	j	89d8 <__muldf3+0x3a4>
    8af4:	8562                	mv	a0,s8
    8af6:	2db000ef          	jal	95d0 <__clzsi2>
    8afa:	01550713          	addi	a4,a0,21
    8afe:	46f1                	li	a3,28
    8b00:	02050793          	addi	a5,a0,32
    8b04:	dce6d8e3          	bge	a3,a4,88d4 <__muldf3+0x2a0>
    8b08:	1561                	addi	a0,a0,-8
    8b0a:	00ac1ab3          	sll	s5,s8,a0
    8b0e:	4801                	li	a6,0
    8b10:	bbf1                	j	88ec <__muldf3+0x2b8>
    8b12:	8e1d                	sub	a2,a2,a5
    8b14:	03800713          	li	a4,56
    8b18:	e0c744e3          	blt	a4,a2,8920 <__muldf3+0x2ec>
    8b1c:	477d                	li	a4,31
    8b1e:	f4c750e3          	bge	a4,a2,8a5e <__muldf3+0x42a>
    8b22:	5705                	li	a4,-31
    8b24:	40f707b3          	sub	a5,a4,a5
    8b28:	02000713          	li	a4,32
    8b2c:	00f457b3          	srl	a5,s0,a5
    8b30:	00e60863          	beq	a2,a4,8b40 <__muldf3+0x50c>
    8b34:	43eb0b13          	addi	s6,s6,1086
    8b38:	01641b33          	sll	s6,s0,s6
    8b3c:	016bebb3          	or	s7,s7,s6
    8b40:	01703733          	snez	a4,s7
    8b44:	8f5d                	or	a4,a4,a5
    8b46:	00777793          	andi	a5,a4,7
    8b4a:	4401                	li	s0,0
    8b4c:	cf91                	beqz	a5,8b68 <__muldf3+0x534>
    8b4e:	00f77613          	andi	a2,a4,15
    8b52:	4591                	li	a1,4
    8b54:	4781                	li	a5,0
    8b56:	00b60963          	beq	a2,a1,8b68 <__muldf3+0x534>
    8b5a:	00b70633          	add	a2,a4,a1
    8b5e:	00e63733          	sltu	a4,a2,a4
    8b62:	01d71793          	slli	a5,a4,0x1d
    8b66:	8732                	mv	a4,a2
    8b68:	830d                	srli	a4,a4,0x3
    8b6a:	8f5d                	or	a4,a4,a5
    8b6c:	4781                	li	a5,0
    8b6e:	bb65                	j	8926 <__muldf3+0x2f2>
    8b70:	4681                	li	a3,0
    8b72:	00080437          	lui	s0,0x80
    8b76:	4701                	li	a4,0
    8b78:	b37d                	j	8926 <__muldf3+0x2f2>
    8b7a:	4789                	li	a5,2
    8b7c:	b579                	j	8a0a <__muldf3+0x3d6>
    8b7e:	00961413          	slli	s0,a2,0x9
    8b82:	8031                	srli	s0,s0,0xc
    8b84:	01d61793          	slli	a5,a2,0x1d
    8b88:	b7c5                	j	8b68 <__muldf3+0x534>

00008b8a <__subdf3>:
    8b8a:	001007b7          	lui	a5,0x100
    8b8e:	17fd                	addi	a5,a5,-1 # fffff <__rodata_start__+0xf69bf>
    8b90:	1101                	addi	sp,sp,-32
    8b92:	00b7f8b3          	and	a7,a5,a1
    8b96:	0146d813          	srli	a6,a3,0x14
    8b9a:	8ff5                	and	a5,a5,a3
    8b9c:	088e                	slli	a7,a7,0x3
    8b9e:	00379713          	slli	a4,a5,0x3
    8ba2:	ca26                	sw	s1,20(sp)
    8ba4:	c452                	sw	s4,8(sp)
    8ba6:	c256                	sw	s5,4(sp)
    8ba8:	01d55a13          	srli	s4,a0,0x1d
    8bac:	0145da93          	srli	s5,a1,0x14
    8bb0:	01d65793          	srli	a5,a2,0x1d
    8bb4:	01f5d493          	srli	s1,a1,0x1f
    8bb8:	7ff00313          	li	t1,2047
    8bbc:	ce06                	sw	ra,28(sp)
    8bbe:	cc22                	sw	s0,24(sp)
    8bc0:	c84a                	sw	s2,16(sp)
    8bc2:	c64e                	sw	s3,12(sp)
    8bc4:	7ff87813          	andi	a6,a6,2047
    8bc8:	011a6a33          	or	s4,s4,a7
    8bcc:	8e32                	mv	t3,a2
    8bce:	8fd9                	or	a5,a5,a4
    8bd0:	82fd                	srli	a3,a3,0x1f
    8bd2:	006afab3          	and	s5,s5,t1
    8bd6:	85a6                	mv	a1,s1
    8bd8:	00351e93          	slli	t4,a0,0x3
    8bdc:	00361893          	slli	a7,a2,0x3
    8be0:	16680863          	beq	a6,t1,8d50 <__subdf3+0x1c6>
    8be4:	0016c693          	xori	a3,a3,1
    8be8:	410a8733          	sub	a4,s5,a6
    8bec:	0cd48563          	beq	s1,a3,8cb6 <__subdf3+0x12c>
    8bf0:	5ae05263          	blez	a4,9194 <__subdf3+0x60a>
    8bf4:	18080b63          	beqz	a6,8d8a <__subdf3+0x200>
    8bf8:	386a8f63          	beq	s5,t1,8f96 <__subdf3+0x40c>
    8bfc:	03800693          	li	a3,56
    8c00:	1ae6c363          	blt	a3,a4,8da6 <__subdf3+0x21c>
    8c04:	008006b7          	lui	a3,0x800
    8c08:	8fd5                	or	a5,a5,a3
    8c0a:	46fd                	li	a3,31
    8c0c:	46e6c463          	blt	a3,a4,9074 <__subdf3+0x4ea>
    8c10:	02000693          	li	a3,32
    8c14:	8e99                	sub	a3,a3,a4
    8c16:	00d79433          	sll	s0,a5,a3
    8c1a:	00d896b3          	sll	a3,a7,a3
    8c1e:	00e8d8b3          	srl	a7,a7,a4
    8c22:	00d036b3          	snez	a3,a3
    8c26:	01146433          	or	s0,s0,a7
    8c2a:	00e7d733          	srl	a4,a5,a4
    8c2e:	8c55                	or	s0,s0,a3
    8c30:	40ea0a33          	sub	s4,s4,a4
    8c34:	408e8433          	sub	s0,t4,s0
    8c38:	008ebeb3          	sltu	t4,t4,s0
    8c3c:	41da0a33          	sub	s4,s4,t4
    8c40:	008a1793          	slli	a5,s4,0x8
    8c44:	2e07c363          	bltz	a5,8f2a <__subdf3+0x3a0>
    8c48:	00747793          	andi	a5,s0,7
    8c4c:	32078d63          	beqz	a5,8f86 <__subdf3+0x3fc>
    8c50:	00f47793          	andi	a5,s0,15
    8c54:	4711                	li	a4,4
    8c56:	32e78863          	beq	a5,a4,8f86 <__subdf3+0x3fc>
    8c5a:	00440793          	addi	a5,s0,4 # 80004 <__rodata_start__+0x769c4>
    8c5e:	0087b433          	sltu	s0,a5,s0
    8c62:	9a22                	add	s4,s4,s0
    8c64:	843e                	mv	s0,a5
    8c66:	008a1793          	slli	a5,s4,0x8
    8c6a:	3007de63          	bgez	a5,8f86 <__subdf3+0x3fc>
    8c6e:	001a8793          	addi	a5,s5,1
    8c72:	7ff00713          	li	a4,2047
    8c76:	0014f593          	andi	a1,s1,1
    8c7a:	26e78f63          	beq	a5,a4,8ef8 <__subdf3+0x36e>
    8c7e:	ff800737          	lui	a4,0xff800
    8c82:	177d                	addi	a4,a4,-1 # ff7fffff <linker_stack_start+0xef7d000f>
    8c84:	7ff7f793          	andi	a5,a5,2047
    8c88:	00ea7733          	and	a4,s4,a4
    8c8c:	01d71613          	slli	a2,a4,0x1d
    8c90:	800d                	srli	s0,s0,0x3
    8c92:	0726                	slli	a4,a4,0x9
    8c94:	8e41                	or	a2,a2,s0
    8c96:	8331                	srli	a4,a4,0xc
    8c98:	40f2                	lw	ra,28(sp)
    8c9a:	4462                	lw	s0,24(sp)
    8c9c:	07d2                	slli	a5,a5,0x14
    8c9e:	05fe                	slli	a1,a1,0x1f
    8ca0:	8fd9                	or	a5,a5,a4
    8ca2:	8fcd                	or	a5,a5,a1
    8ca4:	44d2                	lw	s1,20(sp)
    8ca6:	4942                	lw	s2,16(sp)
    8ca8:	49b2                	lw	s3,12(sp)
    8caa:	4a22                	lw	s4,8(sp)
    8cac:	4a92                	lw	s5,4(sp)
    8cae:	8532                	mv	a0,a2
    8cb0:	85be                	mv	a1,a5
    8cb2:	6105                	addi	sp,sp,32
    8cb4:	8082                	ret
    8cb6:	5ae05863          	blez	a4,9266 <__subdf3+0x6dc>
    8cba:	20081c63          	bnez	a6,8ed2 <__subdf3+0x348>
    8cbe:	0117e733          	or	a4,a5,a7
    8cc2:	22070e63          	beqz	a4,8efe <__subdf3+0x374>
    8cc6:	fffa8713          	addi	a4,s5,-1
    8cca:	46070c63          	beqz	a4,9142 <__subdf3+0x5b8>
    8cce:	5c6a8463          	beq	s5,t1,9296 <__subdf3+0x70c>
    8cd2:	03800693          	li	a3,56
    8cd6:	20e6c863          	blt	a3,a4,8ee6 <__subdf3+0x35c>
    8cda:	46fd                	li	a3,31
    8cdc:	52e6c063          	blt	a3,a4,91fc <__subdf3+0x672>
    8ce0:	02000613          	li	a2,32
    8ce4:	8e19                	sub	a2,a2,a4
    8ce6:	00c796b3          	sll	a3,a5,a2
    8cea:	00c89633          	sll	a2,a7,a2
    8cee:	00e8d8b3          	srl	a7,a7,a4
    8cf2:	00c03633          	snez	a2,a2
    8cf6:	00e7d733          	srl	a4,a5,a4
    8cfa:	0116e6b3          	or	a3,a3,a7
    8cfe:	00c6e7b3          	or	a5,a3,a2
    8d02:	9a3a                	add	s4,s4,a4
    8d04:	9ebe                	add	t4,t4,a5
    8d06:	00feb7b3          	sltu	a5,t4,a5
    8d0a:	9a3e                	add	s4,s4,a5
    8d0c:	8476                	mv	s0,t4
    8d0e:	008a1793          	slli	a5,s4,0x8
    8d12:	f207dbe3          	bgez	a5,8c48 <__subdf3+0xbe>
    8d16:	0a85                	addi	s5,s5,1
    8d18:	7ff00793          	li	a5,2047
    8d1c:	4cfa8c63          	beq	s5,a5,91f4 <__subdf3+0x66a>
    8d20:	ff8007b7          	lui	a5,0xff800
    8d24:	17fd                	addi	a5,a5,-1 # ff7fffff <linker_stack_start+0xef7d000f>
    8d26:	00fa77b3          	and	a5,s4,a5
    8d2a:	00145713          	srli	a4,s0,0x1
    8d2e:	8805                	andi	s0,s0,1
    8d30:	01f79693          	slli	a3,a5,0x1f
    8d34:	8f41                	or	a4,a4,s0
    8d36:	0017da13          	srli	s4,a5,0x1
    8d3a:	00e6e433          	or	s0,a3,a4
    8d3e:	00747793          	andi	a5,s0,7
    8d42:	d395                	beqz	a5,8c66 <__subdf3+0xdc>
    8d44:	00f47793          	andi	a5,s0,15
    8d48:	4711                	li	a4,4
    8d4a:	f0e798e3          	bne	a5,a4,8c5a <__subdf3+0xd0>
    8d4e:	bf21                	j	8c66 <__subdf3+0xdc>
    8d50:	0117e733          	or	a4,a5,a7
    8d54:	801a8613          	addi	a2,s5,-2047
    8d58:	c769                	beqz	a4,8e22 <__subdf3+0x298>
    8d5a:	0cd48863          	beq	s1,a3,8e2a <__subdf3+0x2a0>
    8d5e:	10060763          	beqz	a2,8e6c <__subdf3+0x2e2>
    8d62:	2c0a8a63          	beqz	s5,9036 <__subdf3+0x4ac>
    8d66:	003e1713          	slli	a4,t3,0x3
    8d6a:	01d79613          	slli	a2,a5,0x1d
    8d6e:	830d                	srli	a4,a4,0x3
    8d70:	84b6                	mv	s1,a3
    8d72:	8e59                	or	a2,a2,a4
    8d74:	838d                	srli	a5,a5,0x3
    8d76:	8e5d                	or	a2,a2,a5
    8d78:	20060963          	beqz	a2,8f8a <__subdf3+0x400>
    8d7c:	4581                	li	a1,0
    8d7e:	7ff00793          	li	a5,2047
    8d82:	00080737          	lui	a4,0x80
    8d86:	4601                	li	a2,0
    8d88:	bf01                	j	8c98 <__subdf3+0x10e>
    8d8a:	0117e733          	or	a4,a5,a7
    8d8e:	16070863          	beqz	a4,8efe <__subdf3+0x374>
    8d92:	fffa8713          	addi	a4,s5,-1
    8d96:	42070863          	beqz	a4,91c6 <__subdf3+0x63c>
    8d9a:	1e6a8e63          	beq	s5,t1,8f96 <__subdf3+0x40c>
    8d9e:	03800693          	li	a3,56
    8da2:	e6e6d4e3          	bge	a3,a4,8c0a <__subdf3+0x80>
    8da6:	fffe8413          	addi	s0,t4,-1
    8daa:	008ebeb3          	sltu	t4,t4,s0
    8dae:	41da0a33          	sub	s4,s4,t4
    8db2:	008a1713          	slli	a4,s4,0x8
    8db6:	008007b7          	lui	a5,0x800
    8dba:	ea0750e3          	bgez	a4,8c5a <__subdf3+0xd0>
    8dbe:	fff78a13          	addi	s4,a5,-1 # 7fffff <__rodata_start__+0x7f69bf>
    8dc2:	547d                	li	s0,-1
    8dc4:	8552                	mv	a0,s4
    8dc6:	00b000ef          	jal	95d0 <__clzsi2>
    8dca:	ff850713          	addi	a4,a0,-8
    8dce:	02000793          	li	a5,32
    8dd2:	40e786b3          	sub	a3,a5,a4
    8dd6:	00d456b3          	srl	a3,s0,a3
    8dda:	00ea1a33          	sll	s4,s4,a4
    8dde:	0146e6b3          	or	a3,a3,s4
    8de2:	00e41433          	sll	s0,s0,a4
    8de6:	23574b63          	blt	a4,s5,901c <__subdf3+0x492>
    8dea:	41570733          	sub	a4,a4,s5
    8dee:	0705                	addi	a4,a4,1 # 80001 <__rodata_start__+0x769c1>
    8df0:	8f99                	sub	a5,a5,a4
    8df2:	00f41633          	sll	a2,s0,a5
    8df6:	00c03633          	snez	a2,a2
    8dfa:	00e45a33          	srl	s4,s0,a4
    8dfe:	00f697b3          	sll	a5,a3,a5
    8e02:	01466633          	or	a2,a2,s4
    8e06:	00c7e433          	or	s0,a5,a2
    8e0a:	00e6da33          	srl	s4,a3,a4
    8e0e:	014467b3          	or	a5,s0,s4
    8e12:	4a81                	li	s5,0
    8e14:	f78d                	bnez	a5,8d3e <__subdf3+0x1b4>
    8e16:	0014f593          	andi	a1,s1,1
    8e1a:	4781                	li	a5,0
    8e1c:	4701                	li	a4,0
    8e1e:	4601                	li	a2,0
    8e20:	bda5                	j	8c98 <__subdf3+0x10e>
    8e22:	0016c693          	xori	a3,a3,1
    8e26:	f2d49ce3          	bne	s1,a3,8d5e <__subdf3+0x1d4>
    8e2a:	16060e63          	beqz	a2,8fa6 <__subdf3+0x41c>
    8e2e:	2c0a9263          	bnez	s5,90f2 <__subdf3+0x568>
    8e32:	8742                	mv	a4,a6
    8e34:	01da66b3          	or	a3,s4,t4
    8e38:	52068b63          	beqz	a3,936e <__subdf3+0x7e4>
    8e3c:	fff70693          	addi	a3,a4,-1
    8e40:	30068163          	beqz	a3,9142 <__subdf3+0x5b8>
    8e44:	7ff00613          	li	a2,2047
    8e48:	2ac70563          	beq	a4,a2,90f2 <__subdf3+0x568>
    8e4c:	03800613          	li	a2,56
    8e50:	5ad65463          	bge	a2,a3,93f8 <__subdf3+0x86e>
    8e54:	00879693          	slli	a3,a5,0x8
    8e58:	00800a37          	lui	s4,0x800
    8e5c:	8aba                	mv	s5,a4
    8e5e:	4401                	li	s0,0
    8e60:	ea06cbe3          	bltz	a3,8d16 <__subdf3+0x18c>
    8e64:	00188413          	addi	s0,a7,1 # 10001 <__rodata_start__+0x69c1>
    8e68:	8a3e                	mv	s4,a5
    8e6a:	bbc5                	j	8c5a <__subdf3+0xd0>
    8e6c:	001a8713          	addi	a4,s5,1
    8e70:	7fe77713          	andi	a4,a4,2046
    8e74:	18071163          	bnez	a4,8ff6 <__subdf3+0x46c>
    8e78:	0117e633          	or	a2,a5,a7
    8e7c:	01da6733          	or	a4,s4,t4
    8e80:	280a9c63          	bnez	s5,9118 <__subdf3+0x58e>
    8e84:	46070e63          	beqz	a4,9300 <__subdf3+0x776>
    8e88:	14060d63          	beqz	a2,8fe2 <__subdf3+0x458>
    8e8c:	411e85b3          	sub	a1,t4,a7
    8e90:	00beb633          	sltu	a2,t4,a1
    8e94:	40fa0733          	sub	a4,s4,a5
    8e98:	8f11                	sub	a4,a4,a2
    8e9a:	00871613          	slli	a2,a4,0x8
    8e9e:	52065a63          	bgez	a2,93d2 <__subdf3+0x848>
    8ea2:	41d88eb3          	sub	t4,a7,t4
    8ea6:	01d8b8b3          	sltu	a7,a7,t4
    8eaa:	414787b3          	sub	a5,a5,s4
    8eae:	411787b3          	sub	a5,a5,a7
    8eb2:	00fee733          	or	a4,t4,a5
    8eb6:	8476                	mv	s0,t4
    8eb8:	84b6                	mv	s1,a3
    8eba:	df31                	beqz	a4,8e16 <__subdf3+0x28c>
    8ebc:	00879713          	slli	a4,a5,0x8
    8ec0:	56075163          	bgez	a4,9422 <__subdf3+0x898>
    8ec4:	ff800737          	lui	a4,0xff800
    8ec8:	177d                	addi	a4,a4,-1 # ff7fffff <linker_stack_start+0xef7d000f>
    8eca:	8f7d                	and	a4,a4,a5
    8ecc:	85b6                	mv	a1,a3
    8ece:	4785                	li	a5,1
    8ed0:	bb75                	j	8c8c <__subdf3+0x102>
    8ed2:	0c6a8263          	beq	s5,t1,8f96 <__subdf3+0x40c>
    8ed6:	03800693          	li	a3,56
    8eda:	00e6c663          	blt	a3,a4,8ee6 <__subdf3+0x35c>
    8ede:	008006b7          	lui	a3,0x800
    8ee2:	8fd5                	or	a5,a5,a3
    8ee4:	bbdd                	j	8cda <__subdf3+0x150>
    8ee6:	008a1713          	slli	a4,s4,0x8
    8eea:	008007b7          	lui	a5,0x800
    8eee:	2a075063          	bgez	a4,918e <__subdf3+0x604>
    8ef2:	8a3e                	mv	s4,a5
    8ef4:	4401                	li	s0,0
    8ef6:	b505                	j	8d16 <__subdf3+0x18c>
    8ef8:	4701                	li	a4,0
    8efa:	4601                	li	a2,0
    8efc:	bb71                	j	8c98 <__subdf3+0x10e>
    8efe:	00351413          	slli	s0,a0,0x3
    8f02:	800d                	srli	s0,s0,0x3
    8f04:	01da1613          	slli	a2,s4,0x1d
    8f08:	7ff00713          	li	a4,2047
    8f0c:	8e41                	or	a2,a2,s0
    8f0e:	003a5793          	srli	a5,s4,0x3
    8f12:	e6ea82e3          	beq	s5,a4,8d76 <__subdf3+0x1ec>
    8f16:	07b2                	slli	a5,a5,0xc
    8f18:	00c7d713          	srli	a4,a5,0xc
    8f1c:	0014f593          	andi	a1,s1,1
    8f20:	7ffaf793          	andi	a5,s5,2047
    8f24:	bb95                	j	8c98 <__subdf3+0x10e>
    8f26:	84b6                	mv	s1,a3
    8f28:	4a85                	li	s5,1
    8f2a:	0a26                	slli	s4,s4,0x9
    8f2c:	009a5a13          	srli	s4,s4,0x9
    8f30:	e80a1ae3          	bnez	s4,8dc4 <__subdf3+0x23a>
    8f34:	8522                	mv	a0,s0
    8f36:	2d69                	jal	95d0 <__clzsi2>
    8f38:	01850713          	addi	a4,a0,24
    8f3c:	47fd                	li	a5,31
    8f3e:	e8e7d8e3          	bge	a5,a4,8dce <__subdf3+0x244>
    8f42:	1561                	addi	a0,a0,-8
    8f44:	00a416b3          	sll	a3,s0,a0
    8f48:	15574a63          	blt	a4,s5,909c <__subdf3+0x512>
    8f4c:	41570433          	sub	s0,a4,s5
    8f50:	00140713          	addi	a4,s0,1
    8f54:	46e7d463          	bge	a5,a4,93bc <__subdf3+0x832>
    8f58:	1405                	addi	s0,s0,-31
    8f5a:	02000793          	li	a5,32
    8f5e:	0086d433          	srl	s0,a3,s0
    8f62:	00f70a63          	beq	a4,a5,8f76 <__subdf3+0x3ec>
    8f66:	04000793          	li	a5,64
    8f6a:	8f99                	sub	a5,a5,a4
    8f6c:	00f697b3          	sll	a5,a3,a5
    8f70:	00f037b3          	snez	a5,a5
    8f74:	8c5d                	or	s0,s0,a5
    8f76:	ea0400e3          	beqz	s0,8e16 <__subdf3+0x28c>
    8f7a:	00747793          	andi	a5,s0,7
    8f7e:	4a81                	li	s5,0
    8f80:	dc0792e3          	bnez	a5,8d44 <__subdf3+0x1ba>
    8f84:	4a01                	li	s4,0
    8f86:	800d                	srli	s0,s0,0x3
    8f88:	bfb5                	j	8f04 <__subdf3+0x37a>
    8f8a:	0014f593          	andi	a1,s1,1
    8f8e:	7ff00793          	li	a5,2047
    8f92:	4701                	li	a4,0
    8f94:	b311                	j	8c98 <__subdf3+0x10e>
    8f96:	050e                	slli	a0,a0,0x3
    8f98:	810d                	srli	a0,a0,0x3
    8f9a:	01da1613          	slli	a2,s4,0x1d
    8f9e:	8e49                	or	a2,a2,a0
    8fa0:	003a5793          	srli	a5,s4,0x3
    8fa4:	bbc9                	j	8d76 <__subdf3+0x1ec>
    8fa6:	001a8713          	addi	a4,s5,1
    8faa:	7fe77693          	andi	a3,a4,2046
    8fae:	10069163          	bnez	a3,90b0 <__subdf3+0x526>
    8fb2:	01da6733          	or	a4,s4,t4
    8fb6:	3a0a9563          	bnez	s5,9360 <__subdf3+0x7d6>
    8fba:	0117e6b3          	or	a3,a5,a7
    8fbe:	40070463          	beqz	a4,93c6 <__subdf3+0x83c>
    8fc2:	c285                	beqz	a3,8fe2 <__subdf3+0x458>
    8fc4:	98f6                	add	a7,a7,t4
    8fc6:	01d8beb3          	sltu	t4,a7,t4
    8fca:	97d2                	add	a5,a5,s4
    8fcc:	01d78a33          	add	s4,a5,t4
    8fd0:	008a1793          	slli	a5,s4,0x8
    8fd4:	8ec6                	mv	t4,a7
    8fd6:	4207c363          	bltz	a5,93fc <__subdf3+0x872>
    8fda:	0148e7b3          	or	a5,a7,s4
    8fde:	e2078ce3          	beqz	a5,8e16 <__subdf3+0x28c>
    8fe2:	003ede93          	srli	t4,t4,0x3
    8fe6:	01da1613          	slli	a2,s4,0x1d
    8fea:	01d66633          	or	a2,a2,t4
    8fee:	003a5793          	srli	a5,s4,0x3
    8ff2:	4a81                	li	s5,0
    8ff4:	b70d                	j	8f16 <__subdf3+0x38c>
    8ff6:	411e8433          	sub	s0,t4,a7
    8ffa:	008eb633          	sltu	a2,t4,s0
    8ffe:	40fa0733          	sub	a4,s4,a5
    9002:	8f11                	sub	a4,a4,a2
    9004:	00871613          	slli	a2,a4,0x8
    9008:	0e064d63          	bltz	a2,9102 <__subdf3+0x578>
    900c:	00e46633          	or	a2,s0,a4
    9010:	8a3a                	mv	s4,a4
    9012:	fe19                	bnez	a2,8f30 <__subdf3+0x3a6>
    9014:	4581                	li	a1,0
    9016:	4781                	li	a5,0
    9018:	4701                	li	a4,0
    901a:	b9bd                	j	8c98 <__subdf3+0x10e>
    901c:	ff800a37          	lui	s4,0xff800
    9020:	1a7d                	addi	s4,s4,-1 # ff7fffff <linker_stack_start+0xef7d000f>
    9022:	00747793          	andi	a5,s0,7
    9026:	40ea8ab3          	sub	s5,s5,a4
    902a:	0146fa33          	and	s4,a3,s4
    902e:	c20791e3          	bnez	a5,8c50 <__subdf3+0xc6>
    9032:	800d                	srli	s0,s0,0x3
    9034:	bdc1                	j	8f04 <__subdf3+0x37a>
    9036:	8742                	mv	a4,a6
    9038:	01da6633          	or	a2,s4,t4
    903c:	ca7d                	beqz	a2,9132 <__subdf3+0x5a8>
    903e:	fff70613          	addi	a2,a4,-1
    9042:	28060763          	beqz	a2,92d0 <__subdf3+0x746>
    9046:	7ff00593          	li	a1,2047
    904a:	d0b70ee3          	beq	a4,a1,8d66 <__subdf3+0x1dc>
    904e:	03800593          	li	a1,56
    9052:	32c5de63          	bge	a1,a2,938e <__subdf3+0x804>
    9056:	fff88413          	addi	s0,a7,-1
    905a:	0088b8b3          	sltu	a7,a7,s0
    905e:	41178a33          	sub	s4,a5,a7
    9062:	008a1613          	slli	a2,s4,0x8
    9066:	008007b7          	lui	a5,0x800
    906a:	3a064963          	bltz	a2,941c <__subdf3+0x892>
    906e:	84b6                	mv	s1,a3
    9070:	8aba                	mv	s5,a4
    9072:	b6e5                	j	8c5a <__subdf3+0xd0>
    9074:	fe070693          	addi	a3,a4,-32
    9078:	02000613          	li	a2,32
    907c:	00d7d6b3          	srl	a3,a5,a3
    9080:	00c70a63          	beq	a4,a2,9094 <__subdf3+0x50a>
    9084:	04000613          	li	a2,64
    9088:	40e60733          	sub	a4,a2,a4
    908c:	00e797b3          	sll	a5,a5,a4
    9090:	00f8e8b3          	or	a7,a7,a5
    9094:	01103433          	snez	s0,a7
    9098:	8c55                	or	s0,s0,a3
    909a:	be69                	j	8c34 <__subdf3+0xaa>
    909c:	ff8007b7          	lui	a5,0xff800
    90a0:	17fd                	addi	a5,a5,-1 # ff7fffff <linker_stack_start+0xef7d000f>
    90a2:	8ff5                	and	a5,a5,a3
    90a4:	01d79613          	slli	a2,a5,0x1d
    90a8:	40ea8ab3          	sub	s5,s5,a4
    90ac:	838d                	srli	a5,a5,0x3
    90ae:	b5a5                	j	8f16 <__subdf3+0x38c>
    90b0:	7ff00693          	li	a3,2047
    90b4:	2ad70263          	beq	a4,a3,9358 <__subdf3+0x7ce>
    90b8:	98f6                	add	a7,a7,t4
    90ba:	01d8beb3          	sltu	t4,a7,t4
    90be:	97d2                	add	a5,a5,s4
    90c0:	97f6                	add	a5,a5,t4
    90c2:	0018d893          	srli	a7,a7,0x1
    90c6:	01f79413          	slli	s0,a5,0x1f
    90ca:	0078f693          	andi	a3,a7,7
    90ce:	01146433          	or	s0,s0,a7
    90d2:	0017da13          	srli	s4,a5,0x1
    90d6:	34068e63          	beqz	a3,9432 <__subdf3+0x8a8>
    90da:	00f47693          	andi	a3,s0,15
    90de:	4611                	li	a2,4
    90e0:	8aba                	mv	s5,a4
    90e2:	b6c69ce3          	bne	a3,a2,8c5a <__subdf3+0xd0>
    90e6:	01da1613          	slli	a2,s4,0x1d
    90ea:	800d                	srli	s0,s0,0x3
    90ec:	8e41                	or	a2,a2,s0
    90ee:	8391                	srli	a5,a5,0x4
    90f0:	b51d                	j	8f16 <__subdf3+0x38c>
    90f2:	003e1713          	slli	a4,t3,0x3
    90f6:	01d79613          	slli	a2,a5,0x1d
    90fa:	830d                	srli	a4,a4,0x3
    90fc:	8e59                	or	a2,a2,a4
    90fe:	838d                	srli	a5,a5,0x3
    9100:	b99d                	j	8d76 <__subdf3+0x1ec>
    9102:	41d88eb3          	sub	t4,a7,t4
    9106:	01d8b8b3          	sltu	a7,a7,t4
    910a:	414787b3          	sub	a5,a5,s4
    910e:	8476                	mv	s0,t4
    9110:	41178a33          	sub	s4,a5,a7
    9114:	84b6                	mv	s1,a3
    9116:	bd29                	j	8f30 <__subdf3+0x3a6>
    9118:	16071d63          	bnez	a4,9292 <__subdf3+0x708>
    911c:	2c060863          	beqz	a2,93ec <__subdf3+0x862>
    9120:	003e1613          	slli	a2,t3,0x3
    9124:	01d79713          	slli	a4,a5,0x1d
    9128:	820d                	srli	a2,a2,0x3
    912a:	84b6                	mv	s1,a3
    912c:	8e59                	or	a2,a2,a4
    912e:	838d                	srli	a5,a5,0x3
    9130:	b199                	j	8d76 <__subdf3+0x1ec>
    9132:	003e1613          	slli	a2,t3,0x3
    9136:	00365413          	srli	s0,a2,0x3
    913a:	84b6                	mv	s1,a3
    913c:	8aba                	mv	s5,a4
    913e:	8a3e                	mv	s4,a5
    9140:	b3d1                	j	8f04 <__subdf3+0x37a>
    9142:	98f6                	add	a7,a7,t4
    9144:	01d8beb3          	sltu	t4,a7,t4
    9148:	97d2                	add	a5,a5,s4
    914a:	97f6                	add	a5,a5,t4
    914c:	00879713          	slli	a4,a5,0x8
    9150:	22075663          	bgez	a4,937c <__subdf3+0x7f2>
    9154:	ff800737          	lui	a4,0xff800
    9158:	177d                	addi	a4,a4,-1 # ff7fffff <linker_stack_start+0xef7d000f>
    915a:	0018d693          	srli	a3,a7,0x1
    915e:	8ff9                	and	a5,a5,a4
    9160:	01f79713          	slli	a4,a5,0x1f
    9164:	0076f593          	andi	a1,a3,7
    9168:	8f55                	or	a4,a4,a3
    916a:	0017d613          	srli	a2,a5,0x1
    916e:	26058963          	beqz	a1,93e0 <__subdf3+0x856>
    9172:	00f77693          	andi	a3,a4,15
    9176:	4591                	li	a1,4
    9178:	26b68463          	beq	a3,a1,93e0 <__subdf3+0x856>
    917c:	00b70433          	add	s0,a4,a1
    9180:	00e43733          	sltu	a4,s0,a4
    9184:	00c70a33          	add	s4,a4,a2
    9188:	4a89                	li	s5,2
    918a:	800d                	srli	s0,s0,0x3
    918c:	bba5                	j	8f04 <__subdf3+0x37a>
    918e:	001e8413          	addi	s0,t4,1
    9192:	b4e1                	j	8c5a <__subdf3+0xd0>
    9194:	cc070ce3          	beqz	a4,8e6c <__subdf3+0x2e2>
    9198:	41580733          	sub	a4,a6,s5
    919c:	e80a8ee3          	beqz	s5,9038 <__subdf3+0x4ae>
    91a0:	03800613          	li	a2,56
    91a4:	08e65063          	bge	a2,a4,9224 <__subdf3+0x69a>
    91a8:	fff88413          	addi	s0,a7,-1
    91ac:	0088b8b3          	sltu	a7,a7,s0
    91b0:	41178a33          	sub	s4,a5,a7
    91b4:	008a1713          	slli	a4,s4,0x8
    91b8:	008007b7          	lui	a5,0x800
    91bc:	18074863          	bltz	a4,934c <__subdf3+0x7c2>
    91c0:	84b6                	mv	s1,a3
    91c2:	8ac2                	mv	s5,a6
    91c4:	bc59                	j	8c5a <__subdf3+0xd0>
    91c6:	411e88b3          	sub	a7,t4,a7
    91ca:	40fa07b3          	sub	a5,s4,a5
    91ce:	011ebeb3          	sltu	t4,t4,a7
    91d2:	41d78a33          	sub	s4,a5,t4
    91d6:	008a1793          	slli	a5,s4,0x8
    91da:	8446                	mv	s0,a7
    91dc:	d407c6e3          	bltz	a5,8f28 <__subdf3+0x39e>
    91e0:	0038d893          	srli	a7,a7,0x3
    91e4:	01da1613          	slli	a2,s4,0x1d
    91e8:	00c8e633          	or	a2,a7,a2
    91ec:	003a5793          	srli	a5,s4,0x3
    91f0:	4a85                	li	s5,1
    91f2:	b315                	j	8f16 <__subdf3+0x38c>
    91f4:	87d6                	mv	a5,s5
    91f6:	4701                	li	a4,0
    91f8:	4601                	li	a2,0
    91fa:	bc79                	j	8c98 <__subdf3+0x10e>
    91fc:	fe070693          	addi	a3,a4,-32
    9200:	02000613          	li	a2,32
    9204:	00d7d6b3          	srl	a3,a5,a3
    9208:	00c70a63          	beq	a4,a2,921c <__subdf3+0x692>
    920c:	04000613          	li	a2,64
    9210:	40e60733          	sub	a4,a2,a4
    9214:	00e797b3          	sll	a5,a5,a4
    9218:	00f8e8b3          	or	a7,a7,a5
    921c:	011037b3          	snez	a5,a7
    9220:	8fd5                	or	a5,a5,a3
    9222:	b4cd                	j	8d04 <__subdf3+0x17a>
    9224:	00800637          	lui	a2,0x800
    9228:	84b6                	mv	s1,a3
    922a:	00ca6a33          	or	s4,s4,a2
    922e:	46fd                	li	a3,31
    9230:	06e6cc63          	blt	a3,a4,92a8 <__subdf3+0x71e>
    9234:	02000693          	li	a3,32
    9238:	8e99                	sub	a3,a3,a4
    923a:	00da1433          	sll	s0,s4,a3
    923e:	00de96b3          	sll	a3,t4,a3
    9242:	00eedeb3          	srl	t4,t4,a4
    9246:	00d036b3          	snez	a3,a3
    924a:	01d46433          	or	s0,s0,t4
    924e:	00ea5733          	srl	a4,s4,a4
    9252:	8c55                	or	s0,s0,a3
    9254:	8f99                	sub	a5,a5,a4
    9256:	40888433          	sub	s0,a7,s0
    925a:	0088b8b3          	sltu	a7,a7,s0
    925e:	41178a33          	sub	s4,a5,a7
    9262:	8ac2                	mv	s5,a6
    9264:	baf1                	j	8c40 <__subdf3+0xb6>
    9266:	d40700e3          	beqz	a4,8fa6 <__subdf3+0x41c>
    926a:	41580733          	sub	a4,a6,s5
    926e:	bc0a83e3          	beqz	s5,8e34 <__subdf3+0x2aa>
    9272:	03800693          	li	a3,56
    9276:	08e6db63          	bge	a3,a4,930c <__subdf3+0x782>
    927a:	00879713          	slli	a4,a5,0x8
    927e:	00800a37          	lui	s4,0x800
    9282:	8ac2                	mv	s5,a6
    9284:	4401                	li	s0,0
    9286:	a80748e3          	bltz	a4,8d16 <__subdf3+0x18c>
    928a:	00188413          	addi	s0,a7,1
    928e:	8a3e                	mv	s4,a5
    9290:	b2e9                	j	8c5a <__subdf3+0xd0>
    9292:	ae0615e3          	bnez	a2,8d7c <__subdf3+0x1f2>
    9296:	00351793          	slli	a5,a0,0x3
    929a:	838d                	srli	a5,a5,0x3
    929c:	01da1613          	slli	a2,s4,0x1d
    92a0:	8e5d                	or	a2,a2,a5
    92a2:	003a5793          	srli	a5,s4,0x3
    92a6:	bcc1                	j	8d76 <__subdf3+0x1ec>
    92a8:	fe070693          	addi	a3,a4,-32
    92ac:	02000613          	li	a2,32
    92b0:	00da56b3          	srl	a3,s4,a3
    92b4:	00c70a63          	beq	a4,a2,92c8 <__subdf3+0x73e>
    92b8:	04000613          	li	a2,64
    92bc:	40e60733          	sub	a4,a2,a4
    92c0:	00ea1733          	sll	a4,s4,a4
    92c4:	00eeeeb3          	or	t4,t4,a4
    92c8:	01d03433          	snez	s0,t4
    92cc:	8c55                	or	s0,s0,a3
    92ce:	b761                	j	9256 <__subdf3+0x6cc>
    92d0:	41d88eb3          	sub	t4,a7,t4
    92d4:	414787b3          	sub	a5,a5,s4
    92d8:	01d8b8b3          	sltu	a7,a7,t4
    92dc:	41178a33          	sub	s4,a5,a7
    92e0:	008a1793          	slli	a5,s4,0x8
    92e4:	8476                	mv	s0,t4
    92e6:	c407c0e3          	bltz	a5,8f26 <__subdf3+0x39c>
    92ea:	003ede93          	srli	t4,t4,0x3
    92ee:	01da1613          	slli	a2,s4,0x1d
    92f2:	84b6                	mv	s1,a3
    92f4:	01d66633          	or	a2,a2,t4
    92f8:	003a5793          	srli	a5,s4,0x3
    92fc:	4a85                	li	s5,1
    92fe:	b921                	j	8f16 <__subdf3+0x38c>
    9300:	d0060ae3          	beqz	a2,9014 <__subdf3+0x48a>
    9304:	8a3e                	mv	s4,a5
    9306:	8ec6                	mv	t4,a7
    9308:	84b6                	mv	s1,a3
    930a:	b9e1                	j	8fe2 <__subdf3+0x458>
    930c:	008006b7          	lui	a3,0x800
    9310:	00da6a33          	or	s4,s4,a3
    9314:	46fd                	li	a3,31
    9316:	06e6cf63          	blt	a3,a4,9394 <__subdf3+0x80a>
    931a:	02000613          	li	a2,32
    931e:	8e19                	sub	a2,a2,a4
    9320:	00ca16b3          	sll	a3,s4,a2
    9324:	00ce9633          	sll	a2,t4,a2
    9328:	00eedeb3          	srl	t4,t4,a4
    932c:	00c03633          	snez	a2,a2
    9330:	01d6e6b3          	or	a3,a3,t4
    9334:	00ea5733          	srl	a4,s4,a4
    9338:	8ed1                	or	a3,a3,a2
    933a:	97ba                	add	a5,a5,a4
    933c:	98b6                	add	a7,a7,a3
    933e:	00d8b6b3          	sltu	a3,a7,a3
    9342:	00f68a33          	add	s4,a3,a5
    9346:	8446                	mv	s0,a7
    9348:	8ac2                	mv	s5,a6
    934a:	b2d1                	j	8d0e <__subdf3+0x184>
    934c:	8ac2                	mv	s5,a6
    934e:	84b6                	mv	s1,a3
    9350:	fff78a13          	addi	s4,a5,-1 # 7fffff <__rodata_start__+0x7f69bf>
    9354:	547d                	li	s0,-1
    9356:	b4bd                	j	8dc4 <__subdf3+0x23a>
    9358:	87ba                	mv	a5,a4
    935a:	4601                	li	a2,0
    935c:	4701                	li	a4,0
    935e:	ba2d                	j	8c98 <__subdf3+0x10e>
    9360:	d80709e3          	beqz	a4,90f2 <__subdf3+0x568>
    9364:	0117e8b3          	or	a7,a5,a7
    9368:	a0089ae3          	bnez	a7,8d7c <__subdf3+0x1f2>
    936c:	b72d                	j	9296 <__subdf3+0x70c>
    936e:	003e1613          	slli	a2,t3,0x3
    9372:	00365413          	srli	s0,a2,0x3
    9376:	8aba                	mv	s5,a4
    9378:	8a3e                	mv	s4,a5
    937a:	b669                	j	8f04 <__subdf3+0x37a>
    937c:	01d79613          	slli	a2,a5,0x1d
    9380:	0038d893          	srli	a7,a7,0x3
    9384:	01166633          	or	a2,a2,a7
    9388:	838d                	srli	a5,a5,0x3
    938a:	4a85                	li	s5,1
    938c:	b669                	j	8f16 <__subdf3+0x38c>
    938e:	84b6                	mv	s1,a3
    9390:	8732                	mv	a4,a2
    9392:	bd71                	j	922e <__subdf3+0x6a4>
    9394:	fe070613          	addi	a2,a4,-32
    9398:	02000693          	li	a3,32
    939c:	00ca5633          	srl	a2,s4,a2
    93a0:	00d70a63          	beq	a4,a3,93b4 <__subdf3+0x82a>
    93a4:	04000693          	li	a3,64
    93a8:	40e68733          	sub	a4,a3,a4
    93ac:	00ea1733          	sll	a4,s4,a4
    93b0:	00eeeeb3          	or	t4,t4,a4
    93b4:	01d036b3          	snez	a3,t4
    93b8:	8ed1                	or	a3,a3,a2
    93ba:	b749                	j	933c <__subdf3+0x7b2>
    93bc:	02000793          	li	a5,32
    93c0:	8f99                	sub	a5,a5,a4
    93c2:	4601                	li	a2,0
    93c4:	bc2d                	j	8dfe <__subdf3+0x274>
    93c6:	a40688e3          	beqz	a3,8e16 <__subdf3+0x28c>
    93ca:	8446                	mv	s0,a7
    93cc:	8a3e                	mv	s4,a5
    93ce:	800d                	srli	s0,s0,0x3
    93d0:	be15                	j	8f04 <__subdf3+0x37a>
    93d2:	00e5e633          	or	a2,a1,a4
    93d6:	c2060fe3          	beqz	a2,9014 <__subdf3+0x48a>
    93da:	8a3a                	mv	s4,a4
    93dc:	8eae                	mv	t4,a1
    93de:	b111                	j	8fe2 <__subdf3+0x458>
    93e0:	830d                	srli	a4,a4,0x3
    93e2:	0676                	slli	a2,a2,0x1d
    93e4:	8e59                	or	a2,a2,a4
    93e6:	8391                	srli	a5,a5,0x4
    93e8:	4a89                	li	s5,2
    93ea:	b635                	j	8f16 <__subdf3+0x38c>
    93ec:	4581                	li	a1,0
    93ee:	7ff00793          	li	a5,2047
    93f2:	00080737          	lui	a4,0x80
    93f6:	b04d                	j	8c98 <__subdf3+0x10e>
    93f8:	8736                	mv	a4,a3
    93fa:	bf29                	j	9314 <__subdf3+0x78a>
    93fc:	ff8007b7          	lui	a5,0xff800
    9400:	17fd                	addi	a5,a5,-1 # ff7fffff <linker_stack_start+0xef7d000f>
    9402:	00fa77b3          	and	a5,s4,a5
    9406:	01d79613          	slli	a2,a5,0x1d
    940a:	0038de93          	srli	t4,a7,0x3
    940e:	07a6                	slli	a5,a5,0x9
    9410:	00c7d713          	srli	a4,a5,0xc
    9414:	01d66633          	or	a2,a2,t4
    9418:	4785                	li	a5,1
    941a:	b8bd                	j	8c98 <__subdf3+0x10e>
    941c:	8aba                	mv	s5,a4
    941e:	84b6                	mv	s1,a3
    9420:	ba79                	j	8dbe <__subdf3+0x234>
    9422:	01d79613          	slli	a2,a5,0x1d
    9426:	003ede93          	srli	t4,t4,0x3
    942a:	01d66633          	or	a2,a2,t4
    942e:	838d                	srli	a5,a5,0x3
    9430:	b4dd                	j	8f16 <__subdf3+0x38c>
    9432:	800d                	srli	s0,s0,0x3
    9434:	01da1613          	slli	a2,s4,0x1d
    9438:	8e41                	or	a2,a2,s0
    943a:	8391                	srli	a5,a5,0x4
    943c:	8aba                	mv	s5,a4
    943e:	bce1                	j	8f16 <__subdf3+0x38c>

00009440 <__fixdfsi>:
    9440:	0145d793          	srli	a5,a1,0x14
    9444:	001006b7          	lui	a3,0x100
    9448:	fff68713          	addi	a4,a3,-1 # fffff <__rodata_start__+0xf69bf>
    944c:	7ff7f793          	andi	a5,a5,2047
    9450:	3fe00613          	li	a2,1022
    9454:	8f6d                	and	a4,a4,a1
    9456:	81fd                	srli	a1,a1,0x1f
    9458:	00f65b63          	bge	a2,a5,946e <__fixdfsi+0x2e>
    945c:	41d00613          	li	a2,1053
    9460:	00f65963          	bge	a2,a5,9472 <__fixdfsi+0x32>
    9464:	80000537          	lui	a0,0x80000
    9468:	157d                	addi	a0,a0,-1 # 7fffffff <linker_stack_start+0x6ffd000f>
    946a:	952e                	add	a0,a0,a1
    946c:	8082                	ret
    946e:	4501                	li	a0,0
    9470:	8082                	ret
    9472:	43300613          	li	a2,1075
    9476:	8e1d                	sub	a2,a2,a5
    9478:	487d                	li	a6,31
    947a:	8f55                	or	a4,a4,a3
    947c:	00c85d63          	bge	a6,a2,9496 <__fixdfsi+0x56>
    9480:	41300693          	li	a3,1043
    9484:	40f687b3          	sub	a5,a3,a5
    9488:	00f75733          	srl	a4,a4,a5
    948c:	40e00533          	neg	a0,a4
    9490:	f1e5                	bnez	a1,9470 <__fixdfsi+0x30>
    9492:	853a                	mv	a0,a4
    9494:	8082                	ret
    9496:	bed78793          	addi	a5,a5,-1043
    949a:	00f71733          	sll	a4,a4,a5
    949e:	00c55533          	srl	a0,a0,a2
    94a2:	8f49                	or	a4,a4,a0
    94a4:	b7e5                	j	948c <__fixdfsi+0x4c>

000094a6 <__fixunsdfsi>:
    94a6:	0145d793          	srli	a5,a1,0x14
    94aa:	00100637          	lui	a2,0x100
    94ae:	fff60713          	addi	a4,a2,-1 # fffff <__rodata_start__+0xf69bf>
    94b2:	7ff7f793          	andi	a5,a5,2047
    94b6:	3fe00813          	li	a6,1022
    94ba:	86aa                	mv	a3,a0
    94bc:	8f6d                	and	a4,a4,a1
    94be:	4501                	li	a0,0
    94c0:	81fd                	srli	a1,a1,0x1f
    94c2:	00f85363          	bge	a6,a5,94c8 <__fixunsdfsi+0x22>
    94c6:	c191                	beqz	a1,94ca <__fixunsdfsi+0x24>
    94c8:	8082                	ret
    94ca:	41e00593          	li	a1,1054
    94ce:	557d                	li	a0,-1
    94d0:	fef5cce3          	blt	a1,a5,94c8 <__fixunsdfsi+0x22>
    94d4:	43300593          	li	a1,1075
    94d8:	8d9d                	sub	a1,a1,a5
    94da:	457d                	li	a0,31
    94dc:	8f51                	or	a4,a4,a2
    94de:	00b54a63          	blt	a0,a1,94f2 <__fixunsdfsi+0x4c>
    94e2:	bed78793          	addi	a5,a5,-1043
    94e6:	00f71733          	sll	a4,a4,a5
    94ea:	00b6d533          	srl	a0,a3,a1
    94ee:	8d59                	or	a0,a0,a4
    94f0:	8082                	ret
    94f2:	41300513          	li	a0,1043
    94f6:	8d1d                	sub	a0,a0,a5
    94f8:	00a75533          	srl	a0,a4,a0
    94fc:	8082                	ret

000094fe <__floatsidf>:
    94fe:	1101                	addi	sp,sp,-32
    9500:	ce06                	sw	ra,28(sp)
    9502:	cc22                	sw	s0,24(sp)
    9504:	ca26                	sw	s1,20(sp)
    9506:	c84a                	sw	s2,16(sp)
    9508:	c64e                	sw	s3,12(sp)
    950a:	cd0d                	beqz	a0,9544 <__floatsidf+0x46>
    950c:	41f55713          	srai	a4,a0,0x1f
    9510:	00a744b3          	xor	s1,a4,a0
    9514:	8c99                	sub	s1,s1,a4
    9516:	87aa                	mv	a5,a0
    9518:	8526                	mv	a0,s1
    951a:	01f7d413          	srli	s0,a5,0x1f
    951e:	284d                	jal	95d0 <__clzsi2>
    9520:	41e00793          	li	a5,1054
    9524:	8f89                	sub	a5,a5,a0
    9526:	4729                	li	a4,10
    9528:	7ff7f793          	andi	a5,a5,2047
    952c:	02a74d63          	blt	a4,a0,9566 <__floatsidf+0x68>
    9530:	472d                	li	a4,11
    9532:	8f09                	sub	a4,a4,a0
    9534:	00e4d733          	srl	a4,s1,a4
    9538:	0732                	slli	a4,a4,0xc
    953a:	0555                	addi	a0,a0,21
    953c:	8331                	srli	a4,a4,0xc
    953e:	00a494b3          	sll	s1,s1,a0
    9542:	a029                	j	954c <__floatsidf+0x4e>
    9544:	4401                	li	s0,0
    9546:	4781                	li	a5,0
    9548:	4701                	li	a4,0
    954a:	4481                	li	s1,0
    954c:	07d2                	slli	a5,a5,0x14
    954e:	047e                	slli	s0,s0,0x1f
    9550:	8fd9                	or	a5,a5,a4
    9552:	40f2                	lw	ra,28(sp)
    9554:	8fc1                	or	a5,a5,s0
    9556:	4462                	lw	s0,24(sp)
    9558:	4942                	lw	s2,16(sp)
    955a:	49b2                	lw	s3,12(sp)
    955c:	8526                	mv	a0,s1
    955e:	85be                	mv	a1,a5
    9560:	44d2                	lw	s1,20(sp)
    9562:	6105                	addi	sp,sp,32
    9564:	8082                	ret
    9566:	1555                	addi	a0,a0,-11
    9568:	00a49733          	sll	a4,s1,a0
    956c:	0732                	slli	a4,a4,0xc
    956e:	8331                	srli	a4,a4,0xc
    9570:	4481                	li	s1,0
    9572:	bfe9                	j	954c <__floatsidf+0x4e>

00009574 <__floatunsidf>:
    9574:	1141                	addi	sp,sp,-16
    9576:	c422                	sw	s0,8(sp)
    9578:	c606                	sw	ra,12(sp)
    957a:	c24a                	sw	s2,4(sp)
    957c:	c04e                	sw	s3,0(sp)
    957e:	842a                	mv	s0,a0
    9580:	c50d                	beqz	a0,95aa <__floatunsidf+0x36>
    9582:	20b9                	jal	95d0 <__clzsi2>
    9584:	41e00793          	li	a5,1054
    9588:	8f89                	sub	a5,a5,a0
    958a:	4729                	li	a4,10
    958c:	7ff7f793          	andi	a5,a5,2047
    9590:	02a74963          	blt	a4,a0,95c2 <__floatunsidf+0x4e>
    9594:	472d                	li	a4,11
    9596:	8f09                	sub	a4,a4,a0
    9598:	00e45733          	srl	a4,s0,a4
    959c:	0732                	slli	a4,a4,0xc
    959e:	01550693          	addi	a3,a0,21
    95a2:	8331                	srli	a4,a4,0xc
    95a4:	00d41433          	sll	s0,s0,a3
    95a8:	a019                	j	95ae <__floatunsidf+0x3a>
    95aa:	4781                	li	a5,0
    95ac:	4701                	li	a4,0
    95ae:	40b2                	lw	ra,12(sp)
    95b0:	8522                	mv	a0,s0
    95b2:	4422                	lw	s0,8(sp)
    95b4:	07d2                	slli	a5,a5,0x14
    95b6:	8fd9                	or	a5,a5,a4
    95b8:	4912                	lw	s2,4(sp)
    95ba:	4982                	lw	s3,0(sp)
    95bc:	85be                	mv	a1,a5
    95be:	0141                	addi	sp,sp,16
    95c0:	8082                	ret
    95c2:	1555                	addi	a0,a0,-11
    95c4:	00a41733          	sll	a4,s0,a0
    95c8:	0732                	slli	a4,a4,0xc
    95ca:	8331                	srli	a4,a4,0xc
    95cc:	4401                	li	s0,0
    95ce:	b7c5                	j	95ae <__floatunsidf+0x3a>

000095d0 <__clzsi2>:
    95d0:	67c1                	lui	a5,0x10
    95d2:	02f57663          	bgeu	a0,a5,95fe <__clzsi2+0x2e>
    95d6:	10053793          	sltiu	a5,a0,256
    95da:	0017b793          	seqz	a5,a5
    95de:	078e                	slli	a5,a5,0x3
    95e0:	02000713          	li	a4,32
    95e4:	8f1d                	sub	a4,a4,a5
    95e6:	00f55533          	srl	a0,a0,a5
    95ea:	0fffe797          	auipc	a5,0xfffe
    95ee:	83a7a783          	lw	a5,-1990(a5) # 10006e24 <_GLOBAL_OFFSET_TABLE_+0x4>
    95f2:	97aa                	add	a5,a5,a0
    95f4:	0007c503          	lbu	a0,0(a5)
    95f8:	40a70533          	sub	a0,a4,a0
    95fc:	8082                	ret
    95fe:	010007b7          	lui	a5,0x1000
    9602:	02f57063          	bgeu	a0,a5,9622 <__clzsi2+0x52>
    9606:	4741                	li	a4,16
    9608:	87ba                	mv	a5,a4
    960a:	00f55533          	srl	a0,a0,a5
    960e:	0fffe797          	auipc	a5,0xfffe
    9612:	8167a783          	lw	a5,-2026(a5) # 10006e24 <_GLOBAL_OFFSET_TABLE_+0x4>
    9616:	97aa                	add	a5,a5,a0
    9618:	0007c503          	lbu	a0,0(a5)
    961c:	40a70533          	sub	a0,a4,a0
    9620:	8082                	ret
    9622:	47e1                	li	a5,24
    9624:	00f55533          	srl	a0,a0,a5
    9628:	0fffd797          	auipc	a5,0xfffd
    962c:	7fc7a783          	lw	a5,2044(a5) # 10006e24 <_GLOBAL_OFFSET_TABLE_+0x4>
    9630:	97aa                	add	a5,a5,a0
    9632:	0007c503          	lbu	a0,0(a5)
    9636:	4721                	li	a4,8
    9638:	40a70533          	sub	a0,a4,a0
    963c:	8082                	ret
