
/home/zbn/Simulator/lpnpu/kuiloongNN/test/software/app/build/firmware.elf:     file format elf32-littleriscv
/home/zbn/Simulator/lpnpu/kuiloongNN/test/software/app/build/firmware.elf


Disassembly of section .text:

00000000 <__text_start__>:
       0:	10030137          	lui	sp,0x10030
       4:	ff010113          	addi	sp,sp,-16 # 1002fff0 <linker_stack_start>
       8:	329000ef          	jal	b30 <main>
       c:	a001                	j	c <__text_start__+0xc>

0000000e <_Z4insnv>:
       e:	c0202573          	rdinstret	a0
      12:	8082                	ret

00000014 <_Z14test_componentv>:
      14:	1101                	addi	sp,sp,-32
      16:	ca26                	sw	s1,20(sp)
      18:	c84a                	sw	s2,16(sp)
      1a:	c64e                	sw	s3,12(sp)
      1c:	10000937          	lui	s2,0x10000
      20:	100009b7          	lui	s3,0x10000
      24:	100004b7          	lui	s1,0x10000
      28:	00098613          	mv	a2,s3
      2c:	01490593          	addi	a1,s2,20 # 10000014 <__rodata_start__+0xfff4f1c>
      30:	46f9                	li	a3,30
      32:	02048513          	addi	a0,s1,32 # 10000020 <__rodata_start__+0xfff4f28>
      36:	ce06                	sw	ra,28(sp)
      38:	cc22                	sw	s0,24(sp)
      3a:	4ae080ef          	jal	84e8 <_Z7printf_PKcz>
      3e:	10000537          	lui	a0,0x10000
      42:	03450513          	addi	a0,a0,52 # 10000034 <__rodata_start__+0xfff4f3c>
      46:	4a2080ef          	jal	84e8 <_Z7printf_PKcz>
      4a:	10000437          	lui	s0,0x10000
      4e:	05840513          	addi	a0,s0,88 # 10000058 <__rodata_start__+0xfff4f60>
      52:	496080ef          	jal	84e8 <_Z7printf_PKcz>
      56:	55e080ef          	jal	85b4 <_Z12test_printf_v>
      5a:	11c070ef          	jal	7176 <_Z11test_mallocv>
      5e:	1c8070ef          	jal	7226 <_Z20test_malloc_boundaryv>
      62:	00098613          	mv	a2,s3
      66:	01490593          	addi	a1,s2,20
      6a:	02200693          	li	a3,34
      6e:	02048513          	addi	a0,s1,32
      72:	476080ef          	jal	84e8 <_Z7printf_PKcz>
      76:	10000537          	lui	a0,0x10000
      7a:	05c50513          	addi	a0,a0,92 # 1000005c <__rodata_start__+0xfff4f64>
      7e:	46a080ef          	jal	84e8 <_Z7printf_PKcz>
      82:	05840513          	addi	a0,s0,88
      86:	4462                	lw	s0,24(sp)
      88:	40f2                	lw	ra,28(sp)
      8a:	44d2                	lw	s1,20(sp)
      8c:	4942                	lw	s2,16(sp)
      8e:	49b2                	lw	s3,12(sp)
      90:	6105                	addi	sp,sp,32
      92:	4560806f          	j	84e8 <_Z7printf_PKcz>

00000096 <_Z14test_benchmarkv>:
      96:	1101                	addi	sp,sp,-32
      98:	ca26                	sw	s1,20(sp)
      9a:	c84a                	sw	s2,16(sp)
      9c:	c64e                	sw	s3,12(sp)
      9e:	10000937          	lui	s2,0x10000
      a2:	100009b7          	lui	s3,0x10000
      a6:	100004b7          	lui	s1,0x10000
      aa:	08898613          	addi	a2,s3,136 # 10000088 <__rodata_start__+0xfff4f90>
      ae:	01490593          	addi	a1,s2,20 # 10000014 <__rodata_start__+0xfff4f1c>
      b2:	02600693          	li	a3,38
      b6:	02048513          	addi	a0,s1,32 # 10000020 <__rodata_start__+0xfff4f28>
      ba:	ce06                	sw	ra,28(sp)
      bc:	cc22                	sw	s0,24(sp)
      be:	42a080ef          	jal	84e8 <_Z7printf_PKcz>
      c2:	10000537          	lui	a0,0x10000
      c6:	03450513          	addi	a0,a0,52 # 10000034 <__rodata_start__+0xfff4f3c>
      ca:	41e080ef          	jal	84e8 <_Z7printf_PKcz>
      ce:	10000437          	lui	s0,0x10000
      d2:	05840513          	addi	a0,s0,88 # 10000058 <__rodata_start__+0xfff4f60>
      d6:	412080ef          	jal	84e8 <_Z7printf_PKcz>
      da:	40000513          	li	a0,1024
      de:	7d7060ef          	jal	70b4 <_Z6mallocj>
      e2:	40000513          	li	a0,1024
      e6:	7cf060ef          	jal	70b4 <_Z6mallocj>
      ea:	40000513          	li	a0,1024
      ee:	7c7060ef          	jal	70b4 <_Z6mallocj>
      f2:	40000513          	li	a0,1024
      f6:	7bf060ef          	jal	70b4 <_Z6mallocj>
      fa:	08898613          	addi	a2,s3,136
      fe:	01490593          	addi	a1,s2,20
     102:	03600693          	li	a3,54
     106:	02048513          	addi	a0,s1,32
     10a:	3de080ef          	jal	84e8 <_Z7printf_PKcz>
     10e:	10000537          	lui	a0,0x10000
     112:	09850513          	addi	a0,a0,152 # 10000098 <__rodata_start__+0xfff4fa0>
     116:	3d2080ef          	jal	84e8 <_Z7printf_PKcz>
     11a:	05840513          	addi	a0,s0,88
     11e:	4462                	lw	s0,24(sp)
     120:	40f2                	lw	ra,28(sp)
     122:	44d2                	lw	s1,20(sp)
     124:	4942                	lw	s2,16(sp)
     126:	49b2                	lw	s3,12(sp)
     128:	6105                	addi	sp,sp,32
     12a:	3be0806f          	j	84e8 <_Z7printf_PKcz>

0000012e <_Z13test_cpu_procv>:
     12e:	714d                	addi	sp,sp,-336
     130:	13312e23          	sw	s3,316(sp)
     134:	13412c23          	sw	s4,312(sp)
     138:	13512a23          	sw	s5,308(sp)
     13c:	10000a37          	lui	s4,0x10000
     140:	10000ab7          	lui	s5,0x10000
     144:	100009b7          	lui	s3,0x10000
     148:	03a00693          	li	a3,58
     14c:	0c0a8613          	addi	a2,s5,192 # 100000c0 <__rodata_start__+0xfff4fc8>
     150:	014a0593          	addi	a1,s4,20 # 10000014 <__rodata_start__+0xfff4f1c>
     154:	02098513          	addi	a0,s3,32 # 10000020 <__rodata_start__+0xfff4f28>
     158:	14112623          	sw	ra,332(sp)
     15c:	14812423          	sw	s0,328(sp)
     160:	15212023          	sw	s2,320(sp)
     164:	14912223          	sw	s1,324(sp)
     168:	13612823          	sw	s6,304(sp)
     16c:	13712623          	sw	s7,300(sp)
     170:	13812423          	sw	s8,296(sp)
     174:	13912223          	sw	s9,292(sp)
     178:	13a12023          	sw	s10,288(sp)
     17c:	11b12e23          	sw	s11,284(sp)
     180:	368080ef          	jal	84e8 <_Z7printf_PKcz>
     184:	10000537          	lui	a0,0x10000
     188:	0d050513          	addi	a0,a0,208 # 100000d0 <__rodata_start__+0xfff4fd8>
     18c:	35c080ef          	jal	84e8 <_Z7printf_PKcz>
     190:	10000937          	lui	s2,0x10000
     194:	05890513          	addi	a0,s2,88 # 10000058 <__rodata_start__+0xfff4f60>
     198:	350080ef          	jal	84e8 <_Z7printf_PKcz>
     19c:	4551                	li	a0,20
     19e:	717060ef          	jal	70b4 <_Z6mallocj>
     1a2:	842a                	mv	s0,a0
     1a4:	4551                	li	a0,20
     1a6:	70f060ef          	jal	70b4 <_Z6mallocj>
     1aa:	c019                	beqz	s0,1b0 <_Z13test_cpu_procv+0x82>
     1ac:	84aa                	mv	s1,a0
     1ae:	e135                	bnez	a0,212 <_Z13test_cpu_procv+0xe4>
     1b0:	04100693          	li	a3,65
     1b4:	0c0a8613          	addi	a2,s5,192
     1b8:	014a0593          	addi	a1,s4,20
     1bc:	02098513          	addi	a0,s3,32
     1c0:	328080ef          	jal	84e8 <_Z7printf_PKcz>
     1c4:	10000537          	lui	a0,0x10000
     1c8:	0e850513          	addi	a0,a0,232 # 100000e8 <__rodata_start__+0xfff4ff0>
     1cc:	31c080ef          	jal	84e8 <_Z7printf_PKcz>
     1d0:	05890513          	addi	a0,s2,88
     1d4:	314080ef          	jal	84e8 <_Z7printf_PKcz>
     1d8:	9002                	ebreak
     1da:	14c12083          	lw	ra,332(sp)
     1de:	14812403          	lw	s0,328(sp)
     1e2:	14412483          	lw	s1,324(sp)
     1e6:	14012903          	lw	s2,320(sp)
     1ea:	13c12983          	lw	s3,316(sp)
     1ee:	13812a03          	lw	s4,312(sp)
     1f2:	13412a83          	lw	s5,308(sp)
     1f6:	13012b03          	lw	s6,304(sp)
     1fa:	12c12b83          	lw	s7,300(sp)
     1fe:	12812c03          	lw	s8,296(sp)
     202:	12412c83          	lw	s9,292(sp)
     206:	12012d03          	lw	s10,288(sp)
     20a:	11c12d83          	lw	s11,284(sp)
     20e:	6171                	addi	sp,sp,336
     210:	8082                	ret
     212:	04500693          	li	a3,69
     216:	0c0a8613          	addi	a2,s5,192
     21a:	014a0593          	addi	a1,s4,20
     21e:	02098513          	addi	a0,s3,32
     222:	2c6080ef          	jal	84e8 <_Z7printf_PKcz>
     226:	10000537          	lui	a0,0x10000
     22a:	11850513          	addi	a0,a0,280 # 10000118 <__rodata_start__+0xfff5020>
     22e:	2ba080ef          	jal	84e8 <_Z7printf_PKcz>
     232:	05890513          	addi	a0,s2,88
     236:	2b2080ef          	jal	84e8 <_Z7printf_PKcz>
     23a:	4b85                	li	s7,1
     23c:	4b41                	li	s6,16
     23e:	01742023          	sw	s7,0(s0)
     242:	01742223          	sw	s7,4(s0)
     246:	01642423          	sw	s6,8(s0)
     24a:	01642623          	sw	s6,12(s0)
     24e:	10000513          	li	a0,256
     252:	663060ef          	jal	70b4 <_Z6mallocj>
     256:	c808                	sw	a0,16(s0)
     258:	0174a023          	sw	s7,0(s1)
     25c:	0174a223          	sw	s7,4(s1)
     260:	0164a423          	sw	s6,8(s1)
     264:	0164a623          	sw	s6,12(s1)
     268:	10000513          	li	a0,256
     26c:	649060ef          	jal	70b4 <_Z6mallocj>
     270:	c888                	sw	a0,16(s1)
     272:	481c                	lw	a5,16(s0)
     274:	c391                	beqz	a5,278 <_Z13test_cpu_procv+0x14a>
     276:	ed05                	bnez	a0,2ae <_Z13test_cpu_procv+0x180>
     278:	05600693          	li	a3,86
     27c:	0c0a8613          	addi	a2,s5,192
     280:	014a0593          	addi	a1,s4,20
     284:	02098513          	addi	a0,s3,32
     288:	260080ef          	jal	84e8 <_Z7printf_PKcz>
     28c:	10000537          	lui	a0,0x10000
     290:	13450513          	addi	a0,a0,308 # 10000134 <__rodata_start__+0xfff503c>
     294:	254080ef          	jal	84e8 <_Z7printf_PKcz>
     298:	05890513          	addi	a0,s2,88
     29c:	24c080ef          	jal	84e8 <_Z7printf_PKcz>
     2a0:	8522                	mv	a0,s0
     2a2:	621060ef          	jal	70c2 <_Z4freePv>
     2a6:	8526                	mv	a0,s1
     2a8:	61b060ef          	jal	70c2 <_Z4freePv>
     2ac:	b735                	j	1d8 <_Z13test_cpu_procv+0xaa>
     2ae:	014a0593          	addi	a1,s4,20
     2b2:	05c00693          	li	a3,92
     2b6:	0c0a8613          	addi	a2,s5,192
     2ba:	02098513          	addi	a0,s3,32
     2be:	22a080ef          	jal	84e8 <_Z7printf_PKcz>
     2c2:	10000537          	lui	a0,0x10000
     2c6:	15c50513          	addi	a0,a0,348 # 1000015c <__rodata_start__+0xfff5064>
     2ca:	21e080ef          	jal	84e8 <_Z7printf_PKcz>
     2ce:	05890513          	addi	a0,s2,88
     2d2:	216080ef          	jal	84e8 <_Z7printf_PKcz>
     2d6:	4781                	li	a5,0
     2d8:	07f00593          	li	a1,127
     2dc:	10000513          	li	a0,256
     2e0:	01078613          	addi	a2,a5,16
     2e4:	4814                	lw	a3,16(s0)
     2e6:	0ff7f713          	zext.b	a4,a5
     2ea:	f8070813          	addi	a6,a4,-128
     2ee:	96be                	add	a3,a3,a5
     2f0:	01068023          	sb	a6,0(a3)
     2f4:	4894                	lw	a3,16(s1)
     2f6:	40e58733          	sub	a4,a1,a4
     2fa:	96be                	add	a3,a3,a5
     2fc:	00e68023          	sb	a4,0(a3)
     300:	0785                	addi	a5,a5,1
     302:	fec791e3          	bne	a5,a2,2e4 <_Z13test_cpu_procv+0x1b6>
     306:	fca79de3          	bne	a5,a0,2e0 <_Z13test_cpu_procv+0x1b2>
     30a:	06800693          	li	a3,104
     30e:	0c0a8613          	addi	a2,s5,192
     312:	014a0593          	addi	a1,s4,20
     316:	02098513          	addi	a0,s3,32
     31a:	1ce080ef          	jal	84e8 <_Z7printf_PKcz>
     31e:	10000537          	lui	a0,0x10000
     322:	17850513          	addi	a0,a0,376 # 10000178 <__rodata_start__+0xfff5080>
     326:	1c2080ef          	jal	84e8 <_Z7printf_PKcz>
     32a:	05890513          	addi	a0,s2,88
     32e:	1ba080ef          	jal	84e8 <_Z7printf_PKcz>
     332:	01042303          	lw	t1,16(s0)
     336:	0104ae03          	lw	t3,16(s1)
     33a:	4ec1                	li	t4,16
     33c:	4781                	li	a5,0
     33e:	01d10cb3          	add	s9,sp,t4
     342:	10000f13          	li	t5,256
     346:	4701                	li	a4,0
     348:	00f308b3          	add	a7,t1,a5
     34c:	00fc8833          	add	a6,s9,a5
     350:	a02d                	j	37a <_Z13test_cpu_procv+0x24c>
     352:	00d88533          	add	a0,a7,a3
     356:	00058f83          	lb	t6,0(a1)
     35a:	00050503          	lb	a0,0(a0)
     35e:	0685                	addi	a3,a3,1
     360:	05c1                	addi	a1,a1,16
     362:	03f50533          	mul	a0,a0,t6
     366:	962a                	add	a2,a2,a0
     368:	ffd695e3          	bne	a3,t4,352 <_Z13test_cpu_procv+0x224>
     36c:	00e805b3          	add	a1,a6,a4
     370:	00c58023          	sb	a2,0(a1)
     374:	0705                	addi	a4,a4,1
     376:	00d70763          	beq	a4,a3,384 <_Z13test_cpu_procv+0x256>
     37a:	00ee05b3          	add	a1,t3,a4
     37e:	4681                	li	a3,0
     380:	4601                	li	a2,0
     382:	bfc1                	j	352 <_Z13test_cpu_procv+0x224>
     384:	07c1                	addi	a5,a5,16
     386:	fde790e3          	bne	a5,t5,346 <_Z13test_cpu_procv+0x218>
     38a:	07500693          	li	a3,117
     38e:	0c0a8613          	addi	a2,s5,192
     392:	014a0593          	addi	a1,s4,20
     396:	02098513          	addi	a0,s3,32
     39a:	14e080ef          	jal	84e8 <_Z7printf_PKcz>
     39e:	10000537          	lui	a0,0x10000
     3a2:	19450513          	addi	a0,a0,404 # 10000194 <__rodata_start__+0xfff509c>
     3a6:	142080ef          	jal	84e8 <_Z7printf_PKcz>
     3aa:	05890513          	addi	a0,s2,88
     3ae:	13a080ef          	jal	84e8 <_Z7printf_PKcz>
     3b2:	4601                	li	a2,0
     3b4:	85a6                	mv	a1,s1
     3b6:	8522                	mv	a0,s0
     3b8:	2db9                	jal	a16 <_Z15matrix_multiplyIaEP12acenn_matrixIT_ES3_S3_h>
     3ba:	8b2a                	mv	s6,a0
     3bc:	ed0d                	bnez	a0,3f6 <_Z13test_cpu_procv+0x2c8>
     3be:	07d00693          	li	a3,125
     3c2:	0c0a8613          	addi	a2,s5,192
     3c6:	014a0593          	addi	a1,s4,20
     3ca:	02098513          	addi	a0,s3,32
     3ce:	11a080ef          	jal	84e8 <_Z7printf_PKcz>
     3d2:	10000537          	lui	a0,0x10000
     3d6:	1ac50513          	addi	a0,a0,428 # 100001ac <__rodata_start__+0xfff50b4>
     3da:	10e080ef          	jal	84e8 <_Z7printf_PKcz>
     3de:	05890513          	addi	a0,s2,88
     3e2:	106080ef          	jal	84e8 <_Z7printf_PKcz>
     3e6:	4808                	lw	a0,16(s0)
     3e8:	4db060ef          	jal	70c2 <_Z4freePv>
     3ec:	8522                	mv	a0,s0
     3ee:	4d5060ef          	jal	70c2 <_Z4freePv>
     3f2:	4888                	lw	a0,16(s1)
     3f4:	b57d                	j	2a2 <_Z13test_cpu_procv+0x174>
     3f6:	08500693          	li	a3,133
     3fa:	0c0a8613          	addi	a2,s5,192
     3fe:	014a0593          	addi	a1,s4,20
     402:	02098513          	addi	a0,s3,32
     406:	0e2080ef          	jal	84e8 <_Z7printf_PKcz>
     40a:	10000537          	lui	a0,0x10000
     40e:	1d450513          	addi	a0,a0,468 # 100001d4 <__rodata_start__+0xfff50dc>
     412:	0d6080ef          	jal	84e8 <_Z7printf_PKcz>
     416:	05890513          	addi	a0,s2,88
     41a:	0ce080ef          	jal	84e8 <_Z7printf_PKcz>
     41e:	4c01                	li	s8,0
     420:	4d01                	li	s10,0
     422:	10000db7          	lui	s11,0x10000
     426:	48c1                	li	a7,16
     428:	004c1793          	slli	a5,s8,0x4
     42c:	4b81                	li	s7,0
     42e:	010b2703          	lw	a4,16(s6)
     432:	973e                	add	a4,a4,a5
     434:	00070803          	lb	a6,0(a4)
     438:	00fc8733          	add	a4,s9,a5
     43c:	00070703          	lb	a4,0(a4)
     440:	c442                	sw	a6,8(sp)
     442:	c63a                	sw	a4,12(sp)
     444:	02e80d63          	beq	a6,a4,47e <_Z13test_cpu_procv+0x350>
     448:	09000693          	li	a3,144
     44c:	0c0a8613          	addi	a2,s5,192
     450:	014a0593          	addi	a1,s4,20
     454:	02098513          	addi	a0,s3,32
     458:	c23e                	sw	a5,4(sp)
     45a:	08e080ef          	jal	84e8 <_Z7printf_PKcz>
     45e:	4822                	lw	a6,8(sp)
     460:	4732                	lw	a4,12(sp)
     462:	865e                	mv	a2,s7
     464:	86c2                	mv	a3,a6
     466:	85e2                	mv	a1,s8
     468:	1e8d8513          	addi	a0,s11,488 # 100001e8 <__rodata_start__+0xfff50f0>
     46c:	07c080ef          	jal	84e8 <_Z7printf_PKcz>
     470:	05890513          	addi	a0,s2,88
     474:	074080ef          	jal	84e8 <_Z7printf_PKcz>
     478:	4792                	lw	a5,4(sp)
     47a:	0d05                	addi	s10,s10,1
     47c:	48c1                	li	a7,16
     47e:	0b85                	addi	s7,s7,1
     480:	0785                	addi	a5,a5,1
     482:	fb1b96e3          	bne	s7,a7,42e <_Z13test_cpu_procv+0x300>
     486:	0c05                	addi	s8,s8,1
     488:	fb7c10e3          	bne	s8,s7,428 <_Z13test_cpu_procv+0x2fa>
     48c:	09400693          	li	a3,148
     490:	0c0a8613          	addi	a2,s5,192
     494:	014a0593          	addi	a1,s4,20
     498:	02098513          	addi	a0,s3,32
     49c:	04c080ef          	jal	84e8 <_Z7printf_PKcz>
     4a0:	10000537          	lui	a0,0x10000
     4a4:	20c50513          	addi	a0,a0,524 # 1000020c <__rodata_start__+0xfff5114>
     4a8:	040080ef          	jal	84e8 <_Z7printf_PKcz>
     4ac:	05890513          	addi	a0,s2,88
     4b0:	038080ef          	jal	84e8 <_Z7printf_PKcz>
     4b4:	0a0d1863          	bnez	s10,564 <_Z13test_cpu_procv+0x436>
     4b8:	09800693          	li	a3,152
     4bc:	0c0a8613          	addi	a2,s5,192
     4c0:	014a0593          	addi	a1,s4,20
     4c4:	02098513          	addi	a0,s3,32
     4c8:	020080ef          	jal	84e8 <_Z7printf_PKcz>
     4cc:	10000537          	lui	a0,0x10000
     4d0:	22850513          	addi	a0,a0,552 # 10000228 <__rodata_start__+0xfff5130>
     4d4:	014080ef          	jal	84e8 <_Z7printf_PKcz>
     4d8:	05890513          	addi	a0,s2,88
     4dc:	00c080ef          	jal	84e8 <_Z7printf_PKcz>
     4e0:	4808                	lw	a0,16(s0)
     4e2:	3e1060ef          	jal	70c2 <_Z4freePv>
     4e6:	8522                	mv	a0,s0
     4e8:	3db060ef          	jal	70c2 <_Z4freePv>
     4ec:	4888                	lw	a0,16(s1)
     4ee:	3d5060ef          	jal	70c2 <_Z4freePv>
     4f2:	8526                	mv	a0,s1
     4f4:	3cf060ef          	jal	70c2 <_Z4freePv>
     4f8:	010b2503          	lw	a0,16(s6)
     4fc:	3c7060ef          	jal	70c2 <_Z4freePv>
     500:	855a                	mv	a0,s6
     502:	3c1060ef          	jal	70c2 <_Z4freePv>
     506:	0c0a8613          	addi	a2,s5,192
     50a:	014a0593          	addi	a1,s4,20
     50e:	0a400693          	li	a3,164
     512:	02098513          	addi	a0,s3,32
     516:	7d3070ef          	jal	84e8 <_Z7printf_PKcz>
     51a:	10000537          	lui	a0,0x10000
     51e:	27050513          	addi	a0,a0,624 # 10000270 <__rodata_start__+0xfff5178>
     522:	7c7070ef          	jal	84e8 <_Z7printf_PKcz>
     526:	14812403          	lw	s0,328(sp)
     52a:	14c12083          	lw	ra,332(sp)
     52e:	14412483          	lw	s1,324(sp)
     532:	13c12983          	lw	s3,316(sp)
     536:	13812a03          	lw	s4,312(sp)
     53a:	13412a83          	lw	s5,308(sp)
     53e:	13012b03          	lw	s6,304(sp)
     542:	12c12b83          	lw	s7,300(sp)
     546:	12812c03          	lw	s8,296(sp)
     54a:	12412c83          	lw	s9,292(sp)
     54e:	12012d03          	lw	s10,288(sp)
     552:	11c12d83          	lw	s11,284(sp)
     556:	05890513          	addi	a0,s2,88
     55a:	14012903          	lw	s2,320(sp)
     55e:	6171                	addi	sp,sp,336
     560:	7890706f          	j	84e8 <_Z7printf_PKcz>
     564:	014a0593          	addi	a1,s4,20
     568:	09a00693          	li	a3,154
     56c:	0c0a8613          	addi	a2,s5,192
     570:	02098513          	addi	a0,s3,32
     574:	775070ef          	jal	84e8 <_Z7printf_PKcz>
     578:	10000537          	lui	a0,0x10000
     57c:	85ea                	mv	a1,s10
     57e:	25450513          	addi	a0,a0,596 # 10000254 <__rodata_start__+0xfff515c>
     582:	767070ef          	jal	84e8 <_Z7printf_PKcz>
     586:	bf89                	j	4d8 <_Z13test_cpu_procv+0x3aa>

00000588 <_Z12test_fc_procv>:
     588:	711d                	addi	sp,sp,-96
     58a:	c4d2                	sw	s4,72(sp)
     58c:	c2d6                	sw	s5,68(sp)
     58e:	c0da                	sw	s6,64(sp)
     590:	10000ab7          	lui	s5,0x10000
     594:	10000b37          	lui	s6,0x10000
     598:	10000a37          	lui	s4,0x10000
     59c:	0a900693          	li	a3,169
     5a0:	28cb0613          	addi	a2,s6,652 # 1000028c <__rodata_start__+0xfff5194>
     5a4:	014a8593          	addi	a1,s5,20 # 10000014 <__rodata_start__+0xfff4f1c>
     5a8:	020a0513          	addi	a0,s4,32 # 10000020 <__rodata_start__+0xfff4f28>
     5ac:	ce86                	sw	ra,92(sp)
     5ae:	cca2                	sw	s0,88(sp)
     5b0:	caa6                	sw	s1,84(sp)
     5b2:	c6ce                	sw	s3,76(sp)
     5b4:	c8ca                	sw	s2,80(sp)
     5b6:	de5e                	sw	s7,60(sp)
     5b8:	dc62                	sw	s8,56(sp)
     5ba:	da66                	sw	s9,52(sp)
     5bc:	d86a                	sw	s10,48(sp)
     5be:	d66e                	sw	s11,44(sp)
     5c0:	729070ef          	jal	84e8 <_Z7printf_PKcz>
     5c4:	10000537          	lui	a0,0x10000
     5c8:	29c50513          	addi	a0,a0,668 # 1000029c <__rodata_start__+0xfff51a4>
     5cc:	71d070ef          	jal	84e8 <_Z7printf_PKcz>
     5d0:	100009b7          	lui	s3,0x10000
     5d4:	05898513          	addi	a0,s3,88 # 10000058 <__rodata_start__+0xfff4f60>
     5d8:	711070ef          	jal	84e8 <_Z7printf_PKcz>
     5dc:	4551                	li	a0,20
     5de:	2d7060ef          	jal	70b4 <_Z6mallocj>
     5e2:	84aa                	mv	s1,a0
     5e4:	4551                	li	a0,20
     5e6:	2cf060ef          	jal	70b4 <_Z6mallocj>
     5ea:	842a                	mv	s0,a0
     5ec:	4551                	li	a0,20
     5ee:	2c7060ef          	jal	70b4 <_Z6mallocj>
     5f2:	c481                	beqz	s1,5fa <_Z12test_fc_procv+0x72>
     5f4:	c019                	beqz	s0,5fa <_Z12test_fc_procv+0x72>
     5f6:	892a                	mv	s2,a0
     5f8:	e529                	bnez	a0,642 <_Z12test_fc_procv+0xba>
     5fa:	0b100693          	li	a3,177
     5fe:	28cb0613          	addi	a2,s6,652
     602:	014a8593          	addi	a1,s5,20
     606:	020a0513          	addi	a0,s4,32
     60a:	6df070ef          	jal	84e8 <_Z7printf_PKcz>
     60e:	10000537          	lui	a0,0x10000
     612:	0e850513          	addi	a0,a0,232 # 100000e8 <__rodata_start__+0xfff4ff0>
     616:	6d3070ef          	jal	84e8 <_Z7printf_PKcz>
     61a:	05898513          	addi	a0,s3,88
     61e:	6cb070ef          	jal	84e8 <_Z7printf_PKcz>
     622:	9002                	ebreak
     624:	40f6                	lw	ra,92(sp)
     626:	4466                	lw	s0,88(sp)
     628:	44d6                	lw	s1,84(sp)
     62a:	4946                	lw	s2,80(sp)
     62c:	49b6                	lw	s3,76(sp)
     62e:	4a26                	lw	s4,72(sp)
     630:	4a96                	lw	s5,68(sp)
     632:	4b06                	lw	s6,64(sp)
     634:	5bf2                	lw	s7,60(sp)
     636:	5c62                	lw	s8,56(sp)
     638:	5cd2                	lw	s9,52(sp)
     63a:	5d42                	lw	s10,48(sp)
     63c:	5db2                	lw	s11,44(sp)
     63e:	6125                	addi	sp,sp,96
     640:	8082                	ret
     642:	0b500693          	li	a3,181
     646:	28cb0613          	addi	a2,s6,652
     64a:	014a8593          	addi	a1,s5,20
     64e:	020a0513          	addi	a0,s4,32
     652:	697070ef          	jal	84e8 <_Z7printf_PKcz>
     656:	10000537          	lui	a0,0x10000
     65a:	2b050513          	addi	a0,a0,688 # 100002b0 <__rodata_start__+0xfff51b8>
     65e:	68b070ef          	jal	84e8 <_Z7printf_PKcz>
     662:	05898513          	addi	a0,s3,88
     666:	4b85                	li	s7,1
     668:	681070ef          	jal	84e8 <_Z7printf_PKcz>
     66c:	4c41                	li	s8,16
     66e:	0174a023          	sw	s7,0(s1)
     672:	0174a223          	sw	s7,4(s1)
     676:	0184a423          	sw	s8,8(s1)
     67a:	0174a623          	sw	s7,12(s1)
     67e:	8562                	mv	a0,s8
     680:	235060ef          	jal	70b4 <_Z6mallocj>
     684:	c888                	sw	a0,16(s1)
     686:	4ca1                	li	s9,8
     688:	01742023          	sw	s7,0(s0)
     68c:	01742223          	sw	s7,4(s0)
     690:	01942423          	sw	s9,8(s0)
     694:	01842623          	sw	s8,12(s0)
     698:	08000513          	li	a0,128
     69c:	219060ef          	jal	70b4 <_Z6mallocj>
     6a0:	c808                	sw	a0,16(s0)
     6a2:	01792023          	sw	s7,0(s2)
     6a6:	01792223          	sw	s7,4(s2)
     6aa:	01992423          	sw	s9,8(s2)
     6ae:	01792623          	sw	s7,12(s2)
     6b2:	8566                	mv	a0,s9
     6b4:	201060ef          	jal	70b4 <_Z6mallocj>
     6b8:	00a92823          	sw	a0,16(s2)
     6bc:	489c                	lw	a5,16(s1)
     6be:	c781                	beqz	a5,6c6 <_Z12test_fc_procv+0x13e>
     6c0:	481c                	lw	a5,16(s0)
     6c2:	c391                	beqz	a5,6c6 <_Z12test_fc_procv+0x13e>
     6c4:	ed1d                	bnez	a0,702 <_Z12test_fc_procv+0x17a>
     6c6:	0cc00693          	li	a3,204
     6ca:	28cb0613          	addi	a2,s6,652
     6ce:	014a8593          	addi	a1,s5,20
     6d2:	020a0513          	addi	a0,s4,32
     6d6:	613070ef          	jal	84e8 <_Z7printf_PKcz>
     6da:	10000537          	lui	a0,0x10000
     6de:	13450513          	addi	a0,a0,308 # 10000134 <__rodata_start__+0xfff503c>
     6e2:	607070ef          	jal	84e8 <_Z7printf_PKcz>
     6e6:	05898513          	addi	a0,s3,88
     6ea:	5ff070ef          	jal	84e8 <_Z7printf_PKcz>
     6ee:	8526                	mv	a0,s1
     6f0:	1d3060ef          	jal	70c2 <_Z4freePv>
     6f4:	8522                	mv	a0,s0
     6f6:	1cd060ef          	jal	70c2 <_Z4freePv>
     6fa:	854a                	mv	a0,s2
     6fc:	1c7060ef          	jal	70c2 <_Z4freePv>
     700:	b70d                	j	622 <_Z12test_fc_procv+0x9a>
     702:	0d300693          	li	a3,211
     706:	28cb0613          	addi	a2,s6,652
     70a:	014a8593          	addi	a1,s5,20
     70e:	020a0513          	addi	a0,s4,32
     712:	5d7070ef          	jal	84e8 <_Z7printf_PKcz>
     716:	10000537          	lui	a0,0x10000
     71a:	2d050513          	addi	a0,a0,720 # 100002d0 <__rodata_start__+0xfff51d8>
     71e:	5cb070ef          	jal	84e8 <_Z7printf_PKcz>
     722:	05898513          	addi	a0,s3,88
     726:	5c3070ef          	jal	84e8 <_Z7printf_PKcz>
     72a:	4781                	li	a5,0
     72c:	4898                	lw	a4,16(s1)
     72e:	ff078693          	addi	a3,a5,-16
     732:	973e                	add	a4,a4,a5
     734:	00d70023          	sb	a3,0(a4)
     738:	0785                	addi	a5,a5,1
     73a:	ff8799e3          	bne	a5,s8,72c <_Z12test_fc_procv+0x1a4>
     73e:	4681                	li	a3,0
     740:	4521                	li	a0,8
     742:	0ff6f713          	zext.b	a4,a3
     746:	fe070793          	addi	a5,a4,-32
     74a:	1741                	addi	a4,a4,-16
     74c:	00469613          	slli	a2,a3,0x4
     750:	0ff7f793          	zext.b	a5,a5
     754:	0ff77713          	zext.b	a4,a4
     758:	480c                	lw	a1,16(s0)
     75a:	95b2                	add	a1,a1,a2
     75c:	00f58023          	sb	a5,0(a1)
     760:	0785                	addi	a5,a5,1
     762:	0ff7f793          	zext.b	a5,a5
     766:	0605                	addi	a2,a2,1
     768:	fef718e3          	bne	a4,a5,758 <_Z12test_fc_procv+0x1d0>
     76c:	0685                	addi	a3,a3,1
     76e:	fca69ae3          	bne	a3,a0,742 <_Z12test_fc_procv+0x1ba>
     772:	4781                	li	a5,0
     774:	46a1                	li	a3,8
     776:	01092703          	lw	a4,16(s2)
     77a:	ff878613          	addi	a2,a5,-8
     77e:	973e                	add	a4,a4,a5
     780:	00c70023          	sb	a2,0(a4)
     784:	0785                	addi	a5,a5,1
     786:	fed798e3          	bne	a5,a3,776 <_Z12test_fc_procv+0x1ee>
     78a:	0e900693          	li	a3,233
     78e:	28cb0613          	addi	a2,s6,652
     792:	014a8593          	addi	a1,s5,20
     796:	020a0513          	addi	a0,s4,32
     79a:	54f070ef          	jal	84e8 <_Z7printf_PKcz>
     79e:	10000537          	lui	a0,0x10000
     7a2:	2f050513          	addi	a0,a0,752 # 100002f0 <__rodata_start__+0xfff51f8>
     7a6:	543070ef          	jal	84e8 <_Z7printf_PKcz>
     7aa:	05898513          	addi	a0,s3,88
     7ae:	53b070ef          	jal	84e8 <_Z7printf_PKcz>
     7b2:	4808                	lw	a0,16(s0)
     7b4:	0104a803          	lw	a6,16(s1)
     7b8:	01092883          	lw	a7,16(s2)
     7bc:	4781                	li	a5,0
     7be:	4341                	li	t1,16
     7c0:	01810c93          	addi	s9,sp,24
     7c4:	4e21                	li	t3,8
     7c6:	00479613          	slli	a2,a5,0x4
     7ca:	962a                	add	a2,a2,a0
     7cc:	4701                	li	a4,0
     7ce:	4681                	li	a3,0
     7d0:	00e605b3          	add	a1,a2,a4
     7d4:	00e80eb3          	add	t4,a6,a4
     7d8:	00058583          	lb	a1,0(a1)
     7dc:	000e8e83          	lb	t4,0(t4)
     7e0:	0705                	addi	a4,a4,1
     7e2:	03d585b3          	mul	a1,a1,t4
     7e6:	96ae                	add	a3,a3,a1
     7e8:	fe6714e3          	bne	a4,t1,7d0 <_Z12test_fc_procv+0x248>
     7ec:	00f88733          	add	a4,a7,a5
     7f0:	00070703          	lb	a4,0(a4)
     7f4:	00fc8633          	add	a2,s9,a5
     7f8:	0785                	addi	a5,a5,1
     7fa:	9736                	add	a4,a4,a3
     7fc:	00e60023          	sb	a4,0(a2)
     800:	fdc793e3          	bne	a5,t3,7c6 <_Z12test_fc_procv+0x23e>
     804:	0f500693          	li	a3,245
     808:	28cb0613          	addi	a2,s6,652
     80c:	014a8593          	addi	a1,s5,20
     810:	020a0513          	addi	a0,s4,32
     814:	4d5070ef          	jal	84e8 <_Z7printf_PKcz>
     818:	10000537          	lui	a0,0x10000
     81c:	31050513          	addi	a0,a0,784 # 10000310 <__rodata_start__+0xfff5218>
     820:	4c9070ef          	jal	84e8 <_Z7printf_PKcz>
     824:	05898513          	addi	a0,s3,88
     828:	4c1070ef          	jal	84e8 <_Z7printf_PKcz>
     82c:	4601                	li	a2,0
     82e:	85a6                	mv	a1,s1
     830:	8522                	mv	a0,s0
     832:	22d5                	jal	a16 <_Z15matrix_multiplyIaEP12acenn_matrixIT_ES3_S3_h>
     834:	8baa                	mv	s7,a0
     836:	4781                	li	a5,0
     838:	4621                	li	a2,8
     83a:	e521                	bnez	a0,882 <_Z12test_fc_procv+0x2fa>
     83c:	0fd00693          	li	a3,253
     840:	28cb0613          	addi	a2,s6,652
     844:	014a8593          	addi	a1,s5,20
     848:	020a0513          	addi	a0,s4,32
     84c:	49d070ef          	jal	84e8 <_Z7printf_PKcz>
     850:	10000537          	lui	a0,0x10000
     854:	32c50513          	addi	a0,a0,812 # 1000032c <__rodata_start__+0xfff5234>
     858:	491070ef          	jal	84e8 <_Z7printf_PKcz>
     85c:	05898513          	addi	a0,s3,88
     860:	489070ef          	jal	84e8 <_Z7printf_PKcz>
     864:	4888                	lw	a0,16(s1)
     866:	05d060ef          	jal	70c2 <_Z4freePv>
     86a:	8526                	mv	a0,s1
     86c:	057060ef          	jal	70c2 <_Z4freePv>
     870:	4808                	lw	a0,16(s0)
     872:	051060ef          	jal	70c2 <_Z4freePv>
     876:	8522                	mv	a0,s0
     878:	04b060ef          	jal	70c2 <_Z4freePv>
     87c:	01092503          	lw	a0,16(s2)
     880:	bd9d                	j	6f6 <_Z12test_fc_procv+0x16e>
     882:	010ba703          	lw	a4,16(s7)
     886:	01092683          	lw	a3,16(s2)
     88a:	973e                	add	a4,a4,a5
     88c:	96be                	add	a3,a3,a5
     88e:	0006c683          	lbu	a3,0(a3)
     892:	00074583          	lbu	a1,0(a4)
     896:	0785                	addi	a5,a5,1
     898:	96ae                	add	a3,a3,a1
     89a:	00d70023          	sb	a3,0(a4)
     89e:	fec792e3          	bne	a5,a2,882 <_Z12test_fc_procv+0x2fa>
     8a2:	10c00693          	li	a3,268
     8a6:	28cb0613          	addi	a2,s6,652
     8aa:	014a8593          	addi	a1,s5,20
     8ae:	020a0513          	addi	a0,s4,32
     8b2:	437070ef          	jal	84e8 <_Z7printf_PKcz>
     8b6:	10000537          	lui	a0,0x10000
     8ba:	35450513          	addi	a0,a0,852 # 10000354 <__rodata_start__+0xfff525c>
     8be:	42b070ef          	jal	84e8 <_Z7printf_PKcz>
     8c2:	05898513          	addi	a0,s3,88
     8c6:	423070ef          	jal	84e8 <_Z7printf_PKcz>
     8ca:	4c01                	li	s8,0
     8cc:	4d01                	li	s10,0
     8ce:	10000db7          	lui	s11,0x10000
     8d2:	4821                	li	a6,8
     8d4:	010ba783          	lw	a5,16(s7)
     8d8:	018c8733          	add	a4,s9,s8
     8dc:	00070703          	lb	a4,0(a4)
     8e0:	97e2                	add	a5,a5,s8
     8e2:	00078783          	lb	a5,0(a5)
     8e6:	c63a                	sw	a4,12(sp)
     8e8:	c43e                	sw	a5,8(sp)
     8ea:	02e78b63          	beq	a5,a4,920 <_Z12test_fc_procv+0x398>
     8ee:	11600693          	li	a3,278
     8f2:	28cb0613          	addi	a2,s6,652
     8f6:	014a8593          	addi	a1,s5,20
     8fa:	020a0513          	addi	a0,s4,32
     8fe:	3eb070ef          	jal	84e8 <_Z7printf_PKcz>
     902:	4732                	lw	a4,12(sp)
     904:	47a2                	lw	a5,8(sp)
     906:	85e2                	mv	a1,s8
     908:	86ba                	mv	a3,a4
     90a:	863e                	mv	a2,a5
     90c:	36cd8513          	addi	a0,s11,876 # 1000036c <__rodata_start__+0xfff5274>
     910:	3d9070ef          	jal	84e8 <_Z7printf_PKcz>
     914:	05898513          	addi	a0,s3,88
     918:	3d1070ef          	jal	84e8 <_Z7printf_PKcz>
     91c:	0d05                	addi	s10,s10,1
     91e:	4821                	li	a6,8
     920:	0c05                	addi	s8,s8,1
     922:	fb0c19e3          	bne	s8,a6,8d4 <_Z12test_fc_procv+0x34c>
     926:	11900693          	li	a3,281
     92a:	28cb0613          	addi	a2,s6,652
     92e:	014a8593          	addi	a1,s5,20
     932:	020a0513          	addi	a0,s4,32
     936:	3b3070ef          	jal	84e8 <_Z7printf_PKcz>
     93a:	10000537          	lui	a0,0x10000
     93e:	39050513          	addi	a0,a0,912 # 10000390 <__rodata_start__+0xfff5298>
     942:	3a7070ef          	jal	84e8 <_Z7printf_PKcz>
     946:	05898513          	addi	a0,s3,88
     94a:	39f070ef          	jal	84e8 <_Z7printf_PKcz>
     94e:	0a0d1263          	bnez	s10,9f2 <_Z12test_fc_procv+0x46a>
     952:	11d00693          	li	a3,285
     956:	28cb0613          	addi	a2,s6,652
     95a:	014a8593          	addi	a1,s5,20
     95e:	020a0513          	addi	a0,s4,32
     962:	387070ef          	jal	84e8 <_Z7printf_PKcz>
     966:	10000537          	lui	a0,0x10000
     96a:	3b050513          	addi	a0,a0,944 # 100003b0 <__rodata_start__+0xfff52b8>
     96e:	37b070ef          	jal	84e8 <_Z7printf_PKcz>
     972:	05898513          	addi	a0,s3,88
     976:	373070ef          	jal	84e8 <_Z7printf_PKcz>
     97a:	4888                	lw	a0,16(s1)
     97c:	746060ef          	jal	70c2 <_Z4freePv>
     980:	8526                	mv	a0,s1
     982:	740060ef          	jal	70c2 <_Z4freePv>
     986:	4808                	lw	a0,16(s0)
     988:	73a060ef          	jal	70c2 <_Z4freePv>
     98c:	8522                	mv	a0,s0
     98e:	734060ef          	jal	70c2 <_Z4freePv>
     992:	01092503          	lw	a0,16(s2)
     996:	72c060ef          	jal	70c2 <_Z4freePv>
     99a:	854a                	mv	a0,s2
     99c:	726060ef          	jal	70c2 <_Z4freePv>
     9a0:	010ba503          	lw	a0,16(s7)
     9a4:	71e060ef          	jal	70c2 <_Z4freePv>
     9a8:	855e                	mv	a0,s7
     9aa:	718060ef          	jal	70c2 <_Z4freePv>
     9ae:	28cb0613          	addi	a2,s6,652
     9b2:	014a8593          	addi	a1,s5,20
     9b6:	12b00693          	li	a3,299
     9ba:	020a0513          	addi	a0,s4,32
     9be:	32b070ef          	jal	84e8 <_Z7printf_PKcz>
     9c2:	10000537          	lui	a0,0x10000
     9c6:	3fc50513          	addi	a0,a0,1020 # 100003fc <__rodata_start__+0xfff5304>
     9ca:	31f070ef          	jal	84e8 <_Z7printf_PKcz>
     9ce:	4466                	lw	s0,88(sp)
     9d0:	40f6                	lw	ra,92(sp)
     9d2:	44d6                	lw	s1,84(sp)
     9d4:	4946                	lw	s2,80(sp)
     9d6:	4a26                	lw	s4,72(sp)
     9d8:	4a96                	lw	s5,68(sp)
     9da:	4b06                	lw	s6,64(sp)
     9dc:	5bf2                	lw	s7,60(sp)
     9de:	5c62                	lw	s8,56(sp)
     9e0:	5cd2                	lw	s9,52(sp)
     9e2:	5d42                	lw	s10,48(sp)
     9e4:	5db2                	lw	s11,44(sp)
     9e6:	05898513          	addi	a0,s3,88
     9ea:	49b6                	lw	s3,76(sp)
     9ec:	6125                	addi	sp,sp,96
     9ee:	2fb0706f          	j	84e8 <_Z7printf_PKcz>
     9f2:	014a8593          	addi	a1,s5,20
     9f6:	11f00693          	li	a3,287
     9fa:	28cb0613          	addi	a2,s6,652
     9fe:	020a0513          	addi	a0,s4,32
     a02:	2e7070ef          	jal	84e8 <_Z7printf_PKcz>
     a06:	10000537          	lui	a0,0x10000
     a0a:	85ea                	mv	a1,s10
     a0c:	3dc50513          	addi	a0,a0,988 # 100003dc <__rodata_start__+0xfff52e4>
     a10:	2d9070ef          	jal	84e8 <_Z7printf_PKcz>
     a14:	bfb9                	j	972 <_Z12test_fc_procv+0x3ea>

00000a16 <_Z15matrix_multiplyIaEP12acenn_matrixIT_ES3_S3_h>:
     a16:	1101                	addi	sp,sp,-32
     a18:	ce06                	sw	ra,28(sp)
     a1a:	cc22                	sw	s0,24(sp)
     a1c:	ca26                	sw	s1,20(sp)
     a1e:	c84a                	sw	s2,16(sp)
     a20:	c64e                	sw	s3,12(sp)
     a22:	c119                	beqz	a0,a28 <_Z15matrix_multiplyIaEP12acenn_matrixIT_ES3_S3_h+0x12>
     a24:	892e                	mv	s2,a1
     a26:	e981                	bnez	a1,a36 <_Z15matrix_multiplyIaEP12acenn_matrixIT_ES3_S3_h+0x20>
     a28:	10000537          	lui	a0,0x10000
     a2c:	45850513          	addi	a0,a0,1112 # 10000458 <__rodata_start__+0xfff5360>
     a30:	2b9070ef          	jal	84e8 <_Z7printf_PKcz>
     a34:	a02d                	j	a5e <_Z15matrix_multiplyIaEP12acenn_matrixIT_ES3_S3_h+0x48>
     a36:	4558                	lw	a4,12(a0)
     a38:	459c                	lw	a5,8(a1)
     a3a:	84aa                	mv	s1,a0
     a3c:	02f70b63          	beq	a4,a5,a72 <_Z15matrix_multiplyIaEP12acenn_matrixIT_ES3_S3_h+0x5c>
     a40:	10000537          	lui	a0,0x10000
     a44:	47c50513          	addi	a0,a0,1148 # 1000047c <__rodata_start__+0xfff5384>
     a48:	2a1070ef          	jal	84e8 <_Z7printf_PKcz>
     a4c:	00892603          	lw	a2,8(s2)
     a50:	44cc                	lw	a1,12(s1)
     a52:	10000537          	lui	a0,0x10000
     a56:	4b850513          	addi	a0,a0,1208 # 100004b8 <__rodata_start__+0xfff53c0>
     a5a:	28f070ef          	jal	84e8 <_Z7printf_PKcz>
     a5e:	9002                	ebreak
     a60:	4401                	li	s0,0
     a62:	40f2                	lw	ra,28(sp)
     a64:	8522                	mv	a0,s0
     a66:	4462                	lw	s0,24(sp)
     a68:	44d2                	lw	s1,20(sp)
     a6a:	4942                	lw	s2,16(sp)
     a6c:	49b2                	lw	s3,12(sp)
     a6e:	6105                	addi	sp,sp,32
     a70:	8082                	ret
     a72:	4551                	li	a0,20
     a74:	89b2                	mv	s3,a2
     a76:	63e060ef          	jal	70b4 <_Z6mallocj>
     a7a:	842a                	mv	s0,a0
     a7c:	e511                	bnez	a0,a88 <_Z15matrix_multiplyIaEP12acenn_matrixIT_ES3_S3_h+0x72>
     a7e:	10000537          	lui	a0,0x10000
     a82:	4e050513          	addi	a0,a0,1248 # 100004e0 <__rodata_start__+0xfff53e8>
     a86:	b76d                	j	a30 <_Z15matrix_multiplyIaEP12acenn_matrixIT_ES3_S3_h+0x1a>
     a88:	4785                	li	a5,1
     a8a:	c11c                	sw	a5,0(a0)
     a8c:	c15c                	sw	a5,4(a0)
     a8e:	4488                	lw	a0,8(s1)
     a90:	00c92783          	lw	a5,12(s2)
     a94:	c408                	sw	a0,8(s0)
     a96:	02f50533          	mul	a0,a0,a5
     a9a:	c45c                	sw	a5,12(s0)
     a9c:	618060ef          	jal	70b4 <_Z6mallocj>
     aa0:	c808                	sw	a0,16(s0)
     aa2:	4701                	li	a4,0
     aa4:	cd01                	beqz	a0,abc <_Z15matrix_multiplyIaEP12acenn_matrixIT_ES3_S3_h+0xa6>
     aa6:	fff98893          	addi	a7,s3,-1
     aaa:	0ff8f893          	zext.b	a7,a7
     aae:	03e00e13          	li	t3,62
     ab2:	441c                	lw	a5,8(s0)
     ab4:	faf777e3          	bgeu	a4,a5,a62 <_Z15matrix_multiplyIaEP12acenn_matrixIT_ES3_S3_h+0x4c>
     ab8:	4601                	li	a2,0
     aba:	a8b1                	j	b16 <_Z15matrix_multiplyIaEP12acenn_matrixIT_ES3_S3_h+0x100>
     abc:	8522                	mv	a0,s0
     abe:	604060ef          	jal	70c2 <_Z4freePv>
     ac2:	10000537          	lui	a0,0x10000
     ac6:	50c50513          	addi	a0,a0,1292 # 1000050c <__rodata_start__+0xfff5414>
     aca:	b79d                	j	a30 <_Z15matrix_multiplyIaEP12acenn_matrixIT_ES3_S3_h+0x1a>
     acc:	00c92503          	lw	a0,12(s2)
     ad0:	01092583          	lw	a1,16(s2)
     ad4:	02a68533          	mul	a0,a3,a0
     ad8:	95b2                	add	a1,a1,a2
     ada:	95aa                	add	a1,a1,a0
     adc:	4888                	lw	a0,16(s1)
     ade:	0005c583          	lbu	a1,0(a1)
     ae2:	9576                	add	a0,a0,t4
     ae4:	9536                	add	a0,a0,a3
     ae6:	00054503          	lbu	a0,0(a0)
     aea:	0685                	addi	a3,a3,1
     aec:	02a585b3          	mul	a1,a1,a0
     af0:	97ae                	add	a5,a5,a1
     af2:	07e2                	slli	a5,a5,0x18
     af4:	87e1                	srai	a5,a5,0x18
     af6:	fcd31be3          	bne	t1,a3,acc <_Z15matrix_multiplyIaEP12acenn_matrixIT_ES3_S3_h+0xb6>
     afa:	011e6463          	bltu	t3,a7,b02 <_Z15matrix_multiplyIaEP12acenn_matrixIT_ES3_S3_h+0xec>
     afe:	4137d7b3          	sra	a5,a5,s3
     b02:	02e80833          	mul	a6,a6,a4
     b06:	4814                	lw	a3,16(s0)
     b08:	4137d7b3          	sra	a5,a5,s3
     b0c:	96b2                	add	a3,a3,a2
     b0e:	0605                	addi	a2,a2,1
     b10:	96c2                	add	a3,a3,a6
     b12:	00f68023          	sb	a5,0(a3)
     b16:	00c42803          	lw	a6,12(s0)
     b1a:	01067963          	bgeu	a2,a6,b2c <_Z15matrix_multiplyIaEP12acenn_matrixIT_ES3_S3_h+0x116>
     b1e:	00c4a303          	lw	t1,12(s1)
     b22:	4681                	li	a3,0
     b24:	4781                	li	a5,0
     b26:	02e30eb3          	mul	t4,t1,a4
     b2a:	b7f1                	j	af6 <_Z15matrix_multiplyIaEP12acenn_matrixIT_ES3_S3_h+0xe0>
     b2c:	0705                	addi	a4,a4,1
     b2e:	b751                	j	ab2 <_Z15matrix_multiplyIaEP12acenn_matrixIT_ES3_S3_h+0x9c>

00000b30 <main>:
     b30:	1101                	addi	sp,sp,-32
     b32:	ca26                	sw	s1,20(sp)
     b34:	c84a                	sw	s2,16(sp)
     b36:	c64e                	sw	s3,12(sp)
     b38:	10000937          	lui	s2,0x10000
     b3c:	100009b7          	lui	s3,0x10000
     b40:	100004b7          	lui	s1,0x10000
     b44:	13000693          	li	a3,304
     b48:	41c98613          	addi	a2,s3,1052 # 1000041c <__rodata_start__+0xfff5324>
     b4c:	01490593          	addi	a1,s2,20 # 10000014 <__rodata_start__+0xfff4f1c>
     b50:	02048513          	addi	a0,s1,32 # 10000020 <__rodata_start__+0xfff4f28>
     b54:	ce06                	sw	ra,28(sp)
     b56:	cc22                	sw	s0,24(sp)
     b58:	c452                	sw	s4,8(sp)
     b5a:	c256                	sw	s5,4(sp)
     b5c:	18d070ef          	jal	84e8 <_Z7printf_PKcz>
     b60:	10000537          	lui	a0,0x10000
     b64:	42450513          	addi	a0,a0,1060 # 10000424 <__rodata_start__+0xfff532c>
     b68:	181070ef          	jal	84e8 <_Z7printf_PKcz>
     b6c:	10000437          	lui	s0,0x10000
     b70:	05840513          	addi	a0,s0,88 # 10000058 <__rodata_start__+0xfff4f60>
     b74:	175070ef          	jal	84e8 <_Z7printf_PKcz>
     b78:	c0202a73          	rdinstret	s4
     b7c:	5d2060ef          	jal	714e <_Z14malloc_initialv>
     b80:	daeff0ef          	jal	12e <_Z13test_cpu_procv>
     b84:	a05ff0ef          	jal	588 <_Z12test_fc_procv>
     b88:	c0202af3          	rdinstret	s5
     b8c:	13a00693          	li	a3,314
     b90:	41c98613          	addi	a2,s3,1052
     b94:	01490593          	addi	a1,s2,20
     b98:	02048513          	addi	a0,s1,32
     b9c:	14d070ef          	jal	84e8 <_Z7printf_PKcz>
     ba0:	10000537          	lui	a0,0x10000
     ba4:	414a85b3          	sub	a1,s5,s4
     ba8:	44850513          	addi	a0,a0,1096 # 10000448 <__rodata_start__+0xfff5350>
     bac:	13d070ef          	jal	84e8 <_Z7printf_PKcz>
     bb0:	05840513          	addi	a0,s0,88
     bb4:	135070ef          	jal	84e8 <_Z7printf_PKcz>
     bb8:	9002                	ebreak
     bba:	40f2                	lw	ra,28(sp)
     bbc:	4462                	lw	s0,24(sp)
     bbe:	44d2                	lw	s1,20(sp)
     bc0:	4942                	lw	s2,16(sp)
     bc2:	49b2                	lw	s3,12(sp)
     bc4:	4a22                	lw	s4,8(sp)
     bc6:	4a92                	lw	s5,4(sp)
     bc8:	4501                	li	a0,0
     bca:	6105                	addi	sp,sp,32
     bcc:	8082                	ret

00000bce <_Z19matrix_csr_set_testv>:
     bce:	1101                	addi	sp,sp,-32
     bd0:	c84a                	sw	s2,16(sp)
     bd2:	c64e                	sw	s3,12(sp)
     bd4:	c452                	sw	s4,8(sp)
     bd6:	100009b7          	lui	s3,0x10000
     bda:	10000a37          	lui	s4,0x10000
     bde:	10000937          	lui	s2,0x10000
     be2:	46ad                	li	a3,11
     be4:	538a0613          	addi	a2,s4,1336 # 10000538 <__rodata_start__+0xfff5440>
     be8:	54c98593          	addi	a1,s3,1356 # 1000054c <__rodata_start__+0xfff5454>
     bec:	02090513          	addi	a0,s2,32 # 10000020 <__rodata_start__+0xfff4f28>
     bf0:	ce06                	sw	ra,28(sp)
     bf2:	ca26                	sw	s1,20(sp)
     bf4:	cc22                	sw	s0,24(sp)
     bf6:	c256                	sw	s5,4(sp)
     bf8:	0f1070ef          	jal	84e8 <_Z7printf_PKcz>
     bfc:	10000537          	lui	a0,0x10000
     c00:	56050513          	addi	a0,a0,1376 # 10000560 <__rodata_start__+0xfff5468>
     c04:	0e5070ef          	jal	84e8 <_Z7printf_PKcz>
     c08:	100004b7          	lui	s1,0x10000
     c0c:	05848513          	addi	a0,s1,88 # 10000058 <__rodata_start__+0xfff4f60>
     c10:	0d9070ef          	jal	84e8 <_Z7printf_PKcz>
     c14:	10144737          	lui	a4,0x10144
     c18:	40070793          	addi	a5,a4,1024 # 10144400 <linker_stack_start+0x114410>
     c1c:	00f7106b          	msetins1	zero,a4,a5
     c20:	6791                	lui	a5,0x4
     c22:	10145737          	lui	a4,0x10145
     c26:	0785                	addi	a5,a5,1 # 4001 <_Z17vsetcsr_testcase1v+0xb5>
     c28:	80070713          	addi	a4,a4,-2048 # 10144800 <linker_stack_start+0x114810>
     c2c:	06e7906b          	msetins2	zero,a5,a4
     c30:	4581                	li	a1,0
     c32:	4a85                	li	s5,1
     c34:	0d55906b          	msetins3	zero,a1,s5
     c38:	0e00146b          	mgetins3lsb	s0,zero,zero
     c3c:	05540b63          	beq	s0,s5,c92 <_Z19matrix_csr_set_testv+0xc4>
     c40:	538a0613          	addi	a2,s4,1336
     c44:	46ed                	li	a3,27
     c46:	54c98593          	addi	a1,s3,1356
     c4a:	02090513          	addi	a0,s2,32
     c4e:	09b070ef          	jal	84e8 <_Z7printf_PKcz>
     c52:	10000537          	lui	a0,0x10000
     c56:	85a2                	mv	a1,s0
     c58:	58050513          	addi	a0,a0,1408 # 10000580 <__rodata_start__+0xfff5488>
     c5c:	08d070ef          	jal	84e8 <_Z7printf_PKcz>
     c60:	05848513          	addi	a0,s1,88
     c64:	085070ef          	jal	84e8 <_Z7printf_PKcz>
     c68:	46f1                	li	a3,28
     c6a:	538a0613          	addi	a2,s4,1336
     c6e:	54c98593          	addi	a1,s3,1356
     c72:	02090513          	addi	a0,s2,32
     c76:	073070ef          	jal	84e8 <_Z7printf_PKcz>
     c7a:	10000537          	lui	a0,0x10000
     c7e:	85d6                	mv	a1,s5
     c80:	58850513          	addi	a0,a0,1416 # 10000588 <__rodata_start__+0xfff5490>
     c84:	065070ef          	jal	84e8 <_Z7printf_PKcz>
     c88:	05848513          	addi	a0,s1,88
     c8c:	05d070ef          	jal	84e8 <_Z7printf_PKcz>
     c90:	9002                	ebreak
     c92:	538a0613          	addi	a2,s4,1336
     c96:	54c98593          	addi	a1,s3,1356
     c9a:	46fd                	li	a3,31
     c9c:	02090513          	addi	a0,s2,32
     ca0:	049070ef          	jal	84e8 <_Z7printf_PKcz>
     ca4:	10000537          	lui	a0,0x10000
     ca8:	5a050513          	addi	a0,a0,1440 # 100005a0 <__rodata_start__+0xfff54a8>
     cac:	03d070ef          	jal	84e8 <_Z7printf_PKcz>
     cb0:	4462                	lw	s0,24(sp)
     cb2:	40f2                	lw	ra,28(sp)
     cb4:	4942                	lw	s2,16(sp)
     cb6:	49b2                	lw	s3,12(sp)
     cb8:	4a22                	lw	s4,8(sp)
     cba:	4a92                	lw	s5,4(sp)
     cbc:	05848513          	addi	a0,s1,88
     cc0:	44d2                	lw	s1,20(sp)
     cc2:	6105                	addi	sp,sp,32
     cc4:	0250706f          	j	84e8 <_Z7printf_PKcz>

00000cc8 <_Z23minimum_matmul_single_1PaS_S_>:
     cc8:	7139                	addi	sp,sp,-64
     cca:	d256                	sw	s5,36(sp)
     ccc:	d05a                	sw	s6,32(sp)
     cce:	ce5e                	sw	s7,28(sp)
     cd0:	10000b37          	lui	s6,0x10000
     cd4:	10000bb7          	lui	s7,0x10000
     cd8:	10000ab7          	lui	s5,0x10000
     cdc:	02500693          	li	a3,37
     ce0:	dc22                	sw	s0,56(sp)
     ce2:	da26                	sw	s1,52(sp)
     ce4:	d452                	sw	s4,40(sp)
     ce6:	842a                	mv	s0,a0
     ce8:	84ae                	mv	s1,a1
     cea:	8a32                	mv	s4,a2
     cec:	54cb0593          	addi	a1,s6,1356 # 1000054c <__rodata_start__+0xfff5454>
     cf0:	5f4b8613          	addi	a2,s7,1524 # 100005f4 <__rodata_start__+0xfff54fc>
     cf4:	020a8513          	addi	a0,s5,32 # 10000020 <__rodata_start__+0xfff4f28>
     cf8:	de06                	sw	ra,60(sp)
     cfa:	d84a                	sw	s2,48(sp)
     cfc:	d64e                	sw	s3,44(sp)
     cfe:	cc62                	sw	s8,24(sp)
     d00:	ca66                	sw	s9,20(sp)
     d02:	c86a                	sw	s10,16(sp)
     d04:	c66e                	sw	s11,12(sp)
     d06:	7e2070ef          	jal	84e8 <_Z7printf_PKcz>
     d0a:	10000537          	lui	a0,0x10000
     d0e:	60c50513          	addi	a0,a0,1548 # 1000060c <__rodata_start__+0xfff5514>
     d12:	7d6070ef          	jal	84e8 <_Z7printf_PKcz>
     d16:	10000937          	lui	s2,0x10000
     d1a:	05890513          	addi	a0,s2,88 # 10000058 <__rodata_start__+0xfff4f60>
     d1e:	7ca070ef          	jal	84e8 <_Z7printf_PKcz>
     d22:	10002737          	lui	a4,0x10002
     d26:	d4c70713          	addi	a4,a4,-692 # 10001d4c <_ZZ23minimum_matmul_single_1PaS_S_E4A_sa>
     d2a:	4781                	li	a5,0
     d2c:	10070513          	addi	a0,a4,256
     d30:	10000693          	li	a3,256
     d34:	00f70633          	add	a2,a4,a5
     d38:	00060583          	lb	a1,0(a2)
     d3c:	00f40633          	add	a2,s0,a5
     d40:	00b60023          	sb	a1,0(a2)
     d44:	00f50633          	add	a2,a0,a5
     d48:	00060583          	lb	a1,0(a2)
     d4c:	00f48633          	add	a2,s1,a5
     d50:	00b60023          	sb	a1,0(a2)
     d54:	00fa0633          	add	a2,s4,a5
     d58:	00060023          	sb	zero,0(a2)
     d5c:	0785                	addi	a5,a5,1
     d5e:	fcd79be3          	bne	a5,a3,d34 <_Z23minimum_matmul_single_1PaS_S_+0x6c>
     d62:	001007b7          	lui	a5,0x100
     d66:	17fd                	addi	a5,a5,-1 # fffff <__rodata_start__+0xf4f07>
     d68:	021006b7          	lui	a3,0x2100
     d6c:	8c7d                	and	s0,s0,a5
     d6e:	8cfd                	and	s1,s1,a5
     d70:	8c55                	or	s0,s0,a3
     d72:	8cd5                	or	s1,s1,a3
     d74:	0094106b          	msetins1	zero,s0,s1
     d78:	00fa77b3          	and	a5,s4,a5
     d7c:	8fd5                	or	a5,a5,a3
     d7e:	003046b7          	lui	a3,0x304
     d82:	0685                	addi	a3,a3,1 # 304001 <__rodata_start__+0x2f8f09>
     d84:	06f6906b          	msetins2	zero,a3,a5
     d88:	4485                	li	s1,1
     d8a:	4781                	li	a5,0
     d8c:	0c97906b          	msetins3	zero,a5,s1
     d90:	4401                	li	s0,0
     d92:	20070993          	addi	s3,a4,512
     d96:	10000db7          	lui	s11,0x10000
     d9a:	10000d13          	li	s10,256
     d9e:	008987b3          	add	a5,s3,s0
     da2:	008a0cb3          	add	s9,s4,s0
     da6:	00078c03          	lb	s8,0(a5)
     daa:	000c8783          	lb	a5,0(s9)
     dae:	03878963          	beq	a5,s8,de0 <_Z23minimum_matmul_single_1PaS_S_+0x118>
     db2:	07b00693          	li	a3,123
     db6:	5f4b8613          	addi	a2,s7,1524
     dba:	54cb0593          	addi	a1,s6,1356
     dbe:	020a8513          	addi	a0,s5,32
     dc2:	726070ef          	jal	84e8 <_Z7printf_PKcz>
     dc6:	000c8683          	lb	a3,0(s9)
     dca:	8662                	mv	a2,s8
     dcc:	85a2                	mv	a1,s0
     dce:	630d8513          	addi	a0,s11,1584 # 10000630 <__rodata_start__+0xfff5538>
     dd2:	716070ef          	jal	84e8 <_Z7printf_PKcz>
     dd6:	05890513          	addi	a0,s2,88
     dda:	70e070ef          	jal	84e8 <_Z7printf_PKcz>
     dde:	4481                	li	s1,0
     de0:	0405                	addi	s0,s0,1
     de2:	fba41ee3          	bne	s0,s10,d9e <_Z23minimum_matmul_single_1PaS_S_+0xd6>
     de6:	07c00693          	li	a3,124
     dea:	5f4b8613          	addi	a2,s7,1524
     dee:	54cb0593          	addi	a1,s6,1356
     df2:	020a8513          	addi	a0,s5,32
     df6:	6f2070ef          	jal	84e8 <_Z7printf_PKcz>
     dfa:	c88d                	beqz	s1,e2c <_Z23minimum_matmul_single_1PaS_S_+0x164>
     dfc:	10000537          	lui	a0,0x10000
     e00:	5bc50513          	addi	a0,a0,1468 # 100005bc <__rodata_start__+0xfff54c4>
     e04:	6e4070ef          	jal	84e8 <_Z7printf_PKcz>
     e08:	5462                	lw	s0,56(sp)
     e0a:	50f2                	lw	ra,60(sp)
     e0c:	54d2                	lw	s1,52(sp)
     e0e:	59b2                	lw	s3,44(sp)
     e10:	5a22                	lw	s4,40(sp)
     e12:	5a92                	lw	s5,36(sp)
     e14:	5b02                	lw	s6,32(sp)
     e16:	4bf2                	lw	s7,28(sp)
     e18:	4c62                	lw	s8,24(sp)
     e1a:	4cd2                	lw	s9,20(sp)
     e1c:	4d42                	lw	s10,16(sp)
     e1e:	4db2                	lw	s11,12(sp)
     e20:	05890513          	addi	a0,s2,88
     e24:	5942                	lw	s2,48(sp)
     e26:	6121                	addi	sp,sp,64
     e28:	6c00706f          	j	84e8 <_Z7printf_PKcz>
     e2c:	10000537          	lui	a0,0x10000
     e30:	5d850513          	addi	a0,a0,1496 # 100005d8 <__rodata_start__+0xfff54e0>
     e34:	bfc1                	j	e04 <_Z23minimum_matmul_single_1PaS_S_+0x13c>

00000e36 <_Z22minimum_matmul_multi_1PaS_S_>:
     e36:	7139                	addi	sp,sp,-64
     e38:	d452                	sw	s4,40(sp)
     e3a:	d256                	sw	s5,36(sp)
     e3c:	d05a                	sw	s6,32(sp)
     e3e:	10000ab7          	lui	s5,0x10000
     e42:	10000b37          	lui	s6,0x10000
     e46:	10000a37          	lui	s4,0x10000
     e4a:	08200693          	li	a3,130
     e4e:	dc22                	sw	s0,56(sp)
     e50:	da26                	sw	s1,52(sp)
     e52:	d64e                	sw	s3,44(sp)
     e54:	842a                	mv	s0,a0
     e56:	84ae                	mv	s1,a1
     e58:	89b2                	mv	s3,a2
     e5a:	54ca8593          	addi	a1,s5,1356 # 1000054c <__rodata_start__+0xfff5454>
     e5e:	64cb0613          	addi	a2,s6,1612 # 1000064c <__rodata_start__+0xfff5554>
     e62:	020a0513          	addi	a0,s4,32 # 10000020 <__rodata_start__+0xfff4f28>
     e66:	de06                	sw	ra,60(sp)
     e68:	d84a                	sw	s2,48(sp)
     e6a:	ce5e                	sw	s7,28(sp)
     e6c:	cc62                	sw	s8,24(sp)
     e6e:	ca66                	sw	s9,20(sp)
     e70:	c86a                	sw	s10,16(sp)
     e72:	c66e                	sw	s11,12(sp)
     e74:	674070ef          	jal	84e8 <_Z7printf_PKcz>
     e78:	10000537          	lui	a0,0x10000
     e7c:	66450513          	addi	a0,a0,1636 # 10000664 <__rodata_start__+0xfff556c>
     e80:	668070ef          	jal	84e8 <_Z7printf_PKcz>
     e84:	10000937          	lui	s2,0x10000
     e88:	05890513          	addi	a0,s2,88 # 10000058 <__rodata_start__+0xfff4f60>
     e8c:	65c070ef          	jal	84e8 <_Z7printf_PKcz>
     e90:	100027b7          	lui	a5,0x10002
     e94:	d4c78793          	addi	a5,a5,-692 # 10001d4c <_ZZ23minimum_matmul_single_1PaS_S_E4A_sa>
     e98:	4701                	li	a4,0
     e9a:	30078513          	addi	a0,a5,768
     e9e:	30000693          	li	a3,768
     ea2:	00e50633          	add	a2,a0,a4
     ea6:	00060583          	lb	a1,0(a2)
     eaa:	00e40633          	add	a2,s0,a4
     eae:	0705                	addi	a4,a4,1
     eb0:	00b60023          	sb	a1,0(a2)
     eb4:	fed717e3          	bne	a4,a3,ea2 <_Z22minimum_matmul_multi_1PaS_S_+0x6c>
     eb8:	4701                	li	a4,0
     eba:	60078793          	addi	a5,a5,1536
     ebe:	30000693          	li	a3,768
     ec2:	00e78633          	add	a2,a5,a4
     ec6:	00060583          	lb	a1,0(a2)
     eca:	00e48633          	add	a2,s1,a4
     ece:	0705                	addi	a4,a4,1
     ed0:	00b60023          	sb	a1,0(a2)
     ed4:	fed717e3          	bne	a4,a3,ec2 <_Z22minimum_matmul_multi_1PaS_S_+0x8c>
     ed8:	4781                	li	a5,0
     eda:	10000713          	li	a4,256
     ede:	00f986b3          	add	a3,s3,a5
     ee2:	00068023          	sb	zero,0(a3)
     ee6:	0785                	addi	a5,a5,1
     ee8:	fee79be3          	bne	a5,a4,ede <_Z22minimum_matmul_multi_1PaS_S_+0xa8>
     eec:	001007b7          	lui	a5,0x100
     ef0:	17fd                	addi	a5,a5,-1 # fffff <__rodata_start__+0xf4f07>
     ef2:	8cfd                	and	s1,s1,a5
     ef4:	20100737          	lui	a4,0x20100
     ef8:	8cd9                	or	s1,s1,a4
     efa:	8c7d                	and	s0,s0,a5
     efc:	00300737          	lui	a4,0x300
     f00:	8c59                	or	s0,s0,a4
     f02:	00f9f7b3          	and	a5,s3,a5
     f06:	02100737          	lui	a4,0x2100
     f0a:	8fd9                	or	a5,a5,a4
     f0c:	0094106b          	msetins1	zero,s0,s1
     f10:	00304737          	lui	a4,0x304
     f14:	20370713          	addi	a4,a4,515 # 304203 <__rodata_start__+0x2f910b>
     f18:	06f7106b          	msetins2	zero,a4,a5
     f1c:	4601                	li	a2,0
     f1e:	4705                	li	a4,1
     f20:	0ce6106b          	msetins3	zero,a2,a4
     f24:	0094106b          	msetins1	zero,s0,s1
     f28:	003046b7          	lui	a3,0x304
     f2c:	068d                	addi	a3,a3,3 # 304003 <__rodata_start__+0x2f8f0b>
     f2e:	06f6906b          	msetins2	zero,a3,a5
     f32:	0ce6106b          	msetins3	zero,a2,a4
     f36:	10002bb7          	lui	s7,0x10002
     f3a:	4481                	li	s1,0
     f3c:	843a                	mv	s0,a4
     f3e:	64cb8b93          	addi	s7,s7,1612 # 1000264c <_ZZ22minimum_matmul_multi_1PaS_S_E9C_ref_int>
     f42:	10000db7          	lui	s11,0x10000
     f46:	10000d13          	li	s10,256
     f4a:	009b87b3          	add	a5,s7,s1
     f4e:	00998cb3          	add	s9,s3,s1
     f52:	00078c03          	lb	s8,0(a5)
     f56:	000c8783          	lb	a5,0(s9)
     f5a:	03878963          	beq	a5,s8,f8c <_Z22minimum_matmul_multi_1PaS_S_+0x156>
     f5e:	0f800693          	li	a3,248
     f62:	64cb0613          	addi	a2,s6,1612
     f66:	54ca8593          	addi	a1,s5,1356
     f6a:	020a0513          	addi	a0,s4,32
     f6e:	57a070ef          	jal	84e8 <_Z7printf_PKcz>
     f72:	000c8683          	lb	a3,0(s9)
     f76:	8662                	mv	a2,s8
     f78:	85a6                	mv	a1,s1
     f7a:	630d8513          	addi	a0,s11,1584 # 10000630 <__rodata_start__+0xfff5538>
     f7e:	56a070ef          	jal	84e8 <_Z7printf_PKcz>
     f82:	05890513          	addi	a0,s2,88
     f86:	562070ef          	jal	84e8 <_Z7printf_PKcz>
     f8a:	4401                	li	s0,0
     f8c:	0485                	addi	s1,s1,1
     f8e:	fba49ee3          	bne	s1,s10,f4a <_Z22minimum_matmul_multi_1PaS_S_+0x114>
     f92:	0f900693          	li	a3,249
     f96:	64cb0613          	addi	a2,s6,1612
     f9a:	54ca8593          	addi	a1,s5,1356
     f9e:	020a0513          	addi	a0,s4,32
     fa2:	546070ef          	jal	84e8 <_Z7printf_PKcz>
     fa6:	c80d                	beqz	s0,fd8 <_Z22minimum_matmul_multi_1PaS_S_+0x1a2>
     fa8:	10000537          	lui	a0,0x10000
     fac:	5bc50513          	addi	a0,a0,1468 # 100005bc <__rodata_start__+0xfff54c4>
     fb0:	538070ef          	jal	84e8 <_Z7printf_PKcz>
     fb4:	5462                	lw	s0,56(sp)
     fb6:	50f2                	lw	ra,60(sp)
     fb8:	54d2                	lw	s1,52(sp)
     fba:	59b2                	lw	s3,44(sp)
     fbc:	5a22                	lw	s4,40(sp)
     fbe:	5a92                	lw	s5,36(sp)
     fc0:	5b02                	lw	s6,32(sp)
     fc2:	4bf2                	lw	s7,28(sp)
     fc4:	4c62                	lw	s8,24(sp)
     fc6:	4cd2                	lw	s9,20(sp)
     fc8:	4d42                	lw	s10,16(sp)
     fca:	4db2                	lw	s11,12(sp)
     fcc:	05890513          	addi	a0,s2,88
     fd0:	5942                	lw	s2,48(sp)
     fd2:	6121                	addi	sp,sp,64
     fd4:	5140706f          	j	84e8 <_Z7printf_PKcz>
     fd8:	10000537          	lui	a0,0x10000
     fdc:	5d850513          	addi	a0,a0,1496 # 100005d8 <__rodata_start__+0xfff54e0>
     fe0:	bfc1                	j	fb0 <_Z22minimum_matmul_multi_1PaS_S_+0x17a>

00000fe2 <_Z21minimum_matmul_singlePaS_S_>:
     fe2:	cb010113          	addi	sp,sp,-848
     fe6:	33412c23          	sw	s4,824(sp)
     fea:	33512a23          	sw	s5,820(sp)
     fee:	33612823          	sw	s6,816(sp)
     ff2:	10000ab7          	lui	s5,0x10000
     ff6:	10000b37          	lui	s6,0x10000
     ffa:	10000a37          	lui	s4,0x10000
     ffe:	0ff00693          	li	a3,255
    1002:	34812423          	sw	s0,840(sp)
    1006:	34912223          	sw	s1,836(sp)
    100a:	35212023          	sw	s2,832(sp)
    100e:	842a                	mv	s0,a0
    1010:	84ae                	mv	s1,a1
    1012:	8932                	mv	s2,a2
    1014:	54ca8593          	addi	a1,s5,1356 # 1000054c <__rodata_start__+0xfff5454>
    1018:	688b0613          	addi	a2,s6,1672 # 10000688 <__rodata_start__+0xfff5590>
    101c:	020a0513          	addi	a0,s4,32 # 10000020 <__rodata_start__+0xfff4f28>
    1020:	34112623          	sw	ra,844(sp)
    1024:	33312e23          	sw	s3,828(sp)
    1028:	33712623          	sw	s7,812(sp)
    102c:	33812423          	sw	s8,808(sp)
    1030:	33912223          	sw	s9,804(sp)
    1034:	33a12023          	sw	s10,800(sp)
    1038:	31b12e23          	sw	s11,796(sp)
    103c:	4ac070ef          	jal	84e8 <_Z7printf_PKcz>
    1040:	10000537          	lui	a0,0x10000
    1044:	6a050513          	addi	a0,a0,1696 # 100006a0 <__rodata_start__+0xfff55a8>
    1048:	4a0070ef          	jal	84e8 <_Z7printf_PKcz>
    104c:	100009b7          	lui	s3,0x10000
    1050:	05898513          	addi	a0,s3,88 # 10000058 <__rodata_start__+0xfff4f60>
    1054:	494070ef          	jal	84e8 <_Z7printf_PKcz>
    1058:	4781                	li	a5,0
    105a:	080c                	addi	a1,sp,16
    105c:	0a10                	addi	a2,sp,272
    105e:	07f00513          	li	a0,127
    1062:	10000813          	li	a6,256
    1066:	01078693          	addi	a3,a5,16
    106a:	0ff7f713          	zext.b	a4,a5
    106e:	00f588b3          	add	a7,a1,a5
    1072:	f8070313          	addi	t1,a4,-128
    1076:	00688023          	sb	t1,0(a7)
    107a:	40e50733          	sub	a4,a0,a4
    107e:	00f608b3          	add	a7,a2,a5
    1082:	00e88023          	sb	a4,0(a7)
    1086:	0785                	addi	a5,a5,1
    1088:	fed791e3          	bne	a5,a3,106a <_Z21minimum_matmul_singlePaS_S_+0x88>
    108c:	fd079de3          	bne	a5,a6,1066 <_Z21minimum_matmul_singlePaS_S_+0x84>
    1090:	4781                	li	a5,0
    1092:	4ec1                	li	t4,16
    1094:	21010c93          	addi	s9,sp,528
    1098:	10000f13          	li	t5,256
    109c:	4701                	li	a4,0
    109e:	00f58e33          	add	t3,a1,a5
    10a2:	01978333          	add	t1,a5,s9
    10a6:	a02d                	j	10d0 <_Z21minimum_matmul_singlePaS_S_+0xee>
    10a8:	00de08b3          	add	a7,t3,a3
    10ac:	00080f83          	lb	t6,0(a6)
    10b0:	00088883          	lb	a7,0(a7)
    10b4:	0685                	addi	a3,a3,1
    10b6:	0841                	addi	a6,a6,16
    10b8:	03f888b3          	mul	a7,a7,t6
    10bc:	9546                	add	a0,a0,a7
    10be:	ffd695e3          	bne	a3,t4,10a8 <_Z21minimum_matmul_singlePaS_S_+0xc6>
    10c2:	00e30833          	add	a6,t1,a4
    10c6:	00a80023          	sb	a0,0(a6)
    10ca:	0705                	addi	a4,a4,1
    10cc:	00d70763          	beq	a4,a3,10da <_Z21minimum_matmul_singlePaS_S_+0xf8>
    10d0:	00e60833          	add	a6,a2,a4
    10d4:	4681                	li	a3,0
    10d6:	4501                	li	a0,0
    10d8:	bfc1                	j	10a8 <_Z21minimum_matmul_singlePaS_S_+0xc6>
    10da:	07c1                	addi	a5,a5,16
    10dc:	fde790e3          	bne	a5,t5,109c <_Z21minimum_matmul_singlePaS_S_+0xba>
    10e0:	4781                	li	a5,0
    10e2:	10000713          	li	a4,256
    10e6:	00f58533          	add	a0,a1,a5
    10ea:	00054503          	lbu	a0,0(a0)
    10ee:	00f406b3          	add	a3,s0,a5
    10f2:	00a68023          	sb	a0,0(a3)
    10f6:	00f60533          	add	a0,a2,a5
    10fa:	00054503          	lbu	a0,0(a0)
    10fe:	00f486b3          	add	a3,s1,a5
    1102:	00a68023          	sb	a0,0(a3)
    1106:	00f906b3          	add	a3,s2,a5
    110a:	00068023          	sb	zero,0(a3)
    110e:	0785                	addi	a5,a5,1
    1110:	fce79be3          	bne	a5,a4,10e6 <_Z21minimum_matmul_singlePaS_S_+0x104>
    1114:	001007b7          	lui	a5,0x100
    1118:	8c5d                	or	s0,s0,a5
    111a:	8cdd                	or	s1,s1,a5
    111c:	0094106b          	msetins1	zero,s0,s1
    1120:	6711                	lui	a4,0x4
    1122:	00f967b3          	or	a5,s2,a5
    1126:	0705                	addi	a4,a4,1 # 4001 <_Z17vsetcsr_testcase1v+0xb5>
    1128:	06f7106b          	msetins2	zero,a4,a5
    112c:	4781                	li	a5,0
    112e:	4705                	li	a4,1
    1130:	0ce7906b          	msetins3	zero,a5,a4
    1134:	4b81                	li	s7,0
    1136:	4c01                	li	s8,0
    1138:	4481                	li	s1,0
    113a:	10000db7          	lui	s11,0x10000
    113e:	48c1                	li	a7,16
    1140:	4401                	li	s0,0
    1142:	01790833          	add	a6,s2,s7
    1146:	019b87b3          	add	a5,s7,s9
    114a:	00880733          	add	a4,a6,s0
    114e:	00070d03          	lb	s10,0(a4)
    1152:	00878733          	add	a4,a5,s0
    1156:	00070703          	lb	a4,0(a4)
    115a:	c63a                	sw	a4,12(sp)
    115c:	02ed0e63          	beq	s10,a4,1198 <_Z21minimum_matmul_singlePaS_S_+0x1b6>
    1160:	14f00693          	li	a3,335
    1164:	688b0613          	addi	a2,s6,1672
    1168:	54ca8593          	addi	a1,s5,1356
    116c:	020a0513          	addi	a0,s4,32
    1170:	c43e                	sw	a5,8(sp)
    1172:	c242                	sw	a6,4(sp)
    1174:	374070ef          	jal	84e8 <_Z7printf_PKcz>
    1178:	4732                	lw	a4,12(sp)
    117a:	86ea                	mv	a3,s10
    117c:	8622                	mv	a2,s0
    117e:	85e2                	mv	a1,s8
    1180:	6c4d8513          	addi	a0,s11,1732 # 100006c4 <__rodata_start__+0xfff55cc>
    1184:	364070ef          	jal	84e8 <_Z7printf_PKcz>
    1188:	05898513          	addi	a0,s3,88
    118c:	35c070ef          	jal	84e8 <_Z7printf_PKcz>
    1190:	47a2                	lw	a5,8(sp)
    1192:	4812                	lw	a6,4(sp)
    1194:	0485                	addi	s1,s1,1
    1196:	48c1                	li	a7,16
    1198:	0405                	addi	s0,s0,1
    119a:	fb1418e3          	bne	s0,a7,114a <_Z21minimum_matmul_singlePaS_S_+0x168>
    119e:	0c05                	addi	s8,s8,1
    11a0:	0bc1                	addi	s7,s7,16
    11a2:	f88c1fe3          	bne	s8,s0,1140 <_Z21minimum_matmul_singlePaS_S_+0x15e>
    11a6:	e0ad                	bnez	s1,1208 <_Z21minimum_matmul_singlePaS_S_+0x226>
    11a8:	15400693          	li	a3,340
    11ac:	688b0613          	addi	a2,s6,1672
    11b0:	54ca8593          	addi	a1,s5,1356
    11b4:	020a0513          	addi	a0,s4,32
    11b8:	330070ef          	jal	84e8 <_Z7printf_PKcz>
    11bc:	10000537          	lui	a0,0x10000
    11c0:	6e850513          	addi	a0,a0,1768 # 100006e8 <__rodata_start__+0xfff55f0>
    11c4:	324070ef          	jal	84e8 <_Z7printf_PKcz>
    11c8:	34812403          	lw	s0,840(sp)
    11cc:	34c12083          	lw	ra,844(sp)
    11d0:	34412483          	lw	s1,836(sp)
    11d4:	34012903          	lw	s2,832(sp)
    11d8:	33812a03          	lw	s4,824(sp)
    11dc:	33412a83          	lw	s5,820(sp)
    11e0:	33012b03          	lw	s6,816(sp)
    11e4:	32c12b83          	lw	s7,812(sp)
    11e8:	32812c03          	lw	s8,808(sp)
    11ec:	32412c83          	lw	s9,804(sp)
    11f0:	32012d03          	lw	s10,800(sp)
    11f4:	31c12d83          	lw	s11,796(sp)
    11f8:	05898513          	addi	a0,s3,88
    11fc:	33c12983          	lw	s3,828(sp)
    1200:	35010113          	addi	sp,sp,848
    1204:	2e40706f          	j	84e8 <_Z7printf_PKcz>
    1208:	54ca8593          	addi	a1,s5,1356
    120c:	15600693          	li	a3,342
    1210:	688b0613          	addi	a2,s6,1672
    1214:	020a0513          	addi	a0,s4,32
    1218:	2d0070ef          	jal	84e8 <_Z7printf_PKcz>
    121c:	10000537          	lui	a0,0x10000
    1220:	85a6                	mv	a1,s1
    1222:	71450513          	addi	a0,a0,1812 # 10000714 <__rodata_start__+0xfff561c>
    1226:	2c2070ef          	jal	84e8 <_Z7printf_PKcz>
    122a:	bf79                	j	11c8 <_Z21minimum_matmul_singlePaS_S_+0x1e6>

0000122c <_Z21minimum_pwconv_singlePaS_S_>:
    122c:	7139                	addi	sp,sp,-64
    122e:	d256                	sw	s5,36(sp)
    1230:	d05a                	sw	s6,32(sp)
    1232:	ce5e                	sw	s7,28(sp)
    1234:	10000b37          	lui	s6,0x10000
    1238:	10000bb7          	lui	s7,0x10000
    123c:	10000ab7          	lui	s5,0x10000
    1240:	15c00693          	li	a3,348
    1244:	dc22                	sw	s0,56(sp)
    1246:	da26                	sw	s1,52(sp)
    1248:	d452                	sw	s4,40(sp)
    124a:	842a                	mv	s0,a0
    124c:	84ae                	mv	s1,a1
    124e:	8a32                	mv	s4,a2
    1250:	54cb0593          	addi	a1,s6,1356 # 1000054c <__rodata_start__+0xfff5454>
    1254:	768b8613          	addi	a2,s7,1896 # 10000768 <__rodata_start__+0xfff5670>
    1258:	020a8513          	addi	a0,s5,32 # 10000020 <__rodata_start__+0xfff4f28>
    125c:	de06                	sw	ra,60(sp)
    125e:	d84a                	sw	s2,48(sp)
    1260:	d64e                	sw	s3,44(sp)
    1262:	cc62                	sw	s8,24(sp)
    1264:	ca66                	sw	s9,20(sp)
    1266:	c86a                	sw	s10,16(sp)
    1268:	c66e                	sw	s11,12(sp)
    126a:	27e070ef          	jal	84e8 <_Z7printf_PKcz>
    126e:	10000537          	lui	a0,0x10000
    1272:	78050513          	addi	a0,a0,1920 # 10000780 <__rodata_start__+0xfff5688>
    1276:	272070ef          	jal	84e8 <_Z7printf_PKcz>
    127a:	10000937          	lui	s2,0x10000
    127e:	05890513          	addi	a0,s2,88 # 10000058 <__rodata_start__+0xfff4f60>
    1282:	266070ef          	jal	84e8 <_Z7printf_PKcz>
    1286:	10003737          	lui	a4,0x10003
    128a:	d4c70713          	addi	a4,a4,-692 # 10002d4c <_ZZ19minimum_conv_singlePaS_S_S_aE6Active+0x100>
    128e:	4781                	li	a5,0
    1290:	a0070813          	addi	a6,a4,-1536
    1294:	c0070513          	addi	a0,a4,-1024
    1298:	20000693          	li	a3,512
    129c:	00f80633          	add	a2,a6,a5
    12a0:	00060583          	lb	a1,0(a2)
    12a4:	00f40633          	add	a2,s0,a5
    12a8:	00b60023          	sb	a1,0(a2)
    12ac:	00f50633          	add	a2,a0,a5
    12b0:	00060583          	lb	a1,0(a2)
    12b4:	00f48633          	add	a2,s1,a5
    12b8:	00b60023          	sb	a1,0(a2)
    12bc:	00fa0633          	add	a2,s4,a5
    12c0:	00060023          	sb	zero,0(a2)
    12c4:	0785                	addi	a5,a5,1 # 100001 <__rodata_start__+0xf4f09>
    12c6:	fcd79be3          	bne	a5,a3,129c <_Z21minimum_pwconv_singlePaS_S_+0x70>
    12ca:	001007b7          	lui	a5,0x100
    12ce:	17fd                	addi	a5,a5,-1 # fffff <__rodata_start__+0xf4f07>
    12d0:	201006b7          	lui	a3,0x20100
    12d4:	8c7d                	and	s0,s0,a5
    12d6:	8cfd                	and	s1,s1,a5
    12d8:	8c55                	or	s0,s0,a3
    12da:	8cd5                	or	s1,s1,a3
    12dc:	0094106b          	msetins1	zero,s0,s1
    12e0:	00fa77b3          	and	a5,s4,a5
    12e4:	021006b7          	lui	a3,0x2100
    12e8:	8fd5                	or	a5,a5,a3
    12ea:	002016b7          	lui	a3,0x201
    12ee:	10268693          	addi	a3,a3,258 # 201102 <__rodata_start__+0x1f600a>
    12f2:	06f6906b          	msetins2	zero,a3,a5
    12f6:	4485                	li	s1,1
    12f8:	4781                	li	a5,0
    12fa:	0c97906b          	msetins3	zero,a5,s1
    12fe:	4401                	li	s0,0
    1300:	e0070993          	addi	s3,a4,-512
    1304:	10000db7          	lui	s11,0x10000
    1308:	10000d13          	li	s10,256
    130c:	008987b3          	add	a5,s3,s0
    1310:	008a0cb3          	add	s9,s4,s0
    1314:	00078c03          	lb	s8,0(a5)
    1318:	000c8783          	lb	a5,0(s9)
    131c:	03878963          	beq	a5,s8,134e <_Z21minimum_pwconv_singlePaS_S_+0x122>
    1320:	1ea00693          	li	a3,490
    1324:	768b8613          	addi	a2,s7,1896
    1328:	54cb0593          	addi	a1,s6,1356
    132c:	020a8513          	addi	a0,s5,32
    1330:	1b8070ef          	jal	84e8 <_Z7printf_PKcz>
    1334:	000c8683          	lb	a3,0(s9)
    1338:	8662                	mv	a2,s8
    133a:	85a2                	mv	a1,s0
    133c:	630d8513          	addi	a0,s11,1584 # 10000630 <__rodata_start__+0xfff5538>
    1340:	1a8070ef          	jal	84e8 <_Z7printf_PKcz>
    1344:	05890513          	addi	a0,s2,88
    1348:	1a0070ef          	jal	84e8 <_Z7printf_PKcz>
    134c:	4481                	li	s1,0
    134e:	0405                	addi	s0,s0,1
    1350:	fba41ee3          	bne	s0,s10,130c <_Z21minimum_pwconv_singlePaS_S_+0xe0>
    1354:	1eb00693          	li	a3,491
    1358:	768b8613          	addi	a2,s7,1896
    135c:	54cb0593          	addi	a1,s6,1356
    1360:	020a8513          	addi	a0,s5,32
    1364:	184070ef          	jal	84e8 <_Z7printf_PKcz>
    1368:	c88d                	beqz	s1,139a <_Z21minimum_pwconv_singlePaS_S_+0x16e>
    136a:	10000537          	lui	a0,0x10000
    136e:	73050513          	addi	a0,a0,1840 # 10000730 <__rodata_start__+0xfff5638>
    1372:	176070ef          	jal	84e8 <_Z7printf_PKcz>
    1376:	5462                	lw	s0,56(sp)
    1378:	50f2                	lw	ra,60(sp)
    137a:	54d2                	lw	s1,52(sp)
    137c:	59b2                	lw	s3,44(sp)
    137e:	5a22                	lw	s4,40(sp)
    1380:	5a92                	lw	s5,36(sp)
    1382:	5b02                	lw	s6,32(sp)
    1384:	4bf2                	lw	s7,28(sp)
    1386:	4c62                	lw	s8,24(sp)
    1388:	4cd2                	lw	s9,20(sp)
    138a:	4d42                	lw	s10,16(sp)
    138c:	4db2                	lw	s11,12(sp)
    138e:	05890513          	addi	a0,s2,88
    1392:	5942                	lw	s2,48(sp)
    1394:	6121                	addi	sp,sp,64
    1396:	1520706f          	j	84e8 <_Z7printf_PKcz>
    139a:	10000537          	lui	a0,0x10000
    139e:	74c50513          	addi	a0,a0,1868 # 1000074c <__rodata_start__+0xfff5654>
    13a2:	bfc1                	j	1372 <_Z21minimum_pwconv_singlePaS_S_+0x146>

000013a4 <_Z19minimum_conv_singlePaS_S_S_a>:
    13a4:	7139                	addi	sp,sp,-64
    13a6:	d452                	sw	s4,40(sp)
    13a8:	d256                	sw	s5,36(sp)
    13aa:	d05a                	sw	s6,32(sp)
    13ac:	10000ab7          	lui	s5,0x10000
    13b0:	10000b37          	lui	s6,0x10000
    13b4:	10000a37          	lui	s4,0x10000
    13b8:	da26                	sw	s1,52(sp)
    13ba:	d84a                	sw	s2,48(sp)
    13bc:	ce5e                	sw	s7,28(sp)
    13be:	cc62                	sw	s8,24(sp)
    13c0:	8baa                	mv	s7,a0
    13c2:	8c2e                	mv	s8,a1
    13c4:	8932                	mv	s2,a2
    13c6:	54ca8593          	addi	a1,s5,1356 # 1000054c <__rodata_start__+0xfff5454>
    13ca:	7dcb0613          	addi	a2,s6,2012 # 100007dc <__rodata_start__+0xfff56e4>
    13ce:	84b6                	mv	s1,a3
    13d0:	020a0513          	addi	a0,s4,32 # 10000020 <__rodata_start__+0xfff4f28>
    13d4:	1ef00693          	li	a3,495
    13d8:	de06                	sw	ra,60(sp)
    13da:	dc22                	sw	s0,56(sp)
    13dc:	d64e                	sw	s3,44(sp)
    13de:	843a                	mv	s0,a4
    13e0:	ca66                	sw	s9,20(sp)
    13e2:	c86a                	sw	s10,16(sp)
    13e4:	c66e                	sw	s11,12(sp)
    13e6:	102070ef          	jal	84e8 <_Z7printf_PKcz>
    13ea:	10000537          	lui	a0,0x10000
    13ee:	7f050513          	addi	a0,a0,2032 # 100007f0 <__rodata_start__+0xfff56f8>
    13f2:	0f6070ef          	jal	84e8 <_Z7printf_PKcz>
    13f6:	100009b7          	lui	s3,0x10000
    13fa:	05898513          	addi	a0,s3,88 # 10000058 <__rodata_start__+0xfff4f60>
    13fe:	0ea070ef          	jal	84e8 <_Z7printf_PKcz>
    1402:	100037b7          	lui	a5,0x10003
    1406:	d4c78793          	addi	a5,a5,-692 # 10002d4c <_ZZ19minimum_conv_singlePaS_S_S_aE6Active+0x100>
    140a:	4681                	li	a3,0
    140c:	f0078513          	addi	a0,a5,-256
    1410:	1b000713          	li	a4,432
    1414:	00d50633          	add	a2,a0,a3
    1418:	00060583          	lb	a1,0(a2)
    141c:	00db8633          	add	a2,s7,a3
    1420:	0685                	addi	a3,a3,1
    1422:	00b60023          	sb	a1,0(a2)
    1426:	fee697e3          	bne	a3,a4,1414 <_Z19minimum_conv_singlePaS_S_S_a+0x70>
    142a:	4681                	li	a3,0
    142c:	0b078513          	addi	a0,a5,176
    1430:	20000713          	li	a4,512
    1434:	00d50633          	add	a2,a0,a3
    1438:	00060583          	lb	a1,0(a2)
    143c:	00dc0633          	add	a2,s8,a3
    1440:	00b60023          	sb	a1,0(a2)
    1444:	00d90633          	add	a2,s2,a3
    1448:	00060023          	sb	zero,0(a2)
    144c:	0685                	addi	a3,a3,1
    144e:	fee693e3          	bne	a3,a4,1434 <_Z19minimum_conv_singlePaS_S_S_a+0x90>
    1452:	4681                	li	a3,0
    1454:	2b078513          	addi	a0,a5,688
    1458:	02000713          	li	a4,32
    145c:	00d50633          	add	a2,a0,a3
    1460:	00060583          	lb	a1,0(a2)
    1464:	00d48633          	add	a2,s1,a3
    1468:	0685                	addi	a3,a3,1
    146a:	00b60023          	sb	a1,0(a2)
    146e:	fee697e3          	bne	a3,a4,145c <_Z19minimum_conv_singlePaS_S_S_a+0xb8>
    1472:	00100737          	lui	a4,0x100
    1476:	177d                	addi	a4,a4,-1 # fffff <__rodata_start__+0xf4f07>
    1478:	00ebfbb3          	and	s7,s7,a4
    147c:	0c3006b7          	lui	a3,0xc300
    1480:	00dbebb3          	or	s7,s7,a3
    1484:	00ec7c33          	and	s8,s8,a4
    1488:	201006b7          	lui	a3,0x20100
    148c:	00dc6c33          	or	s8,s8,a3
    1490:	018b906b          	msetins1	zero,s7,s8
    1494:	00203637          	lui	a2,0x203
    1498:	01041693          	slli	a3,s0,0x10
    149c:	18260613          	addi	a2,a2,386 # 203182 <__rodata_start__+0x1f808a>
    14a0:	8ed1                	or	a3,a3,a2
    14a2:	00e97733          	and	a4,s2,a4
    14a6:	02100637          	lui	a2,0x2100
    14aa:	8f51                	or	a4,a4,a2
    14ac:	06e6906b          	msetins2	zero,a3,a4
    14b0:	10000737          	lui	a4,0x10000
    14b4:	04a2                	slli	s1,s1,0x8
    14b6:	f0070713          	addi	a4,a4,-256 # fffff00 <__rodata_start__+0xfff4e08>
    14ba:	8f65                	and	a4,a4,s1
    14bc:	4485                	li	s1,1
    14be:	0c97106b          	msetins3	zero,a4,s1
    14c2:	ec51                	bnez	s0,155e <_Z19minimum_conv_singlePaS_S_S_a+0x1ba>
    14c4:	2c078d13          	addi	s10,a5,704
    14c8:	10000db7          	lui	s11,0x10000
    14cc:	10000c93          	li	s9,256
    14d0:	008d07b3          	add	a5,s10,s0
    14d4:	00890c33          	add	s8,s2,s0
    14d8:	00078b83          	lb	s7,0(a5)
    14dc:	000c0783          	lb	a5,0(s8)
    14e0:	03778963          	beq	a5,s7,1512 <_Z19minimum_conv_singlePaS_S_S_a+0x16e>
    14e4:	29b00693          	li	a3,667
    14e8:	7dcb0613          	addi	a2,s6,2012
    14ec:	54ca8593          	addi	a1,s5,1356
    14f0:	020a0513          	addi	a0,s4,32
    14f4:	7f5060ef          	jal	84e8 <_Z7printf_PKcz>
    14f8:	000c0683          	lb	a3,0(s8)
    14fc:	865e                	mv	a2,s7
    14fe:	85a2                	mv	a1,s0
    1500:	630d8513          	addi	a0,s11,1584 # 10000630 <__rodata_start__+0xfff5538>
    1504:	7e5060ef          	jal	84e8 <_Z7printf_PKcz>
    1508:	05898513          	addi	a0,s3,88
    150c:	7dd060ef          	jal	84e8 <_Z7printf_PKcz>
    1510:	4481                	li	s1,0
    1512:	0405                	addi	s0,s0,1
    1514:	fb941ee3          	bne	s0,s9,14d0 <_Z19minimum_conv_singlePaS_S_S_a+0x12c>
    1518:	29f00693          	li	a3,671
    151c:	7dcb0613          	addi	a2,s6,2012
    1520:	54ca8593          	addi	a1,s5,1356
    1524:	020a0513          	addi	a0,s4,32
    1528:	7c1060ef          	jal	84e8 <_Z7printf_PKcz>
    152c:	c4c9                	beqz	s1,15b6 <_Z19minimum_conv_singlePaS_S_S_a+0x212>
    152e:	10000537          	lui	a0,0x10000
    1532:	7a450513          	addi	a0,a0,1956 # 100007a4 <__rodata_start__+0xfff56ac>
    1536:	7b3060ef          	jal	84e8 <_Z7printf_PKcz>
    153a:	5462                	lw	s0,56(sp)
    153c:	50f2                	lw	ra,60(sp)
    153e:	54d2                	lw	s1,52(sp)
    1540:	5942                	lw	s2,48(sp)
    1542:	5a22                	lw	s4,40(sp)
    1544:	5a92                	lw	s5,36(sp)
    1546:	5b02                	lw	s6,32(sp)
    1548:	4bf2                	lw	s7,28(sp)
    154a:	4c62                	lw	s8,24(sp)
    154c:	4cd2                	lw	s9,20(sp)
    154e:	4d42                	lw	s10,16(sp)
    1550:	4db2                	lw	s11,12(sp)
    1552:	05898513          	addi	a0,s3,88
    1556:	59b2                	lw	s3,44(sp)
    1558:	6121                	addi	sp,sp,64
    155a:	78f0606f          	j	84e8 <_Z7printf_PKcz>
    155e:	4b81                	li	s7,0
    1560:	3c078413          	addi	s0,a5,960
    1564:	10000db7          	lui	s11,0x10000
    1568:	10000d13          	li	s10,256
    156c:	017407b3          	add	a5,s0,s7
    1570:	01790cb3          	add	s9,s2,s7
    1574:	00078c03          	lb	s8,0(a5)
    1578:	000c8783          	lb	a5,0(s9)
    157c:	03878963          	beq	a5,s8,15ae <_Z19minimum_conv_singlePaS_S_S_a+0x20a>
    1580:	29d00693          	li	a3,669
    1584:	7dcb0613          	addi	a2,s6,2012
    1588:	54ca8593          	addi	a1,s5,1356
    158c:	020a0513          	addi	a0,s4,32
    1590:	759060ef          	jal	84e8 <_Z7printf_PKcz>
    1594:	000c8683          	lb	a3,0(s9)
    1598:	8662                	mv	a2,s8
    159a:	85de                	mv	a1,s7
    159c:	630d8513          	addi	a0,s11,1584 # 10000630 <__rodata_start__+0xfff5538>
    15a0:	749060ef          	jal	84e8 <_Z7printf_PKcz>
    15a4:	05898513          	addi	a0,s3,88
    15a8:	741060ef          	jal	84e8 <_Z7printf_PKcz>
    15ac:	4481                	li	s1,0
    15ae:	0b85                	addi	s7,s7,1
    15b0:	fbab9ee3          	bne	s7,s10,156c <_Z19minimum_conv_singlePaS_S_S_a+0x1c8>
    15b4:	b795                	j	1518 <_Z19minimum_conv_singlePaS_S_S_a+0x174>
    15b6:	10000537          	lui	a0,0x10000
    15ba:	7c050513          	addi	a0,a0,1984 # 100007c0 <__rodata_start__+0xfff56c8>
    15be:	bfa5                	j	1536 <_Z19minimum_conv_singlePaS_S_S_a+0x192>

000015c0 <_Z21minimum_dwconv_singlePaS_S_S_a>:
    15c0:	7139                	addi	sp,sp,-64
    15c2:	d64e                	sw	s3,44(sp)
    15c4:	d452                	sw	s4,40(sp)
    15c6:	d256                	sw	s5,36(sp)
    15c8:	10000a37          	lui	s4,0x10000
    15cc:	10001ab7          	lui	s5,0x10001
    15d0:	100009b7          	lui	s3,0x10000
    15d4:	da26                	sw	s1,52(sp)
    15d6:	d05a                	sw	s6,32(sp)
    15d8:	ce5e                	sw	s7,28(sp)
    15da:	cc62                	sw	s8,24(sp)
    15dc:	8baa                	mv	s7,a0
    15de:	8c2e                	mv	s8,a1
    15e0:	84b2                	mv	s1,a2
    15e2:	54ca0593          	addi	a1,s4,1356 # 1000054c <__rodata_start__+0xfff5454>
    15e6:	848a8613          	addi	a2,s5,-1976 # 10000848 <__rodata_start__+0xfff5750>
    15ea:	8b36                	mv	s6,a3
    15ec:	02098513          	addi	a0,s3,32 # 10000020 <__rodata_start__+0xfff4f28>
    15f0:	2a400693          	li	a3,676
    15f4:	de06                	sw	ra,60(sp)
    15f6:	dc22                	sw	s0,56(sp)
    15f8:	d84a                	sw	s2,48(sp)
    15fa:	843a                	mv	s0,a4
    15fc:	ca66                	sw	s9,20(sp)
    15fe:	c86a                	sw	s10,16(sp)
    1600:	c66e                	sw	s11,12(sp)
    1602:	6e7060ef          	jal	84e8 <_Z7printf_PKcz>
    1606:	10001537          	lui	a0,0x10001
    160a:	86050513          	addi	a0,a0,-1952 # 10000860 <__rodata_start__+0xfff5768>
    160e:	6db060ef          	jal	84e8 <_Z7printf_PKcz>
    1612:	10000937          	lui	s2,0x10000
    1616:	05890513          	addi	a0,s2,88 # 10000058 <__rodata_start__+0xfff4f60>
    161a:	6cf060ef          	jal	84e8 <_Z7printf_PKcz>
    161e:	10003737          	lui	a4,0x10003
    1622:	4781                	li	a5,0
    1624:	20c70713          	addi	a4,a4,524 # 1000320c <_ZZ21minimum_dwconv_singlePaS_S_S_aE6Active>
    1628:	36000693          	li	a3,864
    162c:	00f70633          	add	a2,a4,a5
    1630:	00060583          	lb	a1,0(a2) # 2100000 <__rodata_start__+0x20f4f08>
    1634:	00fb8633          	add	a2,s7,a5
    1638:	0785                	addi	a5,a5,1
    163a:	00b60023          	sb	a1,0(a2)
    163e:	fed797e3          	bne	a5,a3,162c <_Z21minimum_dwconv_singlePaS_S_S_a+0x6c>
    1642:	10004837          	lui	a6,0x10004
    1646:	d4c80813          	addi	a6,a6,-692 # 10003d4c <_ZZ23minimum_conv_single_8x8PaS_S_S_aE6Weight+0xb8>
    164a:	4781                	li	a5,0
    164c:	82080593          	addi	a1,a6,-2016
    1650:	10000713          	li	a4,256
    1654:	00f586b3          	add	a3,a1,a5
    1658:	00068603          	lb	a2,0(a3) # 20100000 <linker_stack_start+0x100d0010>
    165c:	00fc06b3          	add	a3,s8,a5
    1660:	00c68023          	sb	a2,0(a3)
    1664:	00f486b3          	add	a3,s1,a5
    1668:	00068023          	sb	zero,0(a3)
    166c:	0785                	addi	a5,a5,1
    166e:	fee793e3          	bne	a5,a4,1654 <_Z21minimum_dwconv_singlePaS_S_S_a+0x94>
    1672:	4781                	li	a5,0
    1674:	92080593          	addi	a1,a6,-1760
    1678:	4741                	li	a4,16
    167a:	00f586b3          	add	a3,a1,a5
    167e:	00068603          	lb	a2,0(a3)
    1682:	00fb06b3          	add	a3,s6,a5
    1686:	0785                	addi	a5,a5,1
    1688:	00c68023          	sb	a2,0(a3)
    168c:	fee797e3          	bne	a5,a4,167a <_Z21minimum_dwconv_singlePaS_S_S_a+0xba>
    1690:	001006b7          	lui	a3,0x100
    1694:	fff68713          	addi	a4,a3,-1 # fffff <__rodata_start__+0xf4f07>
    1698:	00ebfbb3          	and	s7,s7,a4
    169c:	06300637          	lui	a2,0x6300
    16a0:	00ec7c33          	and	s8,s8,a4
    16a4:	00cbebb3          	or	s7,s7,a2
    16a8:	00dc6c33          	or	s8,s8,a3
    16ac:	018b906b          	msetins1	zero,s7,s8
    16b0:	00140693          	addi	a3,s0,1
    16b4:	02d7c7b3          	div	a5,a5,a3
    16b8:	01041693          	slli	a3,s0,0x10
    16bc:	8f65                	and	a4,a4,s1
    16be:	8fd5                	or	a5,a5,a3
    16c0:	001846b7          	lui	a3,0x184
    16c4:	98068693          	addi	a3,a3,-1664 # 183980 <__rodata_start__+0x178888>
    16c8:	8fd5                	or	a5,a5,a3
    16ca:	021006b7          	lui	a3,0x2100
    16ce:	8f55                	or	a4,a4,a3
    16d0:	06e7906b          	msetins2	zero,a5,a4
    16d4:	100007b7          	lui	a5,0x10000
    16d8:	0b22                	slli	s6,s6,0x8
    16da:	f0078793          	addi	a5,a5,-256 # fffff00 <__rodata_start__+0xfff4e08>
    16de:	00fb77b3          	and	a5,s6,a5
    16e2:	4b05                	li	s6,1
    16e4:	0d67906b          	msetins3	zero,a5,s6
    16e8:	ec59                	bnez	s0,1786 <_Z21minimum_dwconv_singlePaS_S_S_a+0x1c6>
    16ea:	93080d13          	addi	s10,a6,-1744
    16ee:	10000db7          	lui	s11,0x10000
    16f2:	10000c93          	li	s9,256
    16f6:	008d07b3          	add	a5,s10,s0
    16fa:	00848c33          	add	s8,s1,s0
    16fe:	00078b83          	lb	s7,0(a5)
    1702:	000c0783          	lb	a5,0(s8)
    1706:	03778963          	beq	a5,s7,1738 <_Z21minimum_dwconv_singlePaS_S_S_a+0x178>
    170a:	36500693          	li	a3,869
    170e:	848a8613          	addi	a2,s5,-1976
    1712:	54ca0593          	addi	a1,s4,1356
    1716:	02098513          	addi	a0,s3,32
    171a:	5cf060ef          	jal	84e8 <_Z7printf_PKcz>
    171e:	000c0683          	lb	a3,0(s8)
    1722:	865e                	mv	a2,s7
    1724:	85a2                	mv	a1,s0
    1726:	630d8513          	addi	a0,s11,1584 # 10000630 <__rodata_start__+0xfff5538>
    172a:	5bf060ef          	jal	84e8 <_Z7printf_PKcz>
    172e:	05890513          	addi	a0,s2,88
    1732:	5b7060ef          	jal	84e8 <_Z7printf_PKcz>
    1736:	4b01                	li	s6,0
    1738:	0405                	addi	s0,s0,1
    173a:	fb941ee3          	bne	s0,s9,16f6 <_Z21minimum_dwconv_singlePaS_S_S_a+0x136>
    173e:	36900693          	li	a3,873
    1742:	848a8613          	addi	a2,s5,-1976
    1746:	54ca0593          	addi	a1,s4,1356
    174a:	02098513          	addi	a0,s3,32
    174e:	59b060ef          	jal	84e8 <_Z7printf_PKcz>
    1752:	080b0663          	beqz	s6,17de <_Z21minimum_dwconv_singlePaS_S_S_a+0x21e>
    1756:	10001537          	lui	a0,0x10001
    175a:	81050513          	addi	a0,a0,-2032 # 10000810 <__rodata_start__+0xfff5718>
    175e:	58b060ef          	jal	84e8 <_Z7printf_PKcz>
    1762:	5462                	lw	s0,56(sp)
    1764:	50f2                	lw	ra,60(sp)
    1766:	54d2                	lw	s1,52(sp)
    1768:	59b2                	lw	s3,44(sp)
    176a:	5a22                	lw	s4,40(sp)
    176c:	5a92                	lw	s5,36(sp)
    176e:	5b02                	lw	s6,32(sp)
    1770:	4bf2                	lw	s7,28(sp)
    1772:	4c62                	lw	s8,24(sp)
    1774:	4cd2                	lw	s9,20(sp)
    1776:	4d42                	lw	s10,16(sp)
    1778:	4db2                	lw	s11,12(sp)
    177a:	05890513          	addi	a0,s2,88
    177e:	5942                	lw	s2,48(sp)
    1780:	6121                	addi	sp,sp,64
    1782:	5670606f          	j	84e8 <_Z7printf_PKcz>
    1786:	4401                	li	s0,0
    1788:	a3080b93          	addi	s7,a6,-1488
    178c:	10000db7          	lui	s11,0x10000
    1790:	10000d13          	li	s10,256
    1794:	008b87b3          	add	a5,s7,s0
    1798:	00848cb3          	add	s9,s1,s0
    179c:	00078c03          	lb	s8,0(a5)
    17a0:	000c8783          	lb	a5,0(s9)
    17a4:	03878963          	beq	a5,s8,17d6 <_Z21minimum_dwconv_singlePaS_S_S_a+0x216>
    17a8:	36700693          	li	a3,871
    17ac:	848a8613          	addi	a2,s5,-1976
    17b0:	54ca0593          	addi	a1,s4,1356
    17b4:	02098513          	addi	a0,s3,32
    17b8:	531060ef          	jal	84e8 <_Z7printf_PKcz>
    17bc:	000c8683          	lb	a3,0(s9)
    17c0:	8662                	mv	a2,s8
    17c2:	85a2                	mv	a1,s0
    17c4:	630d8513          	addi	a0,s11,1584 # 10000630 <__rodata_start__+0xfff5538>
    17c8:	521060ef          	jal	84e8 <_Z7printf_PKcz>
    17cc:	05890513          	addi	a0,s2,88
    17d0:	519060ef          	jal	84e8 <_Z7printf_PKcz>
    17d4:	4b01                	li	s6,0
    17d6:	0405                	addi	s0,s0,1
    17d8:	fba41ee3          	bne	s0,s10,1794 <_Z21minimum_dwconv_singlePaS_S_S_a+0x1d4>
    17dc:	b78d                	j	173e <_Z21minimum_dwconv_singlePaS_S_S_a+0x17e>
    17de:	10001537          	lui	a0,0x10001
    17e2:	82c50513          	addi	a0,a0,-2004 # 1000082c <__rodata_start__+0xfff5734>
    17e6:	bfa5                	j	175e <_Z21minimum_dwconv_singlePaS_S_S_a+0x19e>

000017e8 <_Z13sau_benchmarkPaS_S_S_>:
    17e8:	7179                	addi	sp,sp,-48
    17ea:	ca56                	sw	s5,20(sp)
    17ec:	c85a                	sw	s6,16(sp)
    17ee:	c65e                	sw	s7,12(sp)
    17f0:	10000b37          	lui	s6,0x10000
    17f4:	10001bb7          	lui	s7,0x10001
    17f8:	10000ab7          	lui	s5,0x10000
    17fc:	d422                	sw	s0,40(sp)
    17fe:	d226                	sw	s1,36(sp)
    1800:	d04a                	sw	s2,32(sp)
    1802:	ce4e                	sw	s3,28(sp)
    1804:	842a                	mv	s0,a0
    1806:	84ae                	mv	s1,a1
    1808:	8932                	mv	s2,a2
    180a:	89b6                	mv	s3,a3
    180c:	884b8613          	addi	a2,s7,-1916 # 10000884 <__rodata_start__+0xfff578c>
    1810:	36e00693          	li	a3,878
    1814:	54cb0593          	addi	a1,s6,1356 # 1000054c <__rodata_start__+0xfff5454>
    1818:	020a8513          	addi	a0,s5,32 # 10000020 <__rodata_start__+0xfff4f28>
    181c:	d606                	sw	ra,44(sp)
    181e:	cc52                	sw	s4,24(sp)
    1820:	4c9060ef          	jal	84e8 <_Z7printf_PKcz>
    1824:	10001537          	lui	a0,0x10001
    1828:	89450513          	addi	a0,a0,-1900 # 10000894 <__rodata_start__+0xfff579c>
    182c:	4bd060ef          	jal	84e8 <_Z7printf_PKcz>
    1830:	10000a37          	lui	s4,0x10000
    1834:	058a0513          	addi	a0,s4,88 # 10000058 <__rodata_start__+0xfff4f60>
    1838:	4b1060ef          	jal	84e8 <_Z7printf_PKcz>
    183c:	864a                	mv	a2,s2
    183e:	85a6                	mv	a1,s1
    1840:	8522                	mv	a0,s0
    1842:	c86ff0ef          	jal	cc8 <_Z23minimum_matmul_single_1PaS_S_>
    1846:	864a                	mv	a2,s2
    1848:	85a6                	mv	a1,s1
    184a:	8522                	mv	a0,s0
    184c:	32c5                	jal	122c <_Z21minimum_pwconv_singlePaS_S_>
    184e:	86ce                	mv	a3,s3
    1850:	864a                	mv	a2,s2
    1852:	85a6                	mv	a1,s1
    1854:	8522                	mv	a0,s0
    1856:	4701                	li	a4,0
    1858:	36b1                	jal	13a4 <_Z19minimum_conv_singlePaS_S_S_a>
    185a:	86ce                	mv	a3,s3
    185c:	864a                	mv	a2,s2
    185e:	85a6                	mv	a1,s1
    1860:	8522                	mv	a0,s0
    1862:	4705                	li	a4,1
    1864:	3681                	jal	13a4 <_Z19minimum_conv_singlePaS_S_S_a>
    1866:	86ce                	mv	a3,s3
    1868:	864a                	mv	a2,s2
    186a:	85a6                	mv	a1,s1
    186c:	8522                	mv	a0,s0
    186e:	4701                	li	a4,0
    1870:	3b81                	jal	15c0 <_Z21minimum_dwconv_singlePaS_S_S_a>
    1872:	4705                	li	a4,1
    1874:	86ce                	mv	a3,s3
    1876:	864a                	mv	a2,s2
    1878:	85a6                	mv	a1,s1
    187a:	8522                	mv	a0,s0
    187c:	3391                	jal	15c0 <_Z21minimum_dwconv_singlePaS_S_S_a>
    187e:	884b8613          	addi	a2,s7,-1916
    1882:	54cb0593          	addi	a1,s6,1356
    1886:	37b00693          	li	a3,891
    188a:	020a8513          	addi	a0,s5,32
    188e:	45b060ef          	jal	84e8 <_Z7printf_PKcz>
    1892:	10001537          	lui	a0,0x10001
    1896:	8ac50513          	addi	a0,a0,-1876 # 100008ac <__rodata_start__+0xfff57b4>
    189a:	44f060ef          	jal	84e8 <_Z7printf_PKcz>
    189e:	5422                	lw	s0,40(sp)
    18a0:	50b2                	lw	ra,44(sp)
    18a2:	5492                	lw	s1,36(sp)
    18a4:	5902                	lw	s2,32(sp)
    18a6:	49f2                	lw	s3,28(sp)
    18a8:	4ad2                	lw	s5,20(sp)
    18aa:	4b42                	lw	s6,16(sp)
    18ac:	4bb2                	lw	s7,12(sp)
    18ae:	058a0513          	addi	a0,s4,88
    18b2:	4a62                	lw	s4,24(sp)
    18b4:	6145                	addi	sp,sp,48
    18b6:	4330606f          	j	84e8 <_Z7printf_PKcz>

000018ba <_Z23matrix_csr_set_test_8x8v>:
    18ba:	1101                	addi	sp,sp,-32
    18bc:	c84a                	sw	s2,16(sp)
    18be:	c64e                	sw	s3,12(sp)
    18c0:	c452                	sw	s4,8(sp)
    18c2:	100019b7          	lui	s3,0x10001
    18c6:	10001a37          	lui	s4,0x10001
    18ca:	10000937          	lui	s2,0x10000
    18ce:	46a1                	li	a3,8
    18d0:	8c0a0613          	addi	a2,s4,-1856 # 100008c0 <__rodata_start__+0xfff57c8>
    18d4:	8d898593          	addi	a1,s3,-1832 # 100008d8 <__rodata_start__+0xfff57e0>
    18d8:	02090513          	addi	a0,s2,32 # 10000020 <__rodata_start__+0xfff4f28>
    18dc:	ce06                	sw	ra,28(sp)
    18de:	ca26                	sw	s1,20(sp)
    18e0:	cc22                	sw	s0,24(sp)
    18e2:	c256                	sw	s5,4(sp)
    18e4:	405060ef          	jal	84e8 <_Z7printf_PKcz>
    18e8:	10000537          	lui	a0,0x10000
    18ec:	56050513          	addi	a0,a0,1376 # 10000560 <__rodata_start__+0xfff5468>
    18f0:	3f9060ef          	jal	84e8 <_Z7printf_PKcz>
    18f4:	100004b7          	lui	s1,0x10000
    18f8:	05848513          	addi	a0,s1,88 # 10000058 <__rodata_start__+0xfff4f60>
    18fc:	3ed060ef          	jal	84e8 <_Z7printf_PKcz>
    1900:	10144737          	lui	a4,0x10144
    1904:	40070793          	addi	a5,a4,1024 # 10144400 <linker_stack_start+0x114410>
    1908:	00f7106b          	msetins1	zero,a4,a5
    190c:	6791                	lui	a5,0x4
    190e:	10145737          	lui	a4,0x10145
    1912:	0785                	addi	a5,a5,1 # 4001 <_Z17vsetcsr_testcase1v+0xb5>
    1914:	80070713          	addi	a4,a4,-2048 # 10144800 <linker_stack_start+0x114810>
    1918:	06e7906b          	msetins2	zero,a5,a4
    191c:	4581                	li	a1,0
    191e:	4a85                	li	s5,1
    1920:	0d55906b          	msetins3	zero,a1,s5
    1924:	0e00146b          	mgetins3lsb	s0,zero,zero
    1928:	05540b63          	beq	s0,s5,197e <_Z23matrix_csr_set_test_8x8v+0xc4>
    192c:	8c0a0613          	addi	a2,s4,-1856
    1930:	46e1                	li	a3,24
    1932:	8d898593          	addi	a1,s3,-1832
    1936:	02090513          	addi	a0,s2,32
    193a:	3af060ef          	jal	84e8 <_Z7printf_PKcz>
    193e:	10000537          	lui	a0,0x10000
    1942:	85a2                	mv	a1,s0
    1944:	58050513          	addi	a0,a0,1408 # 10000580 <__rodata_start__+0xfff5488>
    1948:	3a1060ef          	jal	84e8 <_Z7printf_PKcz>
    194c:	05848513          	addi	a0,s1,88
    1950:	399060ef          	jal	84e8 <_Z7printf_PKcz>
    1954:	46e5                	li	a3,25
    1956:	8c0a0613          	addi	a2,s4,-1856
    195a:	8d898593          	addi	a1,s3,-1832
    195e:	02090513          	addi	a0,s2,32
    1962:	387060ef          	jal	84e8 <_Z7printf_PKcz>
    1966:	10000537          	lui	a0,0x10000
    196a:	85d6                	mv	a1,s5
    196c:	58850513          	addi	a0,a0,1416 # 10000588 <__rodata_start__+0xfff5490>
    1970:	379060ef          	jal	84e8 <_Z7printf_PKcz>
    1974:	05848513          	addi	a0,s1,88
    1978:	371060ef          	jal	84e8 <_Z7printf_PKcz>
    197c:	9002                	ebreak
    197e:	8c0a0613          	addi	a2,s4,-1856
    1982:	8d898593          	addi	a1,s3,-1832
    1986:	46f1                	li	a3,28
    1988:	02090513          	addi	a0,s2,32
    198c:	35d060ef          	jal	84e8 <_Z7printf_PKcz>
    1990:	10000537          	lui	a0,0x10000
    1994:	5a050513          	addi	a0,a0,1440 # 100005a0 <__rodata_start__+0xfff54a8>
    1998:	351060ef          	jal	84e8 <_Z7printf_PKcz>
    199c:	4462                	lw	s0,24(sp)
    199e:	40f2                	lw	ra,28(sp)
    19a0:	4942                	lw	s2,16(sp)
    19a2:	49b2                	lw	s3,12(sp)
    19a4:	4a22                	lw	s4,8(sp)
    19a6:	4a92                	lw	s5,4(sp)
    19a8:	05848513          	addi	a0,s1,88
    19ac:	44d2                	lw	s1,20(sp)
    19ae:	6105                	addi	sp,sp,32
    19b0:	3390606f          	j	84e8 <_Z7printf_PKcz>

000019b4 <_Z24minimum_matmul_multi_8x8PaS_S_>:
    19b4:	7139                	addi	sp,sp,-64
    19b6:	d256                	sw	s5,36(sp)
    19b8:	d05a                	sw	s6,32(sp)
    19ba:	ce5e                	sw	s7,28(sp)
    19bc:	10001b37          	lui	s6,0x10001
    19c0:	10001bb7          	lui	s7,0x10001
    19c4:	10000ab7          	lui	s5,0x10000
    19c8:	02000693          	li	a3,32
    19cc:	dc22                	sw	s0,56(sp)
    19ce:	da26                	sw	s1,52(sp)
    19d0:	d64e                	sw	s3,44(sp)
    19d2:	842a                	mv	s0,a0
    19d4:	84ae                	mv	s1,a1
    19d6:	89b2                	mv	s3,a2
    19d8:	8d8b0593          	addi	a1,s6,-1832 # 100008d8 <__rodata_start__+0xfff57e0>
    19dc:	8f0b8613          	addi	a2,s7,-1808 # 100008f0 <__rodata_start__+0xfff57f8>
    19e0:	020a8513          	addi	a0,s5,32 # 10000020 <__rodata_start__+0xfff4f28>
    19e4:	de06                	sw	ra,60(sp)
    19e6:	d84a                	sw	s2,48(sp)
    19e8:	d452                	sw	s4,40(sp)
    19ea:	cc62                	sw	s8,24(sp)
    19ec:	ca66                	sw	s9,20(sp)
    19ee:	c86a                	sw	s10,16(sp)
    19f0:	c66e                	sw	s11,12(sp)
    19f2:	2f7060ef          	jal	84e8 <_Z7printf_PKcz>
    19f6:	10001537          	lui	a0,0x10001
    19fa:	90c50513          	addi	a0,a0,-1780 # 1000090c <__rodata_start__+0xfff5814>
    19fe:	2eb060ef          	jal	84e8 <_Z7printf_PKcz>
    1a02:	10000937          	lui	s2,0x10000
    1a06:	05890513          	addi	a0,s2,88 # 10000058 <__rodata_start__+0xfff4f60>
    1a0a:	2df060ef          	jal	84e8 <_Z7printf_PKcz>
    1a0e:	4781                	li	a5,0
    1a10:	100046b7          	lui	a3,0x10004
    1a14:	08000613          	li	a2,128
    1a18:	87c68713          	addi	a4,a3,-1924 # 1000387c <_ZZ24minimum_matmul_multi_8x8PaS_S_E4A_sa>
    1a1c:	973e                	add	a4,a4,a5
    1a1e:	00070583          	lb	a1,0(a4)
    1a22:	00f40733          	add	a4,s0,a5
    1a26:	0785                	addi	a5,a5,1
    1a28:	00b70023          	sb	a1,0(a4)
    1a2c:	87c68713          	addi	a4,a3,-1924
    1a30:	fec794e3          	bne	a5,a2,1a18 <_Z24minimum_matmul_multi_8x8PaS_S_+0x64>
    1a34:	4781                	li	a5,0
    1a36:	08070513          	addi	a0,a4,128
    1a3a:	08000693          	li	a3,128
    1a3e:	00f50633          	add	a2,a0,a5
    1a42:	00060583          	lb	a1,0(a2) # 6300000 <__rodata_start__+0x62f4f08>
    1a46:	00f48633          	add	a2,s1,a5
    1a4a:	0785                	addi	a5,a5,1
    1a4c:	00b60023          	sb	a1,0(a2)
    1a50:	fed797e3          	bne	a5,a3,1a3e <_Z24minimum_matmul_multi_8x8PaS_S_+0x8a>
    1a54:	4781                	li	a5,0
    1a56:	08000693          	li	a3,128
    1a5a:	00f98633          	add	a2,s3,a5
    1a5e:	00060023          	sb	zero,0(a2)
    1a62:	0785                	addi	a5,a5,1
    1a64:	fed79be3          	bne	a5,a3,1a5a <_Z24minimum_matmul_multi_8x8PaS_S_+0xa6>
    1a68:	001007b7          	lui	a5,0x100
    1a6c:	17fd                	addi	a5,a5,-1 # fffff <__rodata_start__+0xf4f07>
    1a6e:	8c7d                	and	s0,s0,a5
    1a70:	002006b7          	lui	a3,0x200
    1a74:	8c55                	or	s0,s0,a3
    1a76:	8cfd                	and	s1,s1,a5
    1a78:	101006b7          	lui	a3,0x10100
    1a7c:	8cd5                	or	s1,s1,a3
    1a7e:	0094106b          	msetins1	zero,s0,s1
    1a82:	00f9f7b3          	and	a5,s3,a5
    1a86:	021006b7          	lui	a3,0x2100
    1a8a:	8fd5                	or	a5,a5,a3
    1a8c:	001046b7          	lui	a3,0x104
    1a90:	0689                	addi	a3,a3,2 # 104002 <__rodata_start__+0xf8f0a>
    1a92:	06f6906b          	msetins2	zero,a3,a5
    1a96:	4485                	li	s1,1
    1a98:	4781                	li	a5,0
    1a9a:	0c97906b          	msetins3	zero,a5,s1
    1a9e:	4401                	li	s0,0
    1aa0:	10070a13          	addi	s4,a4,256
    1aa4:	10000db7          	lui	s11,0x10000
    1aa8:	08000d13          	li	s10,128
    1aac:	008a07b3          	add	a5,s4,s0
    1ab0:	00898cb3          	add	s9,s3,s0
    1ab4:	00078c03          	lb	s8,0(a5)
    1ab8:	000c8783          	lb	a5,0(s9)
    1abc:	03878963          	beq	a5,s8,1aee <_Z24minimum_matmul_multi_8x8PaS_S_+0x13a>
    1ac0:	06200693          	li	a3,98
    1ac4:	8f0b8613          	addi	a2,s7,-1808
    1ac8:	8d8b0593          	addi	a1,s6,-1832
    1acc:	020a8513          	addi	a0,s5,32
    1ad0:	219060ef          	jal	84e8 <_Z7printf_PKcz>
    1ad4:	000c8683          	lb	a3,0(s9)
    1ad8:	8662                	mv	a2,s8
    1ada:	85a2                	mv	a1,s0
    1adc:	630d8513          	addi	a0,s11,1584 # 10000630 <__rodata_start__+0xfff5538>
    1ae0:	209060ef          	jal	84e8 <_Z7printf_PKcz>
    1ae4:	05890513          	addi	a0,s2,88
    1ae8:	201060ef          	jal	84e8 <_Z7printf_PKcz>
    1aec:	4481                	li	s1,0
    1aee:	0405                	addi	s0,s0,1
    1af0:	fba41ee3          	bne	s0,s10,1aac <_Z24minimum_matmul_multi_8x8PaS_S_+0xf8>
    1af4:	06300693          	li	a3,99
    1af8:	8f0b8613          	addi	a2,s7,-1808
    1afc:	8d8b0593          	addi	a1,s6,-1832
    1b00:	020a8513          	addi	a0,s5,32
    1b04:	1e5060ef          	jal	84e8 <_Z7printf_PKcz>
    1b08:	c89d                	beqz	s1,1b3e <_Z24minimum_matmul_multi_8x8PaS_S_+0x18a>
    1b0a:	10000537          	lui	a0,0x10000
    1b0e:	5bc50513          	addi	a0,a0,1468 # 100005bc <__rodata_start__+0xfff54c4>
    1b12:	1d7060ef          	jal	84e8 <_Z7printf_PKcz>
    1b16:	05890513          	addi	a0,s2,88
    1b1a:	1cf060ef          	jal	84e8 <_Z7printf_PKcz>
    1b1e:	9002                	ebreak
    1b20:	50f2                	lw	ra,60(sp)
    1b22:	5462                	lw	s0,56(sp)
    1b24:	54d2                	lw	s1,52(sp)
    1b26:	5942                	lw	s2,48(sp)
    1b28:	59b2                	lw	s3,44(sp)
    1b2a:	5a22                	lw	s4,40(sp)
    1b2c:	5a92                	lw	s5,36(sp)
    1b2e:	5b02                	lw	s6,32(sp)
    1b30:	4bf2                	lw	s7,28(sp)
    1b32:	4c62                	lw	s8,24(sp)
    1b34:	4cd2                	lw	s9,20(sp)
    1b36:	4d42                	lw	s10,16(sp)
    1b38:	4db2                	lw	s11,12(sp)
    1b3a:	6121                	addi	sp,sp,64
    1b3c:	8082                	ret
    1b3e:	10000537          	lui	a0,0x10000
    1b42:	5d850513          	addi	a0,a0,1496 # 100005d8 <__rodata_start__+0xfff54e0>
    1b46:	b7f1                	j	1b12 <_Z24minimum_matmul_multi_8x8PaS_S_+0x15e>

00001b48 <_Z25minimum_matmul_single_8x8PaS_S_>:
    1b48:	7111                	addi	sp,sp,-256
    1b4a:	dba6                	sw	s1,244(sp)
    1b4c:	d9ca                	sw	s2,240(sp)
    1b4e:	d7ce                	sw	s3,236(sp)
    1b50:	100014b7          	lui	s1,0x10001
    1b54:	10001937          	lui	s2,0x10001
    1b58:	100009b7          	lui	s3,0x10000
    1b5c:	06900693          	li	a3,105
    1b60:	dda2                	sw	s0,248(sp)
    1b62:	d3d6                	sw	s5,228(sp)
    1b64:	d1da                	sw	s6,224(sp)
    1b66:	842a                	mv	s0,a0
    1b68:	8aae                	mv	s5,a1
    1b6a:	8b32                	mv	s6,a2
    1b6c:	8d890593          	addi	a1,s2,-1832 # 100008d8 <__rodata_start__+0xfff57e0>
    1b70:	93048613          	addi	a2,s1,-1744 # 10000930 <__rodata_start__+0xfff5838>
    1b74:	02098513          	addi	a0,s3,32 # 10000020 <__rodata_start__+0xfff4f28>
    1b78:	df86                	sw	ra,252(sp)
    1b7a:	d5d2                	sw	s4,232(sp)
    1b7c:	cfde                	sw	s7,220(sp)
    1b7e:	cde2                	sw	s8,216(sp)
    1b80:	169060ef          	jal	84e8 <_Z7printf_PKcz>
    1b84:	10000537          	lui	a0,0x10000
    1b88:	6a050513          	addi	a0,a0,1696 # 100006a0 <__rodata_start__+0xfff55a8>
    1b8c:	15d060ef          	jal	84e8 <_Z7printf_PKcz>
    1b90:	10000a37          	lui	s4,0x10000
    1b94:	058a0513          	addi	a0,s4,88 # 10000058 <__rodata_start__+0xfff4f60>
    1b98:	151060ef          	jal	84e8 <_Z7printf_PKcz>
    1b9c:	4781                	li	a5,0
    1b9e:	080c                	addi	a1,sp,16
    1ba0:	0890                	addi	a2,sp,80
    1ba2:	07f00513          	li	a0,127
    1ba6:	04000813          	li	a6,64
    1baa:	00878693          	addi	a3,a5,8
    1bae:	0ff7f713          	zext.b	a4,a5
    1bb2:	00f588b3          	add	a7,a1,a5
    1bb6:	f8070313          	addi	t1,a4,-128
    1bba:	00688023          	sb	t1,0(a7)
    1bbe:	40e50733          	sub	a4,a0,a4
    1bc2:	00f608b3          	add	a7,a2,a5
    1bc6:	00e88023          	sb	a4,0(a7)
    1bca:	0785                	addi	a5,a5,1
    1bcc:	fed791e3          	bne	a5,a3,1bae <_Z25minimum_matmul_single_8x8PaS_S_+0x66>
    1bd0:	fd079de3          	bne	a5,a6,1baa <_Z25minimum_matmul_single_8x8PaS_S_+0x62>
    1bd4:	4781                	li	a5,0
    1bd6:	4ea1                	li	t4,8
    1bd8:	09010b93          	addi	s7,sp,144
    1bdc:	04000f13          	li	t5,64
    1be0:	4701                	li	a4,0
    1be2:	00f58e33          	add	t3,a1,a5
    1be6:	00fb8333          	add	t1,s7,a5
    1bea:	a02d                	j	1c14 <_Z25minimum_matmul_single_8x8PaS_S_+0xcc>
    1bec:	00de08b3          	add	a7,t3,a3
    1bf0:	00080f83          	lb	t6,0(a6)
    1bf4:	00088883          	lb	a7,0(a7)
    1bf8:	0685                	addi	a3,a3,1
    1bfa:	0821                	addi	a6,a6,8
    1bfc:	03f888b3          	mul	a7,a7,t6
    1c00:	9546                	add	a0,a0,a7
    1c02:	ffd695e3          	bne	a3,t4,1bec <_Z25minimum_matmul_single_8x8PaS_S_+0xa4>
    1c06:	00e30833          	add	a6,t1,a4
    1c0a:	00a80023          	sb	a0,0(a6)
    1c0e:	0705                	addi	a4,a4,1
    1c10:	00d70763          	beq	a4,a3,1c1e <_Z25minimum_matmul_single_8x8PaS_S_+0xd6>
    1c14:	00e60833          	add	a6,a2,a4
    1c18:	4681                	li	a3,0
    1c1a:	4501                	li	a0,0
    1c1c:	bfc1                	j	1bec <_Z25minimum_matmul_single_8x8PaS_S_+0xa4>
    1c1e:	07a1                	addi	a5,a5,8
    1c20:	fde790e3          	bne	a5,t5,1be0 <_Z25minimum_matmul_single_8x8PaS_S_+0x98>
    1c24:	4781                	li	a5,0
    1c26:	04000713          	li	a4,64
    1c2a:	00f58533          	add	a0,a1,a5
    1c2e:	00054503          	lbu	a0,0(a0)
    1c32:	00f406b3          	add	a3,s0,a5
    1c36:	00a68023          	sb	a0,0(a3)
    1c3a:	00f60533          	add	a0,a2,a5
    1c3e:	00054503          	lbu	a0,0(a0)
    1c42:	00fa86b3          	add	a3,s5,a5
    1c46:	00a68023          	sb	a0,0(a3)
    1c4a:	00fb06b3          	add	a3,s6,a5
    1c4e:	00068023          	sb	zero,0(a3)
    1c52:	0785                	addi	a5,a5,1
    1c54:	fce79be3          	bne	a5,a4,1c2a <_Z25minimum_matmul_single_8x8PaS_S_+0xe2>
    1c58:	001007b7          	lui	a5,0x100
    1c5c:	8c5d                	or	s0,s0,a5
    1c5e:	00faeab3          	or	s5,s5,a5
    1c62:	0154106b          	msetins1	zero,s0,s5
    1c66:	6711                	lui	a4,0x4
    1c68:	00fb67b3          	or	a5,s6,a5
    1c6c:	0705                	addi	a4,a4,1 # 4001 <_Z17vsetcsr_testcase1v+0xb5>
    1c6e:	06f7106b          	msetins2	zero,a4,a5
    1c72:	4781                	li	a5,0
    1c74:	4705                	li	a4,1
    1c76:	0ce7906b          	msetins3	zero,a5,a4
    1c7a:	4401                	li	s0,0
    1c7c:	10000c37          	lui	s8,0x10000
    1c80:	008b07b3          	add	a5,s6,s0
    1c84:	00078a83          	lb	s5,0(a5) # 100000 <__rodata_start__+0xf4f08>
    1c88:	008b87b3          	add	a5,s7,s0
    1c8c:	00078703          	lb	a4,0(a5)
    1c90:	02ea8963          	beq	s5,a4,1cc2 <_Z25minimum_matmul_single_8x8PaS_S_+0x17a>
    1c94:	0b900693          	li	a3,185
    1c98:	93048613          	addi	a2,s1,-1744
    1c9c:	8d890593          	addi	a1,s2,-1832
    1ca0:	02098513          	addi	a0,s3,32
    1ca4:	c63a                	sw	a4,12(sp)
    1ca6:	043060ef          	jal	84e8 <_Z7printf_PKcz>
    1caa:	4732                	lw	a4,12(sp)
    1cac:	86d6                	mv	a3,s5
    1cae:	8622                	mv	a2,s0
    1cb0:	4581                	li	a1,0
    1cb2:	6c4c0513          	addi	a0,s8,1732 # 100006c4 <__rodata_start__+0xfff55cc>
    1cb6:	033060ef          	jal	84e8 <_Z7printf_PKcz>
    1cba:	058a0513          	addi	a0,s4,88
    1cbe:	02b060ef          	jal	84e8 <_Z7printf_PKcz>
    1cc2:	0405                	addi	s0,s0,1
    1cc4:	bf75                	j	1c80 <_Z25minimum_matmul_single_8x8PaS_S_+0x138>

00001cc6 <_Z25minimum_pwconv_single_8x8PaS_S_>:
    1cc6:	7139                	addi	sp,sp,-64
    1cc8:	d256                	sw	s5,36(sp)
    1cca:	d05a                	sw	s6,32(sp)
    1ccc:	ce5e                	sw	s7,28(sp)
    1cce:	10001b37          	lui	s6,0x10001
    1cd2:	10001bb7          	lui	s7,0x10001
    1cd6:	10000ab7          	lui	s5,0x10000
    1cda:	0c600693          	li	a3,198
    1cde:	dc22                	sw	s0,56(sp)
    1ce0:	da26                	sw	s1,52(sp)
    1ce2:	d452                	sw	s4,40(sp)
    1ce4:	842a                	mv	s0,a0
    1ce6:	84ae                	mv	s1,a1
    1ce8:	8a32                	mv	s4,a2
    1cea:	8d8b0593          	addi	a1,s6,-1832 # 100008d8 <__rodata_start__+0xfff57e0>
    1cee:	94cb8613          	addi	a2,s7,-1716 # 1000094c <__rodata_start__+0xfff5854>
    1cf2:	020a8513          	addi	a0,s5,32 # 10000020 <__rodata_start__+0xfff4f28>
    1cf6:	de06                	sw	ra,60(sp)
    1cf8:	d84a                	sw	s2,48(sp)
    1cfa:	d64e                	sw	s3,44(sp)
    1cfc:	cc62                	sw	s8,24(sp)
    1cfe:	ca66                	sw	s9,20(sp)
    1d00:	c86a                	sw	s10,16(sp)
    1d02:	c66e                	sw	s11,12(sp)
    1d04:	7e4060ef          	jal	84e8 <_Z7printf_PKcz>
    1d08:	10001537          	lui	a0,0x10001
    1d0c:	96850513          	addi	a0,a0,-1688 # 10000968 <__rodata_start__+0xfff5870>
    1d10:	7d8060ef          	jal	84e8 <_Z7printf_PKcz>
    1d14:	10000937          	lui	s2,0x10000
    1d18:	05890513          	addi	a0,s2,88 # 10000058 <__rodata_start__+0xfff4f60>
    1d1c:	7cc060ef          	jal	84e8 <_Z7printf_PKcz>
    1d20:	10004737          	lui	a4,0x10004
    1d24:	87c70713          	addi	a4,a4,-1924 # 1000387c <_ZZ24minimum_matmul_multi_8x8PaS_S_E4A_sa>
    1d28:	4781                	li	a5,0
    1d2a:	18070513          	addi	a0,a4,384
    1d2e:	18000693          	li	a3,384
    1d32:	00f50633          	add	a2,a0,a5
    1d36:	00060583          	lb	a1,0(a2)
    1d3a:	00f40633          	add	a2,s0,a5
    1d3e:	0785                	addi	a5,a5,1
    1d40:	00b60023          	sb	a1,0(a2)
    1d44:	fed797e3          	bne	a5,a3,1d32 <_Z25minimum_pwconv_single_8x8PaS_S_+0x6c>
    1d48:	4781                	li	a5,0
    1d4a:	10004537          	lui	a0,0x10004
    1d4e:	08000613          	li	a2,128
    1d52:	8fc50693          	addi	a3,a0,-1796 # 100038fc <_ZZ24minimum_matmul_multi_8x8PaS_S_E4B_sa>
    1d56:	96be                	add	a3,a3,a5
    1d58:	00068583          	lb	a1,0(a3)
    1d5c:	00f486b3          	add	a3,s1,a5
    1d60:	00b68023          	sb	a1,0(a3)
    1d64:	00fa06b3          	add	a3,s4,a5
    1d68:	00068023          	sb	zero,0(a3)
    1d6c:	0785                	addi	a5,a5,1
    1d6e:	fec792e3          	bne	a5,a2,1d52 <_Z25minimum_pwconv_single_8x8PaS_S_+0x8c>
    1d72:	001007b7          	lui	a5,0x100
    1d76:	17fd                	addi	a5,a5,-1 # fffff <__rodata_start__+0xf4f07>
    1d78:	8c7d                	and	s0,s0,a5
    1d7a:	202006b7          	lui	a3,0x20200
    1d7e:	8c55                	or	s0,s0,a3
    1d80:	8cfd                	and	s1,s1,a5
    1d82:	101006b7          	lui	a3,0x10100
    1d86:	8cd5                	or	s1,s1,a3
    1d88:	0094106b          	msetins1	zero,s0,s1
    1d8c:	00fa77b3          	and	a5,s4,a5
    1d90:	021006b7          	lui	a3,0x2100
    1d94:	8fd5                	or	a5,a5,a3
    1d96:	001416b7          	lui	a3,0x141
    1d9a:	10268693          	addi	a3,a3,258 # 141102 <__rodata_start__+0x13600a>
    1d9e:	06f6906b          	msetins2	zero,a3,a5
    1da2:	4485                	li	s1,1
    1da4:	4781                	li	a5,0
    1da6:	0c97906b          	msetins3	zero,a5,s1
    1daa:	4401                	li	s0,0
    1dac:	30070993          	addi	s3,a4,768
    1db0:	10000db7          	lui	s11,0x10000
    1db4:	04000d13          	li	s10,64
    1db8:	008987b3          	add	a5,s3,s0
    1dbc:	008a0cb3          	add	s9,s4,s0
    1dc0:	00078c03          	lb	s8,0(a5)
    1dc4:	000c8783          	lb	a5,0(s9)
    1dc8:	03878963          	beq	a5,s8,1dfa <_Z25minimum_pwconv_single_8x8PaS_S_+0x134>
    1dcc:	13a00693          	li	a3,314
    1dd0:	94cb8613          	addi	a2,s7,-1716
    1dd4:	8d8b0593          	addi	a1,s6,-1832
    1dd8:	020a8513          	addi	a0,s5,32
    1ddc:	70c060ef          	jal	84e8 <_Z7printf_PKcz>
    1de0:	000c8683          	lb	a3,0(s9)
    1de4:	8662                	mv	a2,s8
    1de6:	85a2                	mv	a1,s0
    1de8:	630d8513          	addi	a0,s11,1584 # 10000630 <__rodata_start__+0xfff5538>
    1dec:	6fc060ef          	jal	84e8 <_Z7printf_PKcz>
    1df0:	05890513          	addi	a0,s2,88
    1df4:	6f4060ef          	jal	84e8 <_Z7printf_PKcz>
    1df8:	4481                	li	s1,0
    1dfa:	0405                	addi	s0,s0,1
    1dfc:	fba41ee3          	bne	s0,s10,1db8 <_Z25minimum_pwconv_single_8x8PaS_S_+0xf2>
    1e00:	13b00693          	li	a3,315
    1e04:	94cb8613          	addi	a2,s7,-1716
    1e08:	8d8b0593          	addi	a1,s6,-1832
    1e0c:	020a8513          	addi	a0,s5,32
    1e10:	6d8060ef          	jal	84e8 <_Z7printf_PKcz>
    1e14:	c88d                	beqz	s1,1e46 <_Z25minimum_pwconv_single_8x8PaS_S_+0x180>
    1e16:	10000537          	lui	a0,0x10000
    1e1a:	73050513          	addi	a0,a0,1840 # 10000730 <__rodata_start__+0xfff5638>
    1e1e:	6ca060ef          	jal	84e8 <_Z7printf_PKcz>
    1e22:	5462                	lw	s0,56(sp)
    1e24:	50f2                	lw	ra,60(sp)
    1e26:	54d2                	lw	s1,52(sp)
    1e28:	59b2                	lw	s3,44(sp)
    1e2a:	5a22                	lw	s4,40(sp)
    1e2c:	5a92                	lw	s5,36(sp)
    1e2e:	5b02                	lw	s6,32(sp)
    1e30:	4bf2                	lw	s7,28(sp)
    1e32:	4c62                	lw	s8,24(sp)
    1e34:	4cd2                	lw	s9,20(sp)
    1e36:	4d42                	lw	s10,16(sp)
    1e38:	4db2                	lw	s11,12(sp)
    1e3a:	05890513          	addi	a0,s2,88
    1e3e:	5942                	lw	s2,48(sp)
    1e40:	6121                	addi	sp,sp,64
    1e42:	6a60606f          	j	84e8 <_Z7printf_PKcz>
    1e46:	10000537          	lui	a0,0x10000
    1e4a:	74c50513          	addi	a0,a0,1868 # 1000074c <__rodata_start__+0xfff5654>
    1e4e:	bfc1                	j	1e1e <_Z25minimum_pwconv_single_8x8PaS_S_+0x158>

00001e50 <_Z23minimum_conv_single_8x8PaS_S_S_a>:
    1e50:	7139                	addi	sp,sp,-64
    1e52:	d452                	sw	s4,40(sp)
    1e54:	d256                	sw	s5,36(sp)
    1e56:	d05a                	sw	s6,32(sp)
    1e58:	10001ab7          	lui	s5,0x10001
    1e5c:	10001b37          	lui	s6,0x10001
    1e60:	10000a37          	lui	s4,0x10000
    1e64:	da26                	sw	s1,52(sp)
    1e66:	d84a                	sw	s2,48(sp)
    1e68:	ce5e                	sw	s7,28(sp)
    1e6a:	cc62                	sw	s8,24(sp)
    1e6c:	8baa                	mv	s7,a0
    1e6e:	8c2e                	mv	s8,a1
    1e70:	8932                	mv	s2,a2
    1e72:	8d8a8593          	addi	a1,s5,-1832 # 100008d8 <__rodata_start__+0xfff57e0>
    1e76:	9d0b0613          	addi	a2,s6,-1584 # 100009d0 <__rodata_start__+0xfff58d8>
    1e7a:	84b6                	mv	s1,a3
    1e7c:	020a0513          	addi	a0,s4,32 # 10000020 <__rodata_start__+0xfff4f28>
    1e80:	13f00693          	li	a3,319
    1e84:	de06                	sw	ra,60(sp)
    1e86:	dc22                	sw	s0,56(sp)
    1e88:	d64e                	sw	s3,44(sp)
    1e8a:	843a                	mv	s0,a4
    1e8c:	ca66                	sw	s9,20(sp)
    1e8e:	c86a                	sw	s10,16(sp)
    1e90:	c66e                	sw	s11,12(sp)
    1e92:	656060ef          	jal	84e8 <_Z7printf_PKcz>
    1e96:	10001537          	lui	a0,0x10001
    1e9a:	9e850513          	addi	a0,a0,-1560 # 100009e8 <__rodata_start__+0xfff58f0>
    1e9e:	64a060ef          	jal	84e8 <_Z7printf_PKcz>
    1ea2:	100009b7          	lui	s3,0x10000
    1ea6:	05898513          	addi	a0,s3,88 # 10000058 <__rodata_start__+0xfff4f60>
    1eaa:	63e060ef          	jal	84e8 <_Z7printf_PKcz>
    1eae:	100047b7          	lui	a5,0x10004
    1eb2:	87c78793          	addi	a5,a5,-1924 # 1000387c <_ZZ24minimum_matmul_multi_8x8PaS_S_E4A_sa>
    1eb6:	4681                	li	a3,0
    1eb8:	34078513          	addi	a0,a5,832
    1ebc:	0d800713          	li	a4,216
    1ec0:	00d50633          	add	a2,a0,a3
    1ec4:	00060583          	lb	a1,0(a2)
    1ec8:	00db8633          	add	a2,s7,a3
    1ecc:	0685                	addi	a3,a3,1
    1ece:	00b60023          	sb	a1,0(a2)
    1ed2:	fee697e3          	bne	a3,a4,1ec0 <_Z23minimum_conv_single_8x8PaS_S_S_a+0x70>
    1ed6:	4681                	li	a3,0
    1ed8:	41878513          	addi	a0,a5,1048
    1edc:	12000713          	li	a4,288
    1ee0:	00d50633          	add	a2,a0,a3
    1ee4:	00060583          	lb	a1,0(a2)
    1ee8:	00dc0633          	add	a2,s8,a3
    1eec:	00b60023          	sb	a1,0(a2)
    1ef0:	00d90633          	add	a2,s2,a3
    1ef4:	00060023          	sb	zero,0(a2)
    1ef8:	0685                	addi	a3,a3,1
    1efa:	fee693e3          	bne	a3,a4,1ee0 <_Z23minimum_conv_single_8x8PaS_S_S_a+0x90>
    1efe:	4681                	li	a3,0
    1f00:	1001a537          	lui	a0,0x1001a
    1f04:	4621                	li	a2,8
    1f06:	74850713          	addi	a4,a0,1864 # 1001a748 <_ZZ23minimum_conv_single_8x8PaS_S_S_aE4Bias>
    1f0a:	9736                	add	a4,a4,a3
    1f0c:	00070583          	lb	a1,0(a4)
    1f10:	00d48733          	add	a4,s1,a3
    1f14:	0685                	addi	a3,a3,1
    1f16:	00b70023          	sb	a1,0(a4)
    1f1a:	fec696e3          	bne	a3,a2,1f06 <_Z23minimum_conv_single_8x8PaS_S_S_a+0xb6>
    1f1e:	00100737          	lui	a4,0x100
    1f22:	177d                	addi	a4,a4,-1 # fffff <__rodata_start__+0xf4f07>
    1f24:	00ebfbb3          	and	s7,s7,a4
    1f28:	0c3006b7          	lui	a3,0xc300
    1f2c:	00dbebb3          	or	s7,s7,a3
    1f30:	00ec7c33          	and	s8,s8,a4
    1f34:	122006b7          	lui	a3,0x12200
    1f38:	00dc6c33          	or	s8,s8,a3
    1f3c:	018b906b          	msetins1	zero,s7,s8
    1f40:	00143637          	lui	a2,0x143
    1f44:	01041693          	slli	a3,s0,0x10
    1f48:	18260613          	addi	a2,a2,386 # 143182 <__rodata_start__+0x13808a>
    1f4c:	8ed1                	or	a3,a3,a2
    1f4e:	00e97733          	and	a4,s2,a4
    1f52:	02100637          	lui	a2,0x2100
    1f56:	8f51                	or	a4,a4,a2
    1f58:	06e6906b          	msetins2	zero,a3,a4
    1f5c:	10000737          	lui	a4,0x10000
    1f60:	04a2                	slli	s1,s1,0x8
    1f62:	f0070713          	addi	a4,a4,-256 # fffff00 <__rodata_start__+0xfff4e08>
    1f66:	8f65                	and	a4,a4,s1
    1f68:	4485                	li	s1,1
    1f6a:	0c97106b          	msetins3	zero,a4,s1
    1f6e:	ec51                	bnez	s0,200a <_Z23minimum_conv_single_8x8PaS_S_S_a+0x1ba>
    1f70:	53878d13          	addi	s10,a5,1336
    1f74:	10000db7          	lui	s11,0x10000
    1f78:	04000c93          	li	s9,64
    1f7c:	008d07b3          	add	a5,s10,s0
    1f80:	00890c33          	add	s8,s2,s0
    1f84:	00078b83          	lb	s7,0(a5)
    1f88:	000c0783          	lb	a5,0(s8)
    1f8c:	03778963          	beq	a5,s7,1fbe <_Z23minimum_conv_single_8x8PaS_S_S_a+0x16e>
    1f90:	1cc00693          	li	a3,460
    1f94:	9d0b0613          	addi	a2,s6,-1584
    1f98:	8d8a8593          	addi	a1,s5,-1832
    1f9c:	020a0513          	addi	a0,s4,32
    1fa0:	548060ef          	jal	84e8 <_Z7printf_PKcz>
    1fa4:	000c0683          	lb	a3,0(s8)
    1fa8:	865e                	mv	a2,s7
    1faa:	85a2                	mv	a1,s0
    1fac:	630d8513          	addi	a0,s11,1584 # 10000630 <__rodata_start__+0xfff5538>
    1fb0:	538060ef          	jal	84e8 <_Z7printf_PKcz>
    1fb4:	05898513          	addi	a0,s3,88
    1fb8:	530060ef          	jal	84e8 <_Z7printf_PKcz>
    1fbc:	4481                	li	s1,0
    1fbe:	0405                	addi	s0,s0,1
    1fc0:	fb941ee3          	bne	s0,s9,1f7c <_Z23minimum_conv_single_8x8PaS_S_S_a+0x12c>
    1fc4:	1d000693          	li	a3,464
    1fc8:	9d0b0613          	addi	a2,s6,-1584
    1fcc:	8d8a8593          	addi	a1,s5,-1832
    1fd0:	020a0513          	addi	a0,s4,32
    1fd4:	514060ef          	jal	84e8 <_Z7printf_PKcz>
    1fd8:	c4c9                	beqz	s1,2062 <_Z23minimum_conv_single_8x8PaS_S_S_a+0x212>
    1fda:	10001537          	lui	a0,0x10001
    1fde:	99050513          	addi	a0,a0,-1648 # 10000990 <__rodata_start__+0xfff5898>
    1fe2:	506060ef          	jal	84e8 <_Z7printf_PKcz>
    1fe6:	5462                	lw	s0,56(sp)
    1fe8:	50f2                	lw	ra,60(sp)
    1fea:	54d2                	lw	s1,52(sp)
    1fec:	5942                	lw	s2,48(sp)
    1fee:	5a22                	lw	s4,40(sp)
    1ff0:	5a92                	lw	s5,36(sp)
    1ff2:	5b02                	lw	s6,32(sp)
    1ff4:	4bf2                	lw	s7,28(sp)
    1ff6:	4c62                	lw	s8,24(sp)
    1ff8:	4cd2                	lw	s9,20(sp)
    1ffa:	4d42                	lw	s10,16(sp)
    1ffc:	4db2                	lw	s11,12(sp)
    1ffe:	05898513          	addi	a0,s3,88
    2002:	59b2                	lw	s3,44(sp)
    2004:	6121                	addi	sp,sp,64
    2006:	4e20606f          	j	84e8 <_Z7printf_PKcz>
    200a:	4401                	li	s0,0
    200c:	57878b93          	addi	s7,a5,1400
    2010:	10000db7          	lui	s11,0x10000
    2014:	04000d13          	li	s10,64
    2018:	008b87b3          	add	a5,s7,s0
    201c:	00890cb3          	add	s9,s2,s0
    2020:	00078c03          	lb	s8,0(a5)
    2024:	000c8783          	lb	a5,0(s9)
    2028:	03878963          	beq	a5,s8,205a <_Z23minimum_conv_single_8x8PaS_S_S_a+0x20a>
    202c:	1ce00693          	li	a3,462
    2030:	9d0b0613          	addi	a2,s6,-1584
    2034:	8d8a8593          	addi	a1,s5,-1832
    2038:	020a0513          	addi	a0,s4,32
    203c:	4ac060ef          	jal	84e8 <_Z7printf_PKcz>
    2040:	000c8683          	lb	a3,0(s9)
    2044:	8662                	mv	a2,s8
    2046:	85a2                	mv	a1,s0
    2048:	630d8513          	addi	a0,s11,1584 # 10000630 <__rodata_start__+0xfff5538>
    204c:	49c060ef          	jal	84e8 <_Z7printf_PKcz>
    2050:	05898513          	addi	a0,s3,88
    2054:	494060ef          	jal	84e8 <_Z7printf_PKcz>
    2058:	4481                	li	s1,0
    205a:	0405                	addi	s0,s0,1
    205c:	fba41ee3          	bne	s0,s10,2018 <_Z23minimum_conv_single_8x8PaS_S_S_a+0x1c8>
    2060:	b795                	j	1fc4 <_Z23minimum_conv_single_8x8PaS_S_S_a+0x174>
    2062:	10001537          	lui	a0,0x10001
    2066:	9b050513          	addi	a0,a0,-1616 # 100009b0 <__rodata_start__+0xfff58b8>
    206a:	bfa5                	j	1fe2 <_Z23minimum_conv_single_8x8PaS_S_S_a+0x192>

0000206c <_Z25minimum_dwconv_single_8x8PaS_S_S_a>:
    206c:	7139                	addi	sp,sp,-64
    206e:	d64e                	sw	s3,44(sp)
    2070:	d452                	sw	s4,40(sp)
    2072:	d256                	sw	s5,36(sp)
    2074:	10001a37          	lui	s4,0x10001
    2078:	10001ab7          	lui	s5,0x10001
    207c:	100009b7          	lui	s3,0x10000
    2080:	da26                	sw	s1,52(sp)
    2082:	d05a                	sw	s6,32(sp)
    2084:	ce5e                	sw	s7,28(sp)
    2086:	cc62                	sw	s8,24(sp)
    2088:	8baa                	mv	s7,a0
    208a:	8c2e                	mv	s8,a1
    208c:	84b2                	mv	s1,a2
    208e:	8d8a0593          	addi	a1,s4,-1832 # 100008d8 <__rodata_start__+0xfff57e0>
    2092:	a4ca8613          	addi	a2,s5,-1460 # 10000a4c <__rodata_start__+0xfff5954>
    2096:	8b36                	mv	s6,a3
    2098:	02098513          	addi	a0,s3,32 # 10000020 <__rodata_start__+0xfff4f28>
    209c:	1d500693          	li	a3,469
    20a0:	de06                	sw	ra,60(sp)
    20a2:	dc22                	sw	s0,56(sp)
    20a4:	d84a                	sw	s2,48(sp)
    20a6:	843a                	mv	s0,a4
    20a8:	ca66                	sw	s9,20(sp)
    20aa:	c86a                	sw	s10,16(sp)
    20ac:	c66e                	sw	s11,12(sp)
    20ae:	43a060ef          	jal	84e8 <_Z7printf_PKcz>
    20b2:	10001537          	lui	a0,0x10001
    20b6:	a6850513          	addi	a0,a0,-1432 # 10000a68 <__rodata_start__+0xfff5970>
    20ba:	42e060ef          	jal	84e8 <_Z7printf_PKcz>
    20be:	10000937          	lui	s2,0x10000
    20c2:	05890513          	addi	a0,s2,88 # 10000058 <__rodata_start__+0xfff4f60>
    20c6:	422060ef          	jal	84e8 <_Z7printf_PKcz>
    20ca:	10004837          	lui	a6,0x10004
    20ce:	87c80813          	addi	a6,a6,-1924 # 1000387c <_ZZ24minimum_matmul_multi_8x8PaS_S_E4A_sa>
    20d2:	4781                	li	a5,0
    20d4:	5b880593          	addi	a1,a6,1464
    20d8:	1b000713          	li	a4,432
    20dc:	00f586b3          	add	a3,a1,a5
    20e0:	00068603          	lb	a2,0(a3) # 12200000 <linker_stack_start+0x21d0010>
    20e4:	00fb86b3          	add	a3,s7,a5
    20e8:	0785                	addi	a5,a5,1
    20ea:	00c68023          	sb	a2,0(a3)
    20ee:	fee797e3          	bne	a5,a4,20dc <_Z25minimum_dwconv_single_8x8PaS_S_S_a+0x70>
    20f2:	4781                	li	a5,0
    20f4:	76880593          	addi	a1,a6,1896
    20f8:	04800713          	li	a4,72
    20fc:	00f586b3          	add	a3,a1,a5
    2100:	00068603          	lb	a2,0(a3)
    2104:	00fc06b3          	add	a3,s8,a5
    2108:	00c68023          	sb	a2,0(a3)
    210c:	00f486b3          	add	a3,s1,a5
    2110:	00068023          	sb	zero,0(a3)
    2114:	0785                	addi	a5,a5,1
    2116:	fee793e3          	bne	a5,a4,20fc <_Z25minimum_dwconv_single_8x8PaS_S_S_a+0x90>
    211a:	4781                	li	a5,0
    211c:	1001a5b7          	lui	a1,0x1001a
    2120:	46a1                	li	a3,8
    2122:	74858713          	addi	a4,a1,1864 # 1001a748 <_ZZ23minimum_conv_single_8x8PaS_S_S_aE4Bias>
    2126:	973e                	add	a4,a4,a5
    2128:	00070603          	lb	a2,0(a4)
    212c:	00fb0733          	add	a4,s6,a5
    2130:	0785                	addi	a5,a5,1
    2132:	00c70023          	sb	a2,0(a4)
    2136:	fed796e3          	bne	a5,a3,2122 <_Z25minimum_dwconv_single_8x8PaS_S_S_a+0xb6>
    213a:	001006b7          	lui	a3,0x100
    213e:	fff68713          	addi	a4,a3,-1 # fffff <__rodata_start__+0xf4f07>
    2142:	00ebfbb3          	and	s7,s7,a4
    2146:	06300637          	lui	a2,0x6300
    214a:	00ec7c33          	and	s8,s8,a4
    214e:	00cbebb3          	or	s7,s7,a2
    2152:	00dc6c33          	or	s8,s8,a3
    2156:	018b906b          	msetins1	zero,s7,s8
    215a:	00140693          	addi	a3,s0,1
    215e:	02d7c7b3          	div	a5,a5,a3
    2162:	01041693          	slli	a3,s0,0x10
    2166:	8f65                	and	a4,a4,s1
    2168:	8fd5                	or	a5,a5,a3
    216a:	001846b7          	lui	a3,0x184
    216e:	98068693          	addi	a3,a3,-1664 # 183980 <__rodata_start__+0x178888>
    2172:	8fd5                	or	a5,a5,a3
    2174:	021006b7          	lui	a3,0x2100
    2178:	8f55                	or	a4,a4,a3
    217a:	06e7906b          	msetins2	zero,a5,a4
    217e:	100007b7          	lui	a5,0x10000
    2182:	0b22                	slli	s6,s6,0x8
    2184:	f0078793          	addi	a5,a5,-256 # fffff00 <__rodata_start__+0xfff4e08>
    2188:	00fb77b3          	and	a5,s6,a5
    218c:	4b05                	li	s6,1
    218e:	0d67906b          	msetins3	zero,a5,s6
    2192:	ec59                	bnez	s0,2230 <_Z25minimum_dwconv_single_8x8PaS_S_S_a+0x1c4>
    2194:	7b080d13          	addi	s10,a6,1968
    2198:	10000db7          	lui	s11,0x10000
    219c:	04000c93          	li	s9,64
    21a0:	008d07b3          	add	a5,s10,s0
    21a4:	00848c33          	add	s8,s1,s0
    21a8:	00078b83          	lb	s7,0(a5)
    21ac:	000c0783          	lb	a5,0(s8)
    21b0:	03778963          	beq	a5,s7,21e2 <_Z25minimum_dwconv_single_8x8PaS_S_S_a+0x176>
    21b4:	26d00693          	li	a3,621
    21b8:	a4ca8613          	addi	a2,s5,-1460
    21bc:	8d8a0593          	addi	a1,s4,-1832
    21c0:	02098513          	addi	a0,s3,32
    21c4:	324060ef          	jal	84e8 <_Z7printf_PKcz>
    21c8:	000c0683          	lb	a3,0(s8)
    21cc:	865e                	mv	a2,s7
    21ce:	85a2                	mv	a1,s0
    21d0:	630d8513          	addi	a0,s11,1584 # 10000630 <__rodata_start__+0xfff5538>
    21d4:	314060ef          	jal	84e8 <_Z7printf_PKcz>
    21d8:	05890513          	addi	a0,s2,88
    21dc:	30c060ef          	jal	84e8 <_Z7printf_PKcz>
    21e0:	4b01                	li	s6,0
    21e2:	0405                	addi	s0,s0,1
    21e4:	fb941ee3          	bne	s0,s9,21a0 <_Z25minimum_dwconv_single_8x8PaS_S_S_a+0x134>
    21e8:	27100693          	li	a3,625
    21ec:	a4ca8613          	addi	a2,s5,-1460
    21f0:	8d8a0593          	addi	a1,s4,-1832
    21f4:	02098513          	addi	a0,s3,32
    21f8:	2f0060ef          	jal	84e8 <_Z7printf_PKcz>
    21fc:	080b0663          	beqz	s6,2288 <_Z25minimum_dwconv_single_8x8PaS_S_S_a+0x21c>
    2200:	10001537          	lui	a0,0x10001
    2204:	a0c50513          	addi	a0,a0,-1524 # 10000a0c <__rodata_start__+0xfff5914>
    2208:	2e0060ef          	jal	84e8 <_Z7printf_PKcz>
    220c:	5462                	lw	s0,56(sp)
    220e:	50f2                	lw	ra,60(sp)
    2210:	54d2                	lw	s1,52(sp)
    2212:	59b2                	lw	s3,44(sp)
    2214:	5a22                	lw	s4,40(sp)
    2216:	5a92                	lw	s5,36(sp)
    2218:	5b02                	lw	s6,32(sp)
    221a:	4bf2                	lw	s7,28(sp)
    221c:	4c62                	lw	s8,24(sp)
    221e:	4cd2                	lw	s9,20(sp)
    2220:	4d42                	lw	s10,16(sp)
    2222:	4db2                	lw	s11,12(sp)
    2224:	05890513          	addi	a0,s2,88
    2228:	5942                	lw	s2,48(sp)
    222a:	6121                	addi	sp,sp,64
    222c:	2bc0606f          	j	84e8 <_Z7printf_PKcz>
    2230:	4401                	li	s0,0
    2232:	7f080b93          	addi	s7,a6,2032
    2236:	10000db7          	lui	s11,0x10000
    223a:	04000d13          	li	s10,64
    223e:	008b87b3          	add	a5,s7,s0
    2242:	00848cb3          	add	s9,s1,s0
    2246:	00078c03          	lb	s8,0(a5)
    224a:	000c8783          	lb	a5,0(s9)
    224e:	03878963          	beq	a5,s8,2280 <_Z25minimum_dwconv_single_8x8PaS_S_S_a+0x214>
    2252:	26f00693          	li	a3,623
    2256:	a4ca8613          	addi	a2,s5,-1460
    225a:	8d8a0593          	addi	a1,s4,-1832
    225e:	02098513          	addi	a0,s3,32
    2262:	286060ef          	jal	84e8 <_Z7printf_PKcz>
    2266:	000c8683          	lb	a3,0(s9)
    226a:	8662                	mv	a2,s8
    226c:	85a2                	mv	a1,s0
    226e:	630d8513          	addi	a0,s11,1584 # 10000630 <__rodata_start__+0xfff5538>
    2272:	276060ef          	jal	84e8 <_Z7printf_PKcz>
    2276:	05890513          	addi	a0,s2,88
    227a:	26e060ef          	jal	84e8 <_Z7printf_PKcz>
    227e:	4b01                	li	s6,0
    2280:	0405                	addi	s0,s0,1
    2282:	fba41ee3          	bne	s0,s10,223e <_Z25minimum_dwconv_single_8x8PaS_S_S_a+0x1d2>
    2286:	b78d                	j	21e8 <_Z25minimum_dwconv_single_8x8PaS_S_S_a+0x17c>
    2288:	10001537          	lui	a0,0x10001
    228c:	a2c50513          	addi	a0,a0,-1492 # 10000a2c <__rodata_start__+0xfff5934>
    2290:	bfa5                	j	2208 <_Z25minimum_dwconv_single_8x8PaS_S_S_a+0x19c>

00002292 <_Z17sau_benchmark_8x8PaS_S_S_>:
    2292:	7179                	addi	sp,sp,-48
    2294:	ca56                	sw	s5,20(sp)
    2296:	c85a                	sw	s6,16(sp)
    2298:	c65e                	sw	s7,12(sp)
    229a:	10001b37          	lui	s6,0x10001
    229e:	10001bb7          	lui	s7,0x10001
    22a2:	10000ab7          	lui	s5,0x10000
    22a6:	d422                	sw	s0,40(sp)
    22a8:	d226                	sw	s1,36(sp)
    22aa:	d04a                	sw	s2,32(sp)
    22ac:	ce4e                	sw	s3,28(sp)
    22ae:	842a                	mv	s0,a0
    22b0:	84ae                	mv	s1,a1
    22b2:	8932                	mv	s2,a2
    22b4:	89b6                	mv	s3,a3
    22b6:	a90b8613          	addi	a2,s7,-1392 # 10000a90 <__rodata_start__+0xfff5998>
    22ba:	27600693          	li	a3,630
    22be:	8d8b0593          	addi	a1,s6,-1832 # 100008d8 <__rodata_start__+0xfff57e0>
    22c2:	020a8513          	addi	a0,s5,32 # 10000020 <__rodata_start__+0xfff4f28>
    22c6:	d606                	sw	ra,44(sp)
    22c8:	cc52                	sw	s4,24(sp)
    22ca:	21e060ef          	jal	84e8 <_Z7printf_PKcz>
    22ce:	10001537          	lui	a0,0x10001
    22d2:	89450513          	addi	a0,a0,-1900 # 10000894 <__rodata_start__+0xfff579c>
    22d6:	212060ef          	jal	84e8 <_Z7printf_PKcz>
    22da:	10000a37          	lui	s4,0x10000
    22de:	058a0513          	addi	a0,s4,88 # 10000058 <__rodata_start__+0xfff4f60>
    22e2:	206060ef          	jal	84e8 <_Z7printf_PKcz>
    22e6:	864a                	mv	a2,s2
    22e8:	85a6                	mv	a1,s1
    22ea:	8522                	mv	a0,s0
    22ec:	ec8ff0ef          	jal	19b4 <_Z24minimum_matmul_multi_8x8PaS_S_>
    22f0:	864a                	mv	a2,s2
    22f2:	85a6                	mv	a1,s1
    22f4:	8522                	mv	a0,s0
    22f6:	3ac1                	jal	1cc6 <_Z25minimum_pwconv_single_8x8PaS_S_>
    22f8:	86ce                	mv	a3,s3
    22fa:	864a                	mv	a2,s2
    22fc:	85a6                	mv	a1,s1
    22fe:	8522                	mv	a0,s0
    2300:	4701                	li	a4,0
    2302:	36b9                	jal	1e50 <_Z23minimum_conv_single_8x8PaS_S_S_a>
    2304:	86ce                	mv	a3,s3
    2306:	864a                	mv	a2,s2
    2308:	85a6                	mv	a1,s1
    230a:	8522                	mv	a0,s0
    230c:	4705                	li	a4,1
    230e:	3689                	jal	1e50 <_Z23minimum_conv_single_8x8PaS_S_S_a>
    2310:	86ce                	mv	a3,s3
    2312:	864a                	mv	a2,s2
    2314:	85a6                	mv	a1,s1
    2316:	8522                	mv	a0,s0
    2318:	4701                	li	a4,0
    231a:	3b89                	jal	206c <_Z25minimum_dwconv_single_8x8PaS_S_S_a>
    231c:	4705                	li	a4,1
    231e:	86ce                	mv	a3,s3
    2320:	864a                	mv	a2,s2
    2322:	85a6                	mv	a1,s1
    2324:	8522                	mv	a0,s0
    2326:	3399                	jal	206c <_Z25minimum_dwconv_single_8x8PaS_S_S_a>
    2328:	a90b8613          	addi	a2,s7,-1392
    232c:	8d8b0593          	addi	a1,s6,-1832
    2330:	28200693          	li	a3,642
    2334:	020a8513          	addi	a0,s5,32
    2338:	1b0060ef          	jal	84e8 <_Z7printf_PKcz>
    233c:	10001537          	lui	a0,0x10001
    2340:	8ac50513          	addi	a0,a0,-1876 # 100008ac <__rodata_start__+0xfff57b4>
    2344:	1a4060ef          	jal	84e8 <_Z7printf_PKcz>
    2348:	5422                	lw	s0,40(sp)
    234a:	50b2                	lw	ra,44(sp)
    234c:	5492                	lw	s1,36(sp)
    234e:	5902                	lw	s2,32(sp)
    2350:	49f2                	lw	s3,28(sp)
    2352:	4ad2                	lw	s5,20(sp)
    2354:	4b42                	lw	s6,16(sp)
    2356:	4bb2                	lw	s7,12(sp)
    2358:	058a0513          	addi	a0,s4,88
    235c:	4a62                	lw	s4,24(sp)
    235e:	6145                	addi	sp,sp,48
    2360:	1880606f          	j	84e8 <_Z7printf_PKcz>

00002364 <_Z27matrix_csr_set_test_8x8_16bv>:
    2364:	1101                	addi	sp,sp,-32
    2366:	c84a                	sw	s2,16(sp)
    2368:	c64e                	sw	s3,12(sp)
    236a:	c452                	sw	s4,8(sp)
    236c:	100019b7          	lui	s3,0x10001
    2370:	10001a37          	lui	s4,0x10001
    2374:	10000937          	lui	s2,0x10000
    2378:	46a1                	li	a3,8
    237a:	aa4a0613          	addi	a2,s4,-1372 # 10000aa4 <__rodata_start__+0xfff59ac>
    237e:	ac098593          	addi	a1,s3,-1344 # 10000ac0 <__rodata_start__+0xfff59c8>
    2382:	02090513          	addi	a0,s2,32 # 10000020 <__rodata_start__+0xfff4f28>
    2386:	ce06                	sw	ra,28(sp)
    2388:	ca26                	sw	s1,20(sp)
    238a:	cc22                	sw	s0,24(sp)
    238c:	c256                	sw	s5,4(sp)
    238e:	15a060ef          	jal	84e8 <_Z7printf_PKcz>
    2392:	10000537          	lui	a0,0x10000
    2396:	56050513          	addi	a0,a0,1376 # 10000560 <__rodata_start__+0xfff5468>
    239a:	14e060ef          	jal	84e8 <_Z7printf_PKcz>
    239e:	100004b7          	lui	s1,0x10000
    23a2:	05848513          	addi	a0,s1,88 # 10000058 <__rodata_start__+0xfff4f60>
    23a6:	142060ef          	jal	84e8 <_Z7printf_PKcz>
    23aa:	10144737          	lui	a4,0x10144
    23ae:	40070793          	addi	a5,a4,1024 # 10144400 <linker_stack_start+0x114410>
    23b2:	00f7106b          	msetins1	zero,a4,a5
    23b6:	6791                	lui	a5,0x4
    23b8:	10145737          	lui	a4,0x10145
    23bc:	0785                	addi	a5,a5,1 # 4001 <_Z17vsetcsr_testcase1v+0xb5>
    23be:	80070713          	addi	a4,a4,-2048 # 10144800 <linker_stack_start+0x114810>
    23c2:	06e7906b          	msetins2	zero,a5,a4
    23c6:	4581                	li	a1,0
    23c8:	4a85                	li	s5,1
    23ca:	0d55906b          	msetins3	zero,a1,s5
    23ce:	0e00146b          	mgetins3lsb	s0,zero,zero
    23d2:	05540a63          	beq	s0,s5,2426 <_Z27matrix_csr_set_test_8x8_16bv+0xc2>
    23d6:	46e1                	li	a3,24
    23d8:	aa4a0613          	addi	a2,s4,-1372
    23dc:	ac098593          	addi	a1,s3,-1344
    23e0:	02090513          	addi	a0,s2,32
    23e4:	104060ef          	jal	84e8 <_Z7printf_PKcz>
    23e8:	10000537          	lui	a0,0x10000
    23ec:	85a2                	mv	a1,s0
    23ee:	58050513          	addi	a0,a0,1408 # 10000580 <__rodata_start__+0xfff5488>
    23f2:	0f6060ef          	jal	84e8 <_Z7printf_PKcz>
    23f6:	05848513          	addi	a0,s1,88
    23fa:	0ee060ef          	jal	84e8 <_Z7printf_PKcz>
    23fe:	46e5                	li	a3,25
    2400:	aa4a0613          	addi	a2,s4,-1372
    2404:	ac098593          	addi	a1,s3,-1344
    2408:	02090513          	addi	a0,s2,32
    240c:	0dc060ef          	jal	84e8 <_Z7printf_PKcz>
    2410:	10000537          	lui	a0,0x10000
    2414:	85d6                	mv	a1,s5
    2416:	58850513          	addi	a0,a0,1416 # 10000588 <__rodata_start__+0xfff5490>
    241a:	0ce060ef          	jal	84e8 <_Z7printf_PKcz>
    241e:	05848513          	addi	a0,s1,88
    2422:	0c6060ef          	jal	84e8 <_Z7printf_PKcz>
    2426:	aa4a0613          	addi	a2,s4,-1372
    242a:	ac098593          	addi	a1,s3,-1344
    242e:	46ed                	li	a3,27
    2430:	02090513          	addi	a0,s2,32
    2434:	0b4060ef          	jal	84e8 <_Z7printf_PKcz>
    2438:	10000537          	lui	a0,0x10000
    243c:	5a050513          	addi	a0,a0,1440 # 100005a0 <__rodata_start__+0xfff54a8>
    2440:	0a8060ef          	jal	84e8 <_Z7printf_PKcz>
    2444:	4462                	lw	s0,24(sp)
    2446:	40f2                	lw	ra,28(sp)
    2448:	4942                	lw	s2,16(sp)
    244a:	49b2                	lw	s3,12(sp)
    244c:	4a22                	lw	s4,8(sp)
    244e:	4a92                	lw	s5,4(sp)
    2450:	05848513          	addi	a0,s1,88
    2454:	44d2                	lw	s1,20(sp)
    2456:	6105                	addi	sp,sp,32
    2458:	0900606f          	j	84e8 <_Z7printf_PKcz>

0000245c <_Z28minimum_matmul_multi_8x8_16bPsPaS_>:
    245c:	7179                	addi	sp,sp,-48
    245e:	cc52                	sw	s4,24(sp)
    2460:	ca56                	sw	s5,20(sp)
    2462:	c85a                	sw	s6,16(sp)
    2464:	10001ab7          	lui	s5,0x10001
    2468:	10001b37          	lui	s6,0x10001
    246c:	10000a37          	lui	s4,0x10000
    2470:	46fd                	li	a3,31
    2472:	d422                	sw	s0,40(sp)
    2474:	d226                	sw	s1,36(sp)
    2476:	d04a                	sw	s2,32(sp)
    2478:	84aa                	mv	s1,a0
    247a:	892e                	mv	s2,a1
    247c:	8432                	mv	s0,a2
    247e:	ac0a8593          	addi	a1,s5,-1344 # 10000ac0 <__rodata_start__+0xfff59c8>
    2482:	b24b0613          	addi	a2,s6,-1244 # 10000b24 <__rodata_start__+0xfff5a2c>
    2486:	020a0513          	addi	a0,s4,32 # 10000020 <__rodata_start__+0xfff4f28>
    248a:	d606                	sw	ra,44(sp)
    248c:	ce4e                	sw	s3,28(sp)
    248e:	c65e                	sw	s7,12(sp)
    2490:	c462                	sw	s8,8(sp)
    2492:	c266                	sw	s9,4(sp)
    2494:	c06a                	sw	s10,0(sp)
    2496:	052060ef          	jal	84e8 <_Z7printf_PKcz>
    249a:	10001537          	lui	a0,0x10001
    249e:	b4450513          	addi	a0,a0,-1212 # 10000b44 <__rodata_start__+0xfff5a4c>
    24a2:	046060ef          	jal	84e8 <_Z7printf_PKcz>
    24a6:	100009b7          	lui	s3,0x10000
    24aa:	05898513          	addi	a0,s3,88 # 10000058 <__rodata_start__+0xfff4f60>
    24ae:	03a060ef          	jal	84e8 <_Z7printf_PKcz>
    24b2:	4701                	li	a4,0
    24b4:	100046b7          	lui	a3,0x10004
    24b8:	10000613          	li	a2,256
    24bc:	0ac68793          	addi	a5,a3,172 # 100040ac <_ZZ28minimum_matmul_multi_8x8_16bPsPaS_E4A_sa>
    24c0:	97ba                	add	a5,a5,a4
    24c2:	00079583          	lh	a1,0(a5)
    24c6:	00e487b3          	add	a5,s1,a4
    24ca:	0709                	addi	a4,a4,2
    24cc:	00b79023          	sh	a1,0(a5)
    24d0:	0ac68793          	addi	a5,a3,172
    24d4:	fec714e3          	bne	a4,a2,24bc <_Z28minimum_matmul_multi_8x8_16bPsPaS_+0x60>
    24d8:	4701                	li	a4,0
    24da:	10078513          	addi	a0,a5,256
    24de:	08000693          	li	a3,128
    24e2:	00e50633          	add	a2,a0,a4
    24e6:	00060583          	lb	a1,0(a2) # 6300000 <__rodata_start__+0x62f4f08>
    24ea:	00e90633          	add	a2,s2,a4
    24ee:	0705                	addi	a4,a4,1
    24f0:	00b60023          	sb	a1,0(a2)
    24f4:	fed717e3          	bne	a4,a3,24e2 <_Z28minimum_matmul_multi_8x8_16bPsPaS_+0x86>
    24f8:	8ba2                	mv	s7,s0
    24fa:	08040693          	addi	a3,s0,128
    24fe:	8722                	mv	a4,s0
    2500:	00071023          	sh	zero,0(a4)
    2504:	0709                	addi	a4,a4,2
    2506:	fed71de3          	bne	a4,a3,2500 <_Z28minimum_matmul_multi_8x8_16bPsPaS_+0xa4>
    250a:	00100737          	lui	a4,0x100
    250e:	177d                	addi	a4,a4,-1 # fffff <__rodata_start__+0xf4f07>
    2510:	8cf9                	and	s1,s1,a4
    2512:	004006b7          	lui	a3,0x400
    2516:	8cd5                	or	s1,s1,a3
    2518:	00e97933          	and	s2,s2,a4
    251c:	101006b7          	lui	a3,0x10100
    2520:	00d96933          	or	s2,s2,a3
    2524:	0124906b          	msetins1	zero,s1,s2
    2528:	8c79                	and	s0,s0,a4
    252a:	02200737          	lui	a4,0x2200
    252e:	8c59                	or	s0,s0,a4
    2530:	00164737          	lui	a4,0x164
    2534:	0709                	addi	a4,a4,2 # 164002 <__rodata_start__+0x158f0a>
    2536:	0687106b          	msetins2	zero,a4,s0
    253a:	4485                	li	s1,1
    253c:	4701                	li	a4,0
    253e:	0c97106b          	msetins3	zero,a4,s1
    2542:	18078413          	addi	s0,a5,384
    2546:	4901                	li	s2,0
    2548:	10000d37          	lui	s10,0x10000
    254c:	04000c93          	li	s9,64
    2550:	00041c03          	lh	s8,0(s0)
    2554:	000b9783          	lh	a5,0(s7)
    2558:	03878963          	beq	a5,s8,258a <_Z28minimum_matmul_multi_8x8_16bPsPaS_+0x12e>
    255c:	06100693          	li	a3,97
    2560:	b24b0613          	addi	a2,s6,-1244
    2564:	ac0a8593          	addi	a1,s5,-1344
    2568:	020a0513          	addi	a0,s4,32
    256c:	77d050ef          	jal	84e8 <_Z7printf_PKcz>
    2570:	000b9683          	lh	a3,0(s7)
    2574:	8662                	mv	a2,s8
    2576:	85ca                	mv	a1,s2
    2578:	630d0513          	addi	a0,s10,1584 # 10000630 <__rodata_start__+0xfff5538>
    257c:	76d050ef          	jal	84e8 <_Z7printf_PKcz>
    2580:	05898513          	addi	a0,s3,88
    2584:	765050ef          	jal	84e8 <_Z7printf_PKcz>
    2588:	4481                	li	s1,0
    258a:	0905                	addi	s2,s2,1
    258c:	0b89                	addi	s7,s7,2
    258e:	0409                	addi	s0,s0,2
    2590:	fd9910e3          	bne	s2,s9,2550 <_Z28minimum_matmul_multi_8x8_16bPsPaS_+0xf4>
    2594:	06200693          	li	a3,98
    2598:	b24b0613          	addi	a2,s6,-1244
    259c:	ac0a8593          	addi	a1,s5,-1344
    25a0:	020a0513          	addi	a0,s4,32
    25a4:	745050ef          	jal	84e8 <_Z7printf_PKcz>
    25a8:	c885                	beqz	s1,25d8 <_Z28minimum_matmul_multi_8x8_16bPsPaS_+0x17c>
    25aa:	10001537          	lui	a0,0x10001
    25ae:	adc50513          	addi	a0,a0,-1316 # 10000adc <__rodata_start__+0xfff59e4>
    25b2:	737050ef          	jal	84e8 <_Z7printf_PKcz>
    25b6:	5422                	lw	s0,40(sp)
    25b8:	50b2                	lw	ra,44(sp)
    25ba:	5492                	lw	s1,36(sp)
    25bc:	5902                	lw	s2,32(sp)
    25be:	4a62                	lw	s4,24(sp)
    25c0:	4ad2                	lw	s5,20(sp)
    25c2:	4b42                	lw	s6,16(sp)
    25c4:	4bb2                	lw	s7,12(sp)
    25c6:	4c22                	lw	s8,8(sp)
    25c8:	4c92                	lw	s9,4(sp)
    25ca:	4d02                	lw	s10,0(sp)
    25cc:	05898513          	addi	a0,s3,88
    25d0:	49f2                	lw	s3,28(sp)
    25d2:	6145                	addi	sp,sp,48
    25d4:	7150506f          	j	84e8 <_Z7printf_PKcz>
    25d8:	10001537          	lui	a0,0x10001
    25dc:	b0050513          	addi	a0,a0,-1280 # 10000b00 <__rodata_start__+0xfff5a08>
    25e0:	bfc9                	j	25b2 <_Z28minimum_matmul_multi_8x8_16bPsPaS_+0x156>

000025e2 <_Z29minimum_matmul_single_8x8_16bPaS_S_>:
    25e2:	7111                	addi	sp,sp,-256
    25e4:	dba6                	sw	s1,244(sp)
    25e6:	d9ca                	sw	s2,240(sp)
    25e8:	d7ce                	sw	s3,236(sp)
    25ea:	100014b7          	lui	s1,0x10001
    25ee:	10001937          	lui	s2,0x10001
    25f2:	100009b7          	lui	s3,0x10000
    25f6:	06800693          	li	a3,104
    25fa:	dda2                	sw	s0,248(sp)
    25fc:	d3d6                	sw	s5,228(sp)
    25fe:	d1da                	sw	s6,224(sp)
    2600:	842a                	mv	s0,a0
    2602:	8aae                	mv	s5,a1
    2604:	8b32                	mv	s6,a2
    2606:	ac090593          	addi	a1,s2,-1344 # 10000ac0 <__rodata_start__+0xfff59c8>
    260a:	b7048613          	addi	a2,s1,-1168 # 10000b70 <__rodata_start__+0xfff5a78>
    260e:	02098513          	addi	a0,s3,32 # 10000020 <__rodata_start__+0xfff4f28>
    2612:	df86                	sw	ra,252(sp)
    2614:	d5d2                	sw	s4,232(sp)
    2616:	cfde                	sw	s7,220(sp)
    2618:	cde2                	sw	s8,216(sp)
    261a:	6cf050ef          	jal	84e8 <_Z7printf_PKcz>
    261e:	10001537          	lui	a0,0x10001
    2622:	b4450513          	addi	a0,a0,-1212 # 10000b44 <__rodata_start__+0xfff5a4c>
    2626:	6c3050ef          	jal	84e8 <_Z7printf_PKcz>
    262a:	10000a37          	lui	s4,0x10000
    262e:	058a0513          	addi	a0,s4,88 # 10000058 <__rodata_start__+0xfff4f60>
    2632:	6b7050ef          	jal	84e8 <_Z7printf_PKcz>
    2636:	4781                	li	a5,0
    2638:	080c                	addi	a1,sp,16
    263a:	0890                	addi	a2,sp,80
    263c:	07f00513          	li	a0,127
    2640:	04000813          	li	a6,64
    2644:	00878693          	addi	a3,a5,8
    2648:	0ff7f713          	zext.b	a4,a5
    264c:	00f588b3          	add	a7,a1,a5
    2650:	f8070313          	addi	t1,a4,-128
    2654:	00688023          	sb	t1,0(a7)
    2658:	40e50733          	sub	a4,a0,a4
    265c:	00f608b3          	add	a7,a2,a5
    2660:	00e88023          	sb	a4,0(a7)
    2664:	0785                	addi	a5,a5,1
    2666:	fed791e3          	bne	a5,a3,2648 <_Z29minimum_matmul_single_8x8_16bPaS_S_+0x66>
    266a:	fd079de3          	bne	a5,a6,2644 <_Z29minimum_matmul_single_8x8_16bPaS_S_+0x62>
    266e:	4781                	li	a5,0
    2670:	4ea1                	li	t4,8
    2672:	09010b93          	addi	s7,sp,144
    2676:	04000f13          	li	t5,64
    267a:	4701                	li	a4,0
    267c:	00f58e33          	add	t3,a1,a5
    2680:	00fb8333          	add	t1,s7,a5
    2684:	a02d                	j	26ae <_Z29minimum_matmul_single_8x8_16bPaS_S_+0xcc>
    2686:	00de08b3          	add	a7,t3,a3
    268a:	00080f83          	lb	t6,0(a6)
    268e:	00088883          	lb	a7,0(a7)
    2692:	0685                	addi	a3,a3,1 # 10100001 <linker_stack_start+0xd0011>
    2694:	0821                	addi	a6,a6,8
    2696:	03f888b3          	mul	a7,a7,t6
    269a:	9546                	add	a0,a0,a7
    269c:	ffd695e3          	bne	a3,t4,2686 <_Z29minimum_matmul_single_8x8_16bPaS_S_+0xa4>
    26a0:	00e30833          	add	a6,t1,a4
    26a4:	00a80023          	sb	a0,0(a6)
    26a8:	0705                	addi	a4,a4,1
    26aa:	00d70763          	beq	a4,a3,26b8 <_Z29minimum_matmul_single_8x8_16bPaS_S_+0xd6>
    26ae:	00e60833          	add	a6,a2,a4
    26b2:	4681                	li	a3,0
    26b4:	4501                	li	a0,0
    26b6:	bfc1                	j	2686 <_Z29minimum_matmul_single_8x8_16bPaS_S_+0xa4>
    26b8:	07a1                	addi	a5,a5,8
    26ba:	fde790e3          	bne	a5,t5,267a <_Z29minimum_matmul_single_8x8_16bPaS_S_+0x98>
    26be:	4781                	li	a5,0
    26c0:	04000713          	li	a4,64
    26c4:	00f58533          	add	a0,a1,a5
    26c8:	00054503          	lbu	a0,0(a0)
    26cc:	00f406b3          	add	a3,s0,a5
    26d0:	00a68023          	sb	a0,0(a3)
    26d4:	00f60533          	add	a0,a2,a5
    26d8:	00054503          	lbu	a0,0(a0)
    26dc:	00fa86b3          	add	a3,s5,a5
    26e0:	00a68023          	sb	a0,0(a3)
    26e4:	00fb06b3          	add	a3,s6,a5
    26e8:	00068023          	sb	zero,0(a3)
    26ec:	0785                	addi	a5,a5,1
    26ee:	fce79be3          	bne	a5,a4,26c4 <_Z29minimum_matmul_single_8x8_16bPaS_S_+0xe2>
    26f2:	001007b7          	lui	a5,0x100
    26f6:	8c5d                	or	s0,s0,a5
    26f8:	00faeab3          	or	s5,s5,a5
    26fc:	0154106b          	msetins1	zero,s0,s5
    2700:	6711                	lui	a4,0x4
    2702:	00fb67b3          	or	a5,s6,a5
    2706:	0705                	addi	a4,a4,1 # 4001 <_Z17vsetcsr_testcase1v+0xb5>
    2708:	06f7106b          	msetins2	zero,a4,a5
    270c:	4781                	li	a5,0
    270e:	4705                	li	a4,1
    2710:	0ce7906b          	msetins3	zero,a5,a4
    2714:	4401                	li	s0,0
    2716:	10000c37          	lui	s8,0x10000
    271a:	008b07b3          	add	a5,s6,s0
    271e:	00078a83          	lb	s5,0(a5) # 100000 <__rodata_start__+0xf4f08>
    2722:	008b87b3          	add	a5,s7,s0
    2726:	00078703          	lb	a4,0(a5)
    272a:	02ea8963          	beq	s5,a4,275c <_Z29minimum_matmul_single_8x8_16bPaS_S_+0x17a>
    272e:	0b800693          	li	a3,184
    2732:	b7048613          	addi	a2,s1,-1168
    2736:	ac090593          	addi	a1,s2,-1344
    273a:	02098513          	addi	a0,s3,32
    273e:	c63a                	sw	a4,12(sp)
    2740:	5a9050ef          	jal	84e8 <_Z7printf_PKcz>
    2744:	4732                	lw	a4,12(sp)
    2746:	86d6                	mv	a3,s5
    2748:	8622                	mv	a2,s0
    274a:	4581                	li	a1,0
    274c:	6c4c0513          	addi	a0,s8,1732 # 100006c4 <__rodata_start__+0xfff55cc>
    2750:	599050ef          	jal	84e8 <_Z7printf_PKcz>
    2754:	058a0513          	addi	a0,s4,88
    2758:	591050ef          	jal	84e8 <_Z7printf_PKcz>
    275c:	0405                	addi	s0,s0,1
    275e:	bf75                	j	271a <_Z29minimum_matmul_single_8x8_16bPaS_S_+0x138>

00002760 <_Z29minimum_pwconv_single_8x8_16bPsPaS_>:
    2760:	7179                	addi	sp,sp,-48
    2762:	cc52                	sw	s4,24(sp)
    2764:	ca56                	sw	s5,20(sp)
    2766:	c85a                	sw	s6,16(sp)
    2768:	10001ab7          	lui	s5,0x10001
    276c:	10001b37          	lui	s6,0x10001
    2770:	10000a37          	lui	s4,0x10000
    2774:	0c400693          	li	a3,196
    2778:	d422                	sw	s0,40(sp)
    277a:	d226                	sw	s1,36(sp)
    277c:	d04a                	sw	s2,32(sp)
    277e:	84aa                	mv	s1,a0
    2780:	892e                	mv	s2,a1
    2782:	8432                	mv	s0,a2
    2784:	ac0a8593          	addi	a1,s5,-1344 # 10000ac0 <__rodata_start__+0xfff59c8>
    2788:	bd8b0613          	addi	a2,s6,-1064 # 10000bd8 <__rodata_start__+0xfff5ae0>
    278c:	020a0513          	addi	a0,s4,32 # 10000020 <__rodata_start__+0xfff4f28>
    2790:	d606                	sw	ra,44(sp)
    2792:	ce4e                	sw	s3,28(sp)
    2794:	c65e                	sw	s7,12(sp)
    2796:	c462                	sw	s8,8(sp)
    2798:	c266                	sw	s9,4(sp)
    279a:	c06a                	sw	s10,0(sp)
    279c:	54d050ef          	jal	84e8 <_Z7printf_PKcz>
    27a0:	10001537          	lui	a0,0x10001
    27a4:	bf850513          	addi	a0,a0,-1032 # 10000bf8 <__rodata_start__+0xfff5b00>
    27a8:	541050ef          	jal	84e8 <_Z7printf_PKcz>
    27ac:	100009b7          	lui	s3,0x10000
    27b0:	05898513          	addi	a0,s3,88 # 10000058 <__rodata_start__+0xfff4f60>
    27b4:	535050ef          	jal	84e8 <_Z7printf_PKcz>
    27b8:	10004737          	lui	a4,0x10004
    27bc:	0ac70693          	addi	a3,a4,172 # 100040ac <_ZZ28minimum_matmul_multi_8x8_16bPsPaS_E4A_sa>
    27c0:	20068693          	addi	a3,a3,512
    27c4:	4781                	li	a5,0
    27c6:	0ac70713          	addi	a4,a4,172
    27ca:	10004837          	lui	a6,0x10004
    27ce:	08000593          	li	a1,128
    27d2:	00069503          	lh	a0,0(a3)
    27d6:	00179613          	slli	a2,a5,0x1
    27da:	9626                	add	a2,a2,s1
    27dc:	00a61023          	sh	a0,0(a2)
    27e0:	1ac80613          	addi	a2,a6,428 # 100041ac <_ZZ28minimum_matmul_multi_8x8_16bPsPaS_E4B_sa>
    27e4:	963e                	add	a2,a2,a5
    27e6:	00060503          	lb	a0,0(a2)
    27ea:	00f90633          	add	a2,s2,a5
    27ee:	0785                	addi	a5,a5,1
    27f0:	00a60023          	sb	a0,0(a2)
    27f4:	0689                	addi	a3,a3,2
    27f6:	fcb79ee3          	bne	a5,a1,27d2 <_Z29minimum_pwconv_single_8x8_16bPsPaS_+0x72>
    27fa:	8ba2                	mv	s7,s0
    27fc:	08040693          	addi	a3,s0,128
    2800:	87a2                	mv	a5,s0
    2802:	00079023          	sh	zero,0(a5)
    2806:	0789                	addi	a5,a5,2
    2808:	fed79de3          	bne	a5,a3,2802 <_Z29minimum_pwconv_single_8x8_16bPsPaS_+0xa2>
    280c:	001007b7          	lui	a5,0x100
    2810:	17fd                	addi	a5,a5,-1 # fffff <__rodata_start__+0xf4f07>
    2812:	8cfd                	and	s1,s1,a5
    2814:	102006b7          	lui	a3,0x10200
    2818:	8cd5                	or	s1,s1,a3
    281a:	00f97933          	and	s2,s2,a5
    281e:	101006b7          	lui	a3,0x10100
    2822:	00d96933          	or	s2,s2,a3
    2826:	0124906b          	msetins1	zero,s1,s2
    282a:	8c7d                	and	s0,s0,a5
    282c:	022007b7          	lui	a5,0x2200
    2830:	8c5d                	or	s0,s0,a5
    2832:	001617b7          	lui	a5,0x161
    2836:	10278793          	addi	a5,a5,258 # 161102 <__rodata_start__+0x15600a>
    283a:	0687906b          	msetins2	zero,a5,s0
    283e:	4405                	li	s0,1
    2840:	4781                	li	a5,0
    2842:	0c87906b          	msetins3	zero,a5,s0
    2846:	30070493          	addi	s1,a4,768
    284a:	4901                	li	s2,0
    284c:	10000d37          	lui	s10,0x10000
    2850:	04000c93          	li	s9,64
    2854:	00049c03          	lh	s8,0(s1)
    2858:	000b9783          	lh	a5,0(s7)
    285c:	03878963          	beq	a5,s8,288e <_Z29minimum_pwconv_single_8x8_16bPsPaS_+0x12e>
    2860:	12c00693          	li	a3,300
    2864:	bd8b0613          	addi	a2,s6,-1064
    2868:	ac0a8593          	addi	a1,s5,-1344
    286c:	020a0513          	addi	a0,s4,32
    2870:	479050ef          	jal	84e8 <_Z7printf_PKcz>
    2874:	000b9683          	lh	a3,0(s7)
    2878:	8662                	mv	a2,s8
    287a:	85ca                	mv	a1,s2
    287c:	630d0513          	addi	a0,s10,1584 # 10000630 <__rodata_start__+0xfff5538>
    2880:	469050ef          	jal	84e8 <_Z7printf_PKcz>
    2884:	05898513          	addi	a0,s3,88
    2888:	461050ef          	jal	84e8 <_Z7printf_PKcz>
    288c:	4401                	li	s0,0
    288e:	0905                	addi	s2,s2,1
    2890:	0b89                	addi	s7,s7,2
    2892:	0489                	addi	s1,s1,2
    2894:	fd9910e3          	bne	s2,s9,2854 <_Z29minimum_pwconv_single_8x8_16bPsPaS_+0xf4>
    2898:	12d00693          	li	a3,301
    289c:	bd8b0613          	addi	a2,s6,-1064
    28a0:	ac0a8593          	addi	a1,s5,-1344
    28a4:	020a0513          	addi	a0,s4,32
    28a8:	441050ef          	jal	84e8 <_Z7printf_PKcz>
    28ac:	c805                	beqz	s0,28dc <_Z29minimum_pwconv_single_8x8_16bPsPaS_+0x17c>
    28ae:	10001537          	lui	a0,0x10001
    28b2:	b9050513          	addi	a0,a0,-1136 # 10000b90 <__rodata_start__+0xfff5a98>
    28b6:	433050ef          	jal	84e8 <_Z7printf_PKcz>
    28ba:	5422                	lw	s0,40(sp)
    28bc:	50b2                	lw	ra,44(sp)
    28be:	5492                	lw	s1,36(sp)
    28c0:	5902                	lw	s2,32(sp)
    28c2:	4a62                	lw	s4,24(sp)
    28c4:	4ad2                	lw	s5,20(sp)
    28c6:	4b42                	lw	s6,16(sp)
    28c8:	4bb2                	lw	s7,12(sp)
    28ca:	4c22                	lw	s8,8(sp)
    28cc:	4c92                	lw	s9,4(sp)
    28ce:	4d02                	lw	s10,0(sp)
    28d0:	05898513          	addi	a0,s3,88
    28d4:	49f2                	lw	s3,28(sp)
    28d6:	6145                	addi	sp,sp,48
    28d8:	4110506f          	j	84e8 <_Z7printf_PKcz>
    28dc:	10001537          	lui	a0,0x10001
    28e0:	bb450513          	addi	a0,a0,-1100 # 10000bb4 <__rodata_start__+0xfff5abc>
    28e4:	bfc9                	j	28b6 <_Z29minimum_pwconv_single_8x8_16bPsPaS_+0x156>

000028e6 <_Z27minimum_conv_single_8x8_16bPsPaS_S_a>:
    28e6:	7179                	addi	sp,sp,-48
    28e8:	cc52                	sw	s4,24(sp)
    28ea:	ca56                	sw	s5,20(sp)
    28ec:	c85a                	sw	s6,16(sp)
    28ee:	10001ab7          	lui	s5,0x10001
    28f2:	10001b37          	lui	s6,0x10001
    28f6:	10000a37          	lui	s4,0x10000
    28fa:	d422                	sw	s0,40(sp)
    28fc:	d04a                	sw	s2,32(sp)
    28fe:	c65e                	sw	s7,12(sp)
    2900:	c462                	sw	s8,8(sp)
    2902:	8baa                	mv	s7,a0
    2904:	8c2e                	mv	s8,a1
    2906:	8432                	mv	s0,a2
    2908:	ac0a8593          	addi	a1,s5,-1344 # 10000ac0 <__rodata_start__+0xfff59c8>
    290c:	c6cb0613          	addi	a2,s6,-916 # 10000c6c <__rodata_start__+0xfff5b74>
    2910:	8936                	mv	s2,a3
    2912:	020a0513          	addi	a0,s4,32 # 10000020 <__rodata_start__+0xfff4f28>
    2916:	13100693          	li	a3,305
    291a:	d606                	sw	ra,44(sp)
    291c:	d226                	sw	s1,36(sp)
    291e:	ce4e                	sw	s3,28(sp)
    2920:	84ba                	mv	s1,a4
    2922:	c266                	sw	s9,4(sp)
    2924:	c06a                	sw	s10,0(sp)
    2926:	3c3050ef          	jal	84e8 <_Z7printf_PKcz>
    292a:	10001537          	lui	a0,0x10001
    292e:	c8850513          	addi	a0,a0,-888 # 10000c88 <__rodata_start__+0xfff5b90>
    2932:	3b7050ef          	jal	84e8 <_Z7printf_PKcz>
    2936:	100009b7          	lui	s3,0x10000
    293a:	05898513          	addi	a0,s3,88 # 10000058 <__rodata_start__+0xfff4f60>
    293e:	3ab050ef          	jal	84e8 <_Z7printf_PKcz>
    2942:	100047b7          	lui	a5,0x10004
    2946:	0ac78793          	addi	a5,a5,172 # 100040ac <_ZZ28minimum_matmul_multi_8x8_16bPsPaS_E4A_sa>
    294a:	4681                	li	a3,0
    294c:	38078513          	addi	a0,a5,896
    2950:	1b000713          	li	a4,432
    2954:	00d50633          	add	a2,a0,a3
    2958:	00061583          	lh	a1,0(a2)
    295c:	00db8633          	add	a2,s7,a3
    2960:	0689                	addi	a3,a3,2 # 10100002 <linker_stack_start+0xd0012>
    2962:	00b61023          	sh	a1,0(a2)
    2966:	fee697e3          	bne	a3,a4,2954 <_Z27minimum_conv_single_8x8_16bPsPaS_S_a+0x6e>
    296a:	4681                	li	a3,0
    296c:	53078513          	addi	a0,a5,1328
    2970:	12000613          	li	a2,288
    2974:	00d50733          	add	a4,a0,a3
    2978:	00070583          	lb	a1,0(a4)
    297c:	00dc0733          	add	a4,s8,a3
    2980:	00b70023          	sb	a1,0(a4)
    2984:	00169713          	slli	a4,a3,0x1
    2988:	9722                	add	a4,a4,s0
    298a:	00071023          	sh	zero,0(a4)
    298e:	0685                	addi	a3,a3,1
    2990:	fec692e3          	bne	a3,a2,2974 <_Z27minimum_conv_single_8x8_16bPsPaS_S_a+0x8e>
    2994:	4681                	li	a3,0
    2996:	65078513          	addi	a0,a5,1616
    299a:	4741                	li	a4,16
    299c:	00d50633          	add	a2,a0,a3
    29a0:	00061583          	lh	a1,0(a2)
    29a4:	00d90633          	add	a2,s2,a3
    29a8:	0689                	addi	a3,a3,2
    29aa:	00b61023          	sh	a1,0(a2)
    29ae:	fee697e3          	bne	a3,a4,299c <_Z27minimum_conv_single_8x8_16bPsPaS_S_a+0xb6>
    29b2:	00100737          	lui	a4,0x100
    29b6:	177d                	addi	a4,a4,-1 # fffff <__rodata_start__+0xf4f07>
    29b8:	00ebfbb3          	and	s7,s7,a4
    29bc:	0c6006b7          	lui	a3,0xc600
    29c0:	00dbebb3          	or	s7,s7,a3
    29c4:	00ec7c33          	and	s8,s8,a4
    29c8:	122006b7          	lui	a3,0x12200
    29cc:	00dc6c33          	or	s8,s8,a3
    29d0:	018b906b          	msetins1	zero,s7,s8
    29d4:	00163637          	lui	a2,0x163
    29d8:	01049693          	slli	a3,s1,0x10
    29dc:	18260613          	addi	a2,a2,386 # 163182 <__rodata_start__+0x15808a>
    29e0:	8ed1                	or	a3,a3,a2
    29e2:	8f61                	and	a4,a4,s0
    29e4:	02200637          	lui	a2,0x2200
    29e8:	8f51                	or	a4,a4,a2
    29ea:	06e6906b          	msetins2	zero,a3,a4
    29ee:	10000737          	lui	a4,0x10000
    29f2:	0922                	slli	s2,s2,0x8
    29f4:	f0070713          	addi	a4,a4,-256 # fffff00 <__rodata_start__+0xfff4e08>
    29f8:	00e97733          	and	a4,s2,a4
    29fc:	4905                	li	s2,1
    29fe:	0d27106b          	msetins3	zero,a4,s2
    2a02:	ecc1                	bnez	s1,2a9a <_Z27minimum_conv_single_8x8_16bPsPaS_S_a+0x1b4>
    2a04:	66078b93          	addi	s7,a5,1632
    2a08:	10000d37          	lui	s10,0x10000
    2a0c:	04000c93          	li	s9,64
    2a10:	000b9c03          	lh	s8,0(s7)
    2a14:	00041783          	lh	a5,0(s0)
    2a18:	03878963          	beq	a5,s8,2a4a <_Z27minimum_conv_single_8x8_16bPsPaS_S_a+0x164>
    2a1c:	1be00693          	li	a3,446
    2a20:	c6cb0613          	addi	a2,s6,-916
    2a24:	ac0a8593          	addi	a1,s5,-1344
    2a28:	020a0513          	addi	a0,s4,32
    2a2c:	2bd050ef          	jal	84e8 <_Z7printf_PKcz>
    2a30:	00041683          	lh	a3,0(s0)
    2a34:	8662                	mv	a2,s8
    2a36:	85a6                	mv	a1,s1
    2a38:	630d0513          	addi	a0,s10,1584 # 10000630 <__rodata_start__+0xfff5538>
    2a3c:	2ad050ef          	jal	84e8 <_Z7printf_PKcz>
    2a40:	05898513          	addi	a0,s3,88
    2a44:	2a5050ef          	jal	84e8 <_Z7printf_PKcz>
    2a48:	4901                	li	s2,0
    2a4a:	0485                	addi	s1,s1,1
    2a4c:	0409                	addi	s0,s0,2
    2a4e:	0b89                	addi	s7,s7,2
    2a50:	fd9490e3          	bne	s1,s9,2a10 <_Z27minimum_conv_single_8x8_16bPsPaS_S_a+0x12a>
    2a54:	1c200693          	li	a3,450
    2a58:	c6cb0613          	addi	a2,s6,-916
    2a5c:	ac0a8593          	addi	a1,s5,-1344
    2a60:	020a0513          	addi	a0,s4,32
    2a64:	285050ef          	jal	84e8 <_Z7printf_PKcz>
    2a68:	08090363          	beqz	s2,2aee <_Z27minimum_conv_single_8x8_16bPsPaS_S_a+0x208>
    2a6c:	10001537          	lui	a0,0x10001
    2a70:	c2450513          	addi	a0,a0,-988 # 10000c24 <__rodata_start__+0xfff5b2c>
    2a74:	275050ef          	jal	84e8 <_Z7printf_PKcz>
    2a78:	5422                	lw	s0,40(sp)
    2a7a:	50b2                	lw	ra,44(sp)
    2a7c:	5492                	lw	s1,36(sp)
    2a7e:	5902                	lw	s2,32(sp)
    2a80:	4a62                	lw	s4,24(sp)
    2a82:	4ad2                	lw	s5,20(sp)
    2a84:	4b42                	lw	s6,16(sp)
    2a86:	4bb2                	lw	s7,12(sp)
    2a88:	4c22                	lw	s8,8(sp)
    2a8a:	4c92                	lw	s9,4(sp)
    2a8c:	4d02                	lw	s10,0(sp)
    2a8e:	05898513          	addi	a0,s3,88
    2a92:	49f2                	lw	s3,28(sp)
    2a94:	6145                	addi	sp,sp,48
    2a96:	2530506f          	j	84e8 <_Z7printf_PKcz>
    2a9a:	6e078493          	addi	s1,a5,1760
    2a9e:	4b81                	li	s7,0
    2aa0:	10000d37          	lui	s10,0x10000
    2aa4:	04000c93          	li	s9,64
    2aa8:	00049c03          	lh	s8,0(s1)
    2aac:	00041783          	lh	a5,0(s0)
    2ab0:	03878963          	beq	a5,s8,2ae2 <_Z27minimum_conv_single_8x8_16bPsPaS_S_a+0x1fc>
    2ab4:	1c000693          	li	a3,448
    2ab8:	c6cb0613          	addi	a2,s6,-916
    2abc:	ac0a8593          	addi	a1,s5,-1344
    2ac0:	020a0513          	addi	a0,s4,32
    2ac4:	225050ef          	jal	84e8 <_Z7printf_PKcz>
    2ac8:	00041683          	lh	a3,0(s0)
    2acc:	8662                	mv	a2,s8
    2ace:	85de                	mv	a1,s7
    2ad0:	630d0513          	addi	a0,s10,1584 # 10000630 <__rodata_start__+0xfff5538>
    2ad4:	215050ef          	jal	84e8 <_Z7printf_PKcz>
    2ad8:	05898513          	addi	a0,s3,88
    2adc:	20d050ef          	jal	84e8 <_Z7printf_PKcz>
    2ae0:	4901                	li	s2,0
    2ae2:	0b85                	addi	s7,s7,1
    2ae4:	0409                	addi	s0,s0,2
    2ae6:	0489                	addi	s1,s1,2
    2ae8:	fd9b90e3          	bne	s7,s9,2aa8 <_Z27minimum_conv_single_8x8_16bPsPaS_S_a+0x1c2>
    2aec:	b7a5                	j	2a54 <_Z27minimum_conv_single_8x8_16bPsPaS_S_a+0x16e>
    2aee:	10001537          	lui	a0,0x10001
    2af2:	c4850513          	addi	a0,a0,-952 # 10000c48 <__rodata_start__+0xfff5b50>
    2af6:	bfbd                	j	2a74 <_Z27minimum_conv_single_8x8_16bPsPaS_S_a+0x18e>

00002af8 <_Z29minimum_dwconv_single_8x8_16bPsPaS_S_a>:
    2af8:	7179                	addi	sp,sp,-48
    2afa:	ce4e                	sw	s3,28(sp)
    2afc:	cc52                	sw	s4,24(sp)
    2afe:	ca56                	sw	s5,20(sp)
    2b00:	10001a37          	lui	s4,0x10001
    2b04:	10001ab7          	lui	s5,0x10001
    2b08:	100009b7          	lui	s3,0x10000
    2b0c:	d422                	sw	s0,40(sp)
    2b0e:	d226                	sw	s1,36(sp)
    2b10:	c462                	sw	s8,8(sp)
    2b12:	c266                	sw	s9,4(sp)
    2b14:	84aa                	mv	s1,a0
    2b16:	8cae                	mv	s9,a1
    2b18:	8432                	mv	s0,a2
    2b1a:	ac0a0593          	addi	a1,s4,-1344 # 10000ac0 <__rodata_start__+0xfff59c8>
    2b1e:	cf8a8613          	addi	a2,s5,-776 # 10000cf8 <__rodata_start__+0xfff5c00>
    2b22:	8c36                	mv	s8,a3
    2b24:	02098513          	addi	a0,s3,32 # 10000020 <__rodata_start__+0xfff4f28>
    2b28:	1c700693          	li	a3,455
    2b2c:	d606                	sw	ra,44(sp)
    2b2e:	d04a                	sw	s2,32(sp)
    2b30:	c65e                	sw	s7,12(sp)
    2b32:	c85a                	sw	s6,16(sp)
    2b34:	8bba                	mv	s7,a4
    2b36:	c06a                	sw	s10,0(sp)
    2b38:	1b1050ef          	jal	84e8 <_Z7printf_PKcz>
    2b3c:	10001537          	lui	a0,0x10001
    2b40:	d1850513          	addi	a0,a0,-744 # 10000d18 <__rodata_start__+0xfff5c20>
    2b44:	1a5050ef          	jal	84e8 <_Z7printf_PKcz>
    2b48:	10000937          	lui	s2,0x10000
    2b4c:	05890513          	addi	a0,s2,88 # 10000058 <__rodata_start__+0xfff4f60>
    2b50:	199050ef          	jal	84e8 <_Z7printf_PKcz>
    2b54:	10005737          	lui	a4,0x10005
    2b58:	4781                	li	a5,0
    2b5a:	80c70713          	addi	a4,a4,-2036 # 1000480c <_ZZ29minimum_dwconv_single_8x8_16bPsPaS_S_aE6Active>
    2b5e:	36000693          	li	a3,864
    2b62:	00f70633          	add	a2,a4,a5
    2b66:	00061583          	lh	a1,0(a2) # 2200000 <__rodata_start__+0x21f4f08>
    2b6a:	00f48633          	add	a2,s1,a5
    2b6e:	0789                	addi	a5,a5,2
    2b70:	00b61023          	sh	a1,0(a2)
    2b74:	fed797e3          	bne	a5,a3,2b62 <_Z29minimum_dwconv_single_8x8_16bPsPaS_S_a+0x6a>
    2b78:	10005b37          	lui	s6,0x10005
    2b7c:	0acb0b13          	addi	s6,s6,172 # 100050ac <_ZZ18matmul_multi8_testvE4A_sa_1+0xb8>
    2b80:	4781                	li	a5,0
    2b82:	ac0b0593          	addi	a1,s6,-1344
    2b86:	04800693          	li	a3,72
    2b8a:	00f58733          	add	a4,a1,a5
    2b8e:	00070603          	lb	a2,0(a4)
    2b92:	00fc8733          	add	a4,s9,a5
    2b96:	00c70023          	sb	a2,0(a4)
    2b9a:	00179713          	slli	a4,a5,0x1
    2b9e:	9722                	add	a4,a4,s0
    2ba0:	00071023          	sh	zero,0(a4)
    2ba4:	0785                	addi	a5,a5,1
    2ba6:	fed792e3          	bne	a5,a3,2b8a <_Z29minimum_dwconv_single_8x8_16bPsPaS_S_a+0x92>
    2baa:	4781                	li	a5,0
    2bac:	100045b7          	lui	a1,0x10004
    2bb0:	46c1                	li	a3,16
    2bb2:	6fc58713          	addi	a4,a1,1788 # 100046fc <_ZZ27minimum_conv_single_8x8_16bPsPaS_S_aE4Bias>
    2bb6:	973e                	add	a4,a4,a5
    2bb8:	00071603          	lh	a2,0(a4)
    2bbc:	00fc0733          	add	a4,s8,a5
    2bc0:	0789                	addi	a5,a5,2
    2bc2:	00c71023          	sh	a2,0(a4)
    2bc6:	fed796e3          	bne	a5,a3,2bb2 <_Z29minimum_dwconv_single_8x8_16bPsPaS_S_a+0xba>
    2bca:	001007b7          	lui	a5,0x100
    2bce:	fff78713          	addi	a4,a5,-1 # fffff <__rodata_start__+0xf4f07>
    2bd2:	8cf9                	and	s1,s1,a4
    2bd4:	066006b7          	lui	a3,0x6600
    2bd8:	00ecfcb3          	and	s9,s9,a4
    2bdc:	8cd5                	or	s1,s1,a3
    2bde:	00fcecb3          	or	s9,s9,a5
    2be2:	0194906b          	msetins1	zero,s1,s9
    2be6:	001b8693          	addi	a3,s7,1
    2bea:	47a1                	li	a5,8
    2bec:	02d7c7b3          	div	a5,a5,a3
    2bf0:	010b9693          	slli	a3,s7,0x10
    2bf4:	8f61                	and	a4,a4,s0
    2bf6:	8fd5                	or	a5,a5,a3
    2bf8:	001a46b7          	lui	a3,0x1a4
    2bfc:	98068693          	addi	a3,a3,-1664 # 1a3980 <__rodata_start__+0x198888>
    2c00:	8fd5                	or	a5,a5,a3
    2c02:	022006b7          	lui	a3,0x2200
    2c06:	8f55                	or	a4,a4,a3
    2c08:	06e7906b          	msetins2	zero,a5,a4
    2c0c:	100007b7          	lui	a5,0x10000
    2c10:	f0078793          	addi	a5,a5,-256 # fffff00 <__rodata_start__+0xfff4e08>
    2c14:	0c22                	slli	s8,s8,0x8
    2c16:	00fc7c33          	and	s8,s8,a5
    2c1a:	4485                	li	s1,1
    2c1c:	0c9c106b          	msetins3	zero,s8,s1
    2c20:	080b9c63          	bnez	s7,2cb8 <_Z29minimum_dwconv_single_8x8_16bPsPaS_S_a+0x1c0>
    2c24:	b08b0b13          	addi	s6,s6,-1272
    2c28:	10000d37          	lui	s10,0x10000
    2c2c:	04000c93          	li	s9,64
    2c30:	000b1c03          	lh	s8,0(s6)
    2c34:	00041783          	lh	a5,0(s0)
    2c38:	03878963          	beq	a5,s8,2c6a <_Z29minimum_dwconv_single_8x8_16bPsPaS_S_a+0x172>
    2c3c:	25f00693          	li	a3,607
    2c40:	cf8a8613          	addi	a2,s5,-776
    2c44:	ac0a0593          	addi	a1,s4,-1344
    2c48:	02098513          	addi	a0,s3,32
    2c4c:	09d050ef          	jal	84e8 <_Z7printf_PKcz>
    2c50:	00041683          	lh	a3,0(s0)
    2c54:	8662                	mv	a2,s8
    2c56:	85de                	mv	a1,s7
    2c58:	630d0513          	addi	a0,s10,1584 # 10000630 <__rodata_start__+0xfff5538>
    2c5c:	08d050ef          	jal	84e8 <_Z7printf_PKcz>
    2c60:	05890513          	addi	a0,s2,88
    2c64:	085050ef          	jal	84e8 <_Z7printf_PKcz>
    2c68:	4481                	li	s1,0
    2c6a:	0b85                	addi	s7,s7,1
    2c6c:	0409                	addi	s0,s0,2
    2c6e:	0b09                	addi	s6,s6,2
    2c70:	fd9b90e3          	bne	s7,s9,2c30 <_Z29minimum_dwconv_single_8x8_16bPsPaS_S_a+0x138>
    2c74:	26300693          	li	a3,611
    2c78:	cf8a8613          	addi	a2,s5,-776
    2c7c:	ac0a0593          	addi	a1,s4,-1344
    2c80:	02098513          	addi	a0,s3,32
    2c84:	065050ef          	jal	84e8 <_Z7printf_PKcz>
    2c88:	c0d1                	beqz	s1,2d0c <_Z29minimum_dwconv_single_8x8_16bPsPaS_S_a+0x214>
    2c8a:	10001537          	lui	a0,0x10001
    2c8e:	cb050513          	addi	a0,a0,-848 # 10000cb0 <__rodata_start__+0xfff5bb8>
    2c92:	057050ef          	jal	84e8 <_Z7printf_PKcz>
    2c96:	5422                	lw	s0,40(sp)
    2c98:	50b2                	lw	ra,44(sp)
    2c9a:	5492                	lw	s1,36(sp)
    2c9c:	49f2                	lw	s3,28(sp)
    2c9e:	4a62                	lw	s4,24(sp)
    2ca0:	4ad2                	lw	s5,20(sp)
    2ca2:	4b42                	lw	s6,16(sp)
    2ca4:	4bb2                	lw	s7,12(sp)
    2ca6:	4c22                	lw	s8,8(sp)
    2ca8:	4c92                	lw	s9,4(sp)
    2caa:	4d02                	lw	s10,0(sp)
    2cac:	05890513          	addi	a0,s2,88
    2cb0:	5902                	lw	s2,32(sp)
    2cb2:	6145                	addi	sp,sp,48
    2cb4:	0350506f          	j	84e8 <_Z7printf_PKcz>
    2cb8:	b88b0b13          	addi	s6,s6,-1144
    2cbc:	4b81                	li	s7,0
    2cbe:	10000d37          	lui	s10,0x10000
    2cc2:	04000c93          	li	s9,64
    2cc6:	000b1c03          	lh	s8,0(s6)
    2cca:	00041783          	lh	a5,0(s0)
    2cce:	03878963          	beq	a5,s8,2d00 <_Z29minimum_dwconv_single_8x8_16bPsPaS_S_a+0x208>
    2cd2:	26100693          	li	a3,609
    2cd6:	cf8a8613          	addi	a2,s5,-776
    2cda:	ac0a0593          	addi	a1,s4,-1344
    2cde:	02098513          	addi	a0,s3,32
    2ce2:	007050ef          	jal	84e8 <_Z7printf_PKcz>
    2ce6:	00041683          	lh	a3,0(s0)
    2cea:	8662                	mv	a2,s8
    2cec:	85de                	mv	a1,s7
    2cee:	630d0513          	addi	a0,s10,1584 # 10000630 <__rodata_start__+0xfff5538>
    2cf2:	7f6050ef          	jal	84e8 <_Z7printf_PKcz>
    2cf6:	05890513          	addi	a0,s2,88
    2cfa:	7ee050ef          	jal	84e8 <_Z7printf_PKcz>
    2cfe:	4481                	li	s1,0
    2d00:	0b85                	addi	s7,s7,1
    2d02:	0409                	addi	s0,s0,2
    2d04:	0b09                	addi	s6,s6,2
    2d06:	fd9b90e3          	bne	s7,s9,2cc6 <_Z29minimum_dwconv_single_8x8_16bPsPaS_S_a+0x1ce>
    2d0a:	b7ad                	j	2c74 <_Z29minimum_dwconv_single_8x8_16bPsPaS_S_a+0x17c>
    2d0c:	10001537          	lui	a0,0x10001
    2d10:	cd450513          	addi	a0,a0,-812 # 10000cd4 <__rodata_start__+0xfff5bdc>
    2d14:	bfbd                	j	2c92 <_Z29minimum_dwconv_single_8x8_16bPsPaS_S_a+0x19a>

00002d16 <_Z21sau_benchmark_8x8_16bPsPaS_S_>:
    2d16:	7179                	addi	sp,sp,-48
    2d18:	ca56                	sw	s5,20(sp)
    2d1a:	c85a                	sw	s6,16(sp)
    2d1c:	c65e                	sw	s7,12(sp)
    2d1e:	10001b37          	lui	s6,0x10001
    2d22:	10001bb7          	lui	s7,0x10001
    2d26:	10000ab7          	lui	s5,0x10000
    2d2a:	d422                	sw	s0,40(sp)
    2d2c:	d226                	sw	s1,36(sp)
    2d2e:	d04a                	sw	s2,32(sp)
    2d30:	ce4e                	sw	s3,28(sp)
    2d32:	842a                	mv	s0,a0
    2d34:	84ae                	mv	s1,a1
    2d36:	8932                	mv	s2,a2
    2d38:	89b6                	mv	s3,a3
    2d3a:	d44b8613          	addi	a2,s7,-700 # 10000d44 <__rodata_start__+0xfff5c4c>
    2d3e:	26800693          	li	a3,616
    2d42:	ac0b0593          	addi	a1,s6,-1344 # 10000ac0 <__rodata_start__+0xfff59c8>
    2d46:	020a8513          	addi	a0,s5,32 # 10000020 <__rodata_start__+0xfff4f28>
    2d4a:	d606                	sw	ra,44(sp)
    2d4c:	cc52                	sw	s4,24(sp)
    2d4e:	79a050ef          	jal	84e8 <_Z7printf_PKcz>
    2d52:	10001537          	lui	a0,0x10001
    2d56:	89450513          	addi	a0,a0,-1900 # 10000894 <__rodata_start__+0xfff579c>
    2d5a:	78e050ef          	jal	84e8 <_Z7printf_PKcz>
    2d5e:	10000a37          	lui	s4,0x10000
    2d62:	058a0513          	addi	a0,s4,88 # 10000058 <__rodata_start__+0xfff4f60>
    2d66:	782050ef          	jal	84e8 <_Z7printf_PKcz>
    2d6a:	864a                	mv	a2,s2
    2d6c:	85a6                	mv	a1,s1
    2d6e:	8522                	mv	a0,s0
    2d70:	eecff0ef          	jal	245c <_Z28minimum_matmul_multi_8x8_16bPsPaS_>
    2d74:	864a                	mv	a2,s2
    2d76:	85a6                	mv	a1,s1
    2d78:	8522                	mv	a0,s0
    2d7a:	32dd                	jal	2760 <_Z29minimum_pwconv_single_8x8_16bPsPaS_>
    2d7c:	86ce                	mv	a3,s3
    2d7e:	864a                	mv	a2,s2
    2d80:	85a6                	mv	a1,s1
    2d82:	8522                	mv	a0,s0
    2d84:	4701                	li	a4,0
    2d86:	3685                	jal	28e6 <_Z27minimum_conv_single_8x8_16bPsPaS_S_a>
    2d88:	86ce                	mv	a3,s3
    2d8a:	864a                	mv	a2,s2
    2d8c:	85a6                	mv	a1,s1
    2d8e:	8522                	mv	a0,s0
    2d90:	4705                	li	a4,1
    2d92:	3e91                	jal	28e6 <_Z27minimum_conv_single_8x8_16bPsPaS_S_a>
    2d94:	86ce                	mv	a3,s3
    2d96:	864a                	mv	a2,s2
    2d98:	85a6                	mv	a1,s1
    2d9a:	8522                	mv	a0,s0
    2d9c:	4701                	li	a4,0
    2d9e:	3ba9                	jal	2af8 <_Z29minimum_dwconv_single_8x8_16bPsPaS_S_a>
    2da0:	4705                	li	a4,1
    2da2:	86ce                	mv	a3,s3
    2da4:	864a                	mv	a2,s2
    2da6:	85a6                	mv	a1,s1
    2da8:	8522                	mv	a0,s0
    2daa:	33b9                	jal	2af8 <_Z29minimum_dwconv_single_8x8_16bPsPaS_S_a>
    2dac:	d44b8613          	addi	a2,s7,-700
    2db0:	ac0b0593          	addi	a1,s6,-1344
    2db4:	27700693          	li	a3,631
    2db8:	020a8513          	addi	a0,s5,32
    2dbc:	72c050ef          	jal	84e8 <_Z7printf_PKcz>
    2dc0:	10001537          	lui	a0,0x10001
    2dc4:	8ac50513          	addi	a0,a0,-1876 # 100008ac <__rodata_start__+0xfff57b4>
    2dc8:	720050ef          	jal	84e8 <_Z7printf_PKcz>
    2dcc:	5422                	lw	s0,40(sp)
    2dce:	50b2                	lw	ra,44(sp)
    2dd0:	5492                	lw	s1,36(sp)
    2dd2:	5902                	lw	s2,32(sp)
    2dd4:	49f2                	lw	s3,28(sp)
    2dd6:	4ad2                	lw	s5,20(sp)
    2dd8:	4b42                	lw	s6,16(sp)
    2dda:	4bb2                	lw	s7,12(sp)
    2ddc:	058a0513          	addi	a0,s4,88
    2de0:	4a62                	lw	s4,24(sp)
    2de2:	6145                	addi	sp,sp,48
    2de4:	7040506f          	j	84e8 <_Z7printf_PKcz>

00002de8 <_Z13matmul_multi8PaS_S_iii>:
    2de8:	1101                	addi	sp,sp,-32
    2dea:	ca26                	sw	s1,20(sp)
    2dec:	c84a                	sw	s2,16(sp)
    2dee:	c256                	sw	s5,4(sp)
    2df0:	892e                	mv	s2,a1
    2df2:	8aaa                	mv	s5,a0
    2df4:	84b2                	mv	s1,a2
    2df6:	100015b7          	lui	a1,0x10001
    2dfa:	10001637          	lui	a2,0x10001
    2dfe:	10000537          	lui	a0,0x10000
    2e02:	c452                	sw	s4,8(sp)
    2e04:	d5c60613          	addi	a2,a2,-676 # 10000d5c <__rodata_start__+0xfff5c64>
    2e08:	8a36                	mv	s4,a3
    2e0a:	d6c58593          	addi	a1,a1,-660 # 10000d6c <__rodata_start__+0xfff5c74>
    2e0e:	4695                	li	a3,5
    2e10:	02050513          	addi	a0,a0,32 # 10000020 <__rodata_start__+0xfff4f28>
    2e14:	ce06                	sw	ra,28(sp)
    2e16:	cc22                	sw	s0,24(sp)
    2e18:	c64e                	sw	s3,12(sp)
    2e1a:	843e                	mv	s0,a5
    2e1c:	89ba                	mv	s3,a4
    2e1e:	6ca050ef          	jal	84e8 <_Z7printf_PKcz>
    2e22:	10001537          	lui	a0,0x10001
    2e26:	86ce                	mv	a3,s3
    2e28:	864e                	mv	a2,s3
    2e2a:	85d2                	mv	a1,s4
    2e2c:	87d2                	mv	a5,s4
    2e2e:	8822                	mv	a6,s0
    2e30:	8722                	mv	a4,s0
    2e32:	d8850513          	addi	a0,a0,-632 # 10000d88 <__rodata_start__+0xfff5c90>
    2e36:	6b2050ef          	jal	84e8 <_Z7printf_PKcz>
    2e3a:	10000537          	lui	a0,0x10000
    2e3e:	05850513          	addi	a0,a0,88 # 10000058 <__rodata_start__+0xfff4f60>
    2e42:	6a6050ef          	jal	84e8 <_Z7printf_PKcz>
    2e46:	4321                	li	t1,8
    2e48:	026a46b3          	div	a3,s4,t1
    2e4c:	00104fb7          	lui	t6,0x104
    2e50:	00100eb7          	lui	t4,0x100
    2e54:	00399e13          	slli	t3,s3,0x3
    2e58:	8556                	mv	a0,s5
    2e5a:	4601                	li	a2,0
    2e5c:	4581                	li	a1,0
    2e5e:	1efd                	addi	t4,t4,-1 # fffff <__rodata_start__+0xf4f07>
    2e60:	02000a37          	lui	s4,0x2000
    2e64:	4a85                	li	s5,1
    2e66:	026442b3          	div	t0,s0,t1
    2e6a:	0269c333          	div	t1,s3,t1
    2e6e:	01429393          	slli	t2,t0,0x14
    2e72:	100009b7          	lui	s3,0x10000
    2e76:	01f36fb3          	or	t6,t1,t6
    2e7a:	0352                	slli	t1,t1,0x14
    2e7c:	04d5d963          	bge	a1,a3,2ece <_Z13matmul_multi8PaS_S_iii+0xe6>
    2e80:	01d57733          	and	a4,a0,t4
    2e84:	00361813          	slli	a6,a2,0x3
    2e88:	9826                	add	a6,a6,s1
    2e8a:	4f01                	li	t5,0
    2e8c:	00e36733          	or	a4,t1,a4
    2e90:	a80d                	j	2ec2 <_Z13matmul_multi8PaS_S_iii+0xda>
    2e92:	003f1893          	slli	a7,t5,0x3
    2e96:	98ca                	add	a7,a7,s2
    2e98:	01d8f8b3          	and	a7,a7,t4
    2e9c:	0078e8b3          	or	a7,a7,t2
    2ea0:	0138e8b3          	or	a7,a7,s3
    2ea4:	0117106b          	msetins1	zero,a4,a7
    2ea8:	01d877b3          	and	a5,a6,t4
    2eac:	0077e7b3          	or	a5,a5,t2
    2eb0:	0147e7b3          	or	a5,a5,s4
    2eb4:	06ff906b          	msetins2	zero,t6,a5
    2eb8:	4781                	li	a5,0
    2eba:	0d57906b          	msetins3	zero,a5,s5
    2ebe:	0f05                	addi	t5,t5,1
    2ec0:	0821                	addi	a6,a6,8
    2ec2:	fc5f48e3          	blt	t5,t0,2e92 <_Z13matmul_multi8PaS_S_iii+0xaa>
    2ec6:	0585                	addi	a1,a1,1
    2ec8:	9572                	add	a0,a0,t3
    2eca:	9622                	add	a2,a2,s0
    2ecc:	bf45                	j	2e7c <_Z13matmul_multi8PaS_S_iii+0x94>
    2ece:	40f2                	lw	ra,28(sp)
    2ed0:	4462                	lw	s0,24(sp)
    2ed2:	44d2                	lw	s1,20(sp)
    2ed4:	4942                	lw	s2,16(sp)
    2ed6:	49b2                	lw	s3,12(sp)
    2ed8:	4a22                	lw	s4,8(sp)
    2eda:	4a92                	lw	s5,4(sp)
    2edc:	6105                	addi	sp,sp,32
    2ede:	8082                	ret

00002ee0 <_Z25matmul_multi8_single_testv>:
    2ee0:	715d                	addi	sp,sp,-80
    2ee2:	de4e                	sw	s3,60(sp)
    2ee4:	dc52                	sw	s4,56(sp)
    2ee6:	da56                	sw	s5,52(sp)
    2ee8:	10001a37          	lui	s4,0x10001
    2eec:	10001ab7          	lui	s5,0x10001
    2ef0:	100009b7          	lui	s3,0x10000
    2ef4:	4691                	li	a3,4
    2ef6:	e10a8613          	addi	a2,s5,-496 # 10000e10 <__rodata_start__+0xfff5d18>
    2efa:	e2ca0593          	addi	a1,s4,-468 # 10000e2c <__rodata_start__+0xfff5d34>
    2efe:	02098513          	addi	a0,s3,32 # 10000020 <__rodata_start__+0xfff4f28>
    2f02:	c686                	sw	ra,76(sp)
    2f04:	c4a2                	sw	s0,72(sp)
    2f06:	c0ca                	sw	s2,64(sp)
    2f08:	d85a                	sw	s6,48(sp)
    2f0a:	d65e                	sw	s7,44(sp)
    2f0c:	c2a6                	sw	s1,68(sp)
    2f0e:	d462                	sw	s8,40(sp)
    2f10:	d266                	sw	s9,36(sp)
    2f12:	d06a                	sw	s10,32(sp)
    2f14:	ce6e                	sw	s11,28(sp)
    2f16:	5d2050ef          	jal	84e8 <_Z7printf_PKcz>
    2f1a:	10001537          	lui	a0,0x10001
    2f1e:	e4850513          	addi	a0,a0,-440 # 10000e48 <__rodata_start__+0xfff5d50>
    2f22:	5c6050ef          	jal	84e8 <_Z7printf_PKcz>
    2f26:	10000937          	lui	s2,0x10000
    2f2a:	05890513          	addi	a0,s2,88 # 10000058 <__rodata_start__+0xfff4f60>
    2f2e:	5ba050ef          	jal	84e8 <_Z7printf_PKcz>
    2f32:	04000513          	li	a0,64
    2f36:	17e040ef          	jal	70b4 <_Z6mallocj>
    2f3a:	8baa                	mv	s7,a0
    2f3c:	08000513          	li	a0,128
    2f40:	174040ef          	jal	70b4 <_Z6mallocj>
    2f44:	8b2a                	mv	s6,a0
    2f46:	08000513          	li	a0,128
    2f4a:	16a040ef          	jal	70b4 <_Z6mallocj>
    2f4e:	842a                	mv	s0,a0
    2f50:	4781                	li	a5,0
    2f52:	100056b7          	lui	a3,0x10005
    2f56:	04000613          	li	a2,64
    2f5a:	cb468713          	addi	a4,a3,-844 # 10004cb4 <_ZZ25matmul_multi8_single_testvE4A_sa>
    2f5e:	973e                	add	a4,a4,a5
    2f60:	00070583          	lb	a1,0(a4)
    2f64:	00fb8733          	add	a4,s7,a5
    2f68:	0785                	addi	a5,a5,1
    2f6a:	00b70023          	sb	a1,0(a4)
    2f6e:	cb468c93          	addi	s9,a3,-844
    2f72:	fec794e3          	bne	a5,a2,2f5a <_Z25matmul_multi8_single_testv+0x7a>
    2f76:	4781                	li	a5,0
    2f78:	040c8593          	addi	a1,s9,64
    2f7c:	08000713          	li	a4,128
    2f80:	00f586b3          	add	a3,a1,a5
    2f84:	00068603          	lb	a2,0(a3)
    2f88:	00fb06b3          	add	a3,s6,a5
    2f8c:	0785                	addi	a5,a5,1
    2f8e:	00c68023          	sb	a2,0(a3)
    2f92:	fee797e3          	bne	a5,a4,2f80 <_Z25matmul_multi8_single_testv+0xa0>
    2f96:	4781                	li	a5,0
    2f98:	08000713          	li	a4,128
    2f9c:	00f406b3          	add	a3,s0,a5
    2fa0:	00068023          	sb	zero,0(a3)
    2fa4:	0785                	addi	a5,a5,1
    2fa6:	fee79be3          	bne	a5,a4,2f9c <_Z25matmul_multi8_single_testv+0xbc>
    2faa:	4721                	li	a4,8
    2fac:	86ba                	mv	a3,a4
    2fae:	47c1                	li	a5,16
    2fb0:	8622                	mv	a2,s0
    2fb2:	85da                	mv	a1,s6
    2fb4:	855e                	mv	a0,s7
    2fb6:	e33ff0ef          	jal	2de8 <_Z13matmul_multi8PaS_S_iii>
    2fba:	4481                	li	s1,0
    2fbc:	4c05                	li	s8,1
    2fbe:	0c0c8c93          	addi	s9,s9,192
    2fc2:	10000db7          	lui	s11,0x10000
    2fc6:	08000713          	li	a4,128
    2fca:	009407b3          	add	a5,s0,s1
    2fce:	009c86b3          	add	a3,s9,s1
    2fd2:	00068d03          	lb	s10,0(a3)
    2fd6:	00078683          	lb	a3,0(a5)
    2fda:	c63e                	sw	a5,12(sp)
    2fdc:	03a68c63          	beq	a3,s10,3014 <_Z25matmul_multi8_single_testv+0x134>
    2fe0:	03000693          	li	a3,48
    2fe4:	e10a8613          	addi	a2,s5,-496
    2fe8:	e2ca0593          	addi	a1,s4,-468
    2fec:	02098513          	addi	a0,s3,32
    2ff0:	4f8050ef          	jal	84e8 <_Z7printf_PKcz>
    2ff4:	47b2                	lw	a5,12(sp)
    2ff6:	866a                	mv	a2,s10
    2ff8:	85a6                	mv	a1,s1
    2ffa:	00078683          	lb	a3,0(a5)
    2ffe:	630d8513          	addi	a0,s11,1584 # 10000630 <__rodata_start__+0xfff5538>
    3002:	4c01                	li	s8,0
    3004:	4e4050ef          	jal	84e8 <_Z7printf_PKcz>
    3008:	05890513          	addi	a0,s2,88
    300c:	4dc050ef          	jal	84e8 <_Z7printf_PKcz>
    3010:	08000713          	li	a4,128
    3014:	0485                	addi	s1,s1,1
    3016:	fae49ae3          	bne	s1,a4,2fca <_Z25matmul_multi8_single_testv+0xea>
    301a:	080c0b63          	beqz	s8,30b0 <_Z25matmul_multi8_single_testv+0x1d0>
    301e:	03200693          	li	a3,50
    3022:	e10a8613          	addi	a2,s5,-496
    3026:	e2ca0593          	addi	a1,s4,-468
    302a:	02098513          	addi	a0,s3,32
    302e:	4ba050ef          	jal	84e8 <_Z7printf_PKcz>
    3032:	47a1                	li	a5,8
    3034:	4841                	li	a6,16
    3036:	10001537          	lui	a0,0x10001
    303a:	8742                	mv	a4,a6
    303c:	86be                	mv	a3,a5
    303e:	863e                	mv	a2,a5
    3040:	85be                	mv	a1,a5
    3042:	e6c50513          	addi	a0,a0,-404 # 10000e6c <__rodata_start__+0xfff5d74>
    3046:	4a2050ef          	jal	84e8 <_Z7printf_PKcz>
    304a:	05890513          	addi	a0,s2,88
    304e:	49a050ef          	jal	84e8 <_Z7printf_PKcz>
    3052:	855e                	mv	a0,s7
    3054:	06e040ef          	jal	70c2 <_Z4freePv>
    3058:	855a                	mv	a0,s6
    305a:	068040ef          	jal	70c2 <_Z4freePv>
    305e:	8522                	mv	a0,s0
    3060:	062040ef          	jal	70c2 <_Z4freePv>
    3064:	03a00693          	li	a3,58
    3068:	e10a8613          	addi	a2,s5,-496
    306c:	e2ca0593          	addi	a1,s4,-468
    3070:	02098513          	addi	a0,s3,32
    3074:	474050ef          	jal	84e8 <_Z7printf_PKcz>
    3078:	060c0163          	beqz	s8,30da <_Z25matmul_multi8_single_testv+0x1fa>
    307c:	10001537          	lui	a0,0x10001
    3080:	dc050513          	addi	a0,a0,-576 # 10000dc0 <__rodata_start__+0xfff5cc8>
    3084:	464050ef          	jal	84e8 <_Z7printf_PKcz>
    3088:	05890513          	addi	a0,s2,88
    308c:	45c050ef          	jal	84e8 <_Z7printf_PKcz>
    3090:	40b6                	lw	ra,76(sp)
    3092:	4426                	lw	s0,72(sp)
    3094:	4496                	lw	s1,68(sp)
    3096:	4906                	lw	s2,64(sp)
    3098:	59f2                	lw	s3,60(sp)
    309a:	5a62                	lw	s4,56(sp)
    309c:	5ad2                	lw	s5,52(sp)
    309e:	5b42                	lw	s6,48(sp)
    30a0:	5bb2                	lw	s7,44(sp)
    30a2:	5c92                	lw	s9,36(sp)
    30a4:	5d02                	lw	s10,32(sp)
    30a6:	4df2                	lw	s11,28(sp)
    30a8:	8562                	mv	a0,s8
    30aa:	5c22                	lw	s8,40(sp)
    30ac:	6161                	addi	sp,sp,80
    30ae:	8082                	ret
    30b0:	03400693          	li	a3,52
    30b4:	e10a8613          	addi	a2,s5,-496
    30b8:	e2ca0593          	addi	a1,s4,-468
    30bc:	02098513          	addi	a0,s3,32
    30c0:	428050ef          	jal	84e8 <_Z7printf_PKcz>
    30c4:	47a1                	li	a5,8
    30c6:	4841                	li	a6,16
    30c8:	10001537          	lui	a0,0x10001
    30cc:	8742                	mv	a4,a6
    30ce:	86be                	mv	a3,a5
    30d0:	863e                	mv	a2,a5
    30d2:	85be                	mv	a1,a5
    30d4:	ea050513          	addi	a0,a0,-352 # 10000ea0 <__rodata_start__+0xfff5da8>
    30d8:	b7bd                	j	3046 <_Z25matmul_multi8_single_testv+0x166>
    30da:	10001537          	lui	a0,0x10001
    30de:	de850513          	addi	a0,a0,-536 # 10000de8 <__rodata_start__+0xfff5cf0>
    30e2:	b74d                	j	3084 <_Z25matmul_multi8_single_testv+0x1a4>

000030e4 <_Z18matmul_multi8_testv>:
    30e4:	715d                	addi	sp,sp,-80
    30e6:	c0ca                	sw	s2,64(sp)
    30e8:	de4e                	sw	s3,60(sp)
    30ea:	dc52                	sw	s4,56(sp)
    30ec:	100019b7          	lui	s3,0x10001
    30f0:	10001a37          	lui	s4,0x10001
    30f4:	10000937          	lui	s2,0x10000
    30f8:	e2c98593          	addi	a1,s3,-468 # 10000e2c <__rodata_start__+0xfff5d34>
    30fc:	03f00693          	li	a3,63
    3100:	ed4a0613          	addi	a2,s4,-300 # 10000ed4 <__rodata_start__+0xfff5ddc>
    3104:	02090513          	addi	a0,s2,32 # 10000020 <__rodata_start__+0xfff4f28>
    3108:	c686                	sw	ra,76(sp)
    310a:	c4a2                	sw	s0,72(sp)
    310c:	c2a6                	sw	s1,68(sp)
    310e:	da56                	sw	s5,52(sp)
    3110:	d462                	sw	s8,40(sp)
    3112:	d266                	sw	s9,36(sp)
    3114:	d85a                	sw	s6,48(sp)
    3116:	d65e                	sw	s7,44(sp)
    3118:	d06a                	sw	s10,32(sp)
    311a:	ce6e                	sw	s11,28(sp)
    311c:	3cc050ef          	jal	84e8 <_Z7printf_PKcz>
    3120:	10001537          	lui	a0,0x10001
    3124:	e4850513          	addi	a0,a0,-440 # 10000e48 <__rodata_start__+0xfff5d50>
    3128:	3c0050ef          	jal	84e8 <_Z7printf_PKcz>
    312c:	100004b7          	lui	s1,0x10000
    3130:	05848513          	addi	a0,s1,88 # 10000058 <__rodata_start__+0xfff4f60>
    3134:	3b4050ef          	jal	84e8 <_Z7printf_PKcz>
    3138:	04000513          	li	a0,64
    313c:	779030ef          	jal	70b4 <_Z6mallocj>
    3140:	8caa                	mv	s9,a0
    3142:	04000513          	li	a0,64
    3146:	76f030ef          	jal	70b4 <_Z6mallocj>
    314a:	8c2a                	mv	s8,a0
    314c:	10005437          	lui	s0,0x10005
    3150:	04000513          	li	a0,64
    3154:	761030ef          	jal	70b4 <_Z6mallocj>
    3158:	cb440413          	addi	s0,s0,-844 # 10004cb4 <_ZZ25matmul_multi8_single_testvE4A_sa>
    315c:	8aaa                	mv	s5,a0
    315e:	4781                	li	a5,0
    3160:	14040593          	addi	a1,s0,320
    3164:	04000713          	li	a4,64
    3168:	00f586b3          	add	a3,a1,a5
    316c:	00068603          	lb	a2,0(a3)
    3170:	00fc86b3          	add	a3,s9,a5
    3174:	0785                	addi	a5,a5,1
    3176:	00c68023          	sb	a2,0(a3)
    317a:	fee797e3          	bne	a5,a4,3168 <_Z18matmul_multi8_testv+0x84>
    317e:	4781                	li	a5,0
    3180:	18040593          	addi	a1,s0,384
    3184:	04000713          	li	a4,64
    3188:	00f586b3          	add	a3,a1,a5
    318c:	00068603          	lb	a2,0(a3)
    3190:	00fc06b3          	add	a3,s8,a5
    3194:	0785                	addi	a5,a5,1
    3196:	00c68023          	sb	a2,0(a3)
    319a:	fee797e3          	bne	a5,a4,3188 <_Z18matmul_multi8_testv+0xa4>
    319e:	4781                	li	a5,0
    31a0:	04000713          	li	a4,64
    31a4:	00fa86b3          	add	a3,s5,a5
    31a8:	00068023          	sb	zero,0(a3)
    31ac:	0785                	addi	a5,a5,1
    31ae:	fee79be3          	bne	a5,a4,31a4 <_Z18matmul_multi8_testv+0xc0>
    31b2:	47a1                	li	a5,8
    31b4:	873e                	mv	a4,a5
    31b6:	86be                	mv	a3,a5
    31b8:	8656                	mv	a2,s5
    31ba:	85e2                	mv	a1,s8
    31bc:	8566                	mv	a0,s9
    31be:	c2bff0ef          	jal	2de8 <_Z13matmul_multi8PaS_S_iii>
    31c2:	4b01                	li	s6,0
    31c4:	4b85                	li	s7,1
    31c6:	1c040813          	addi	a6,s0,448
    31ca:	10000db7          	lui	s11,0x10000
    31ce:	04000713          	li	a4,64
    31d2:	016a87b3          	add	a5,s5,s6
    31d6:	016806b3          	add	a3,a6,s6
    31da:	00068d03          	lb	s10,0(a3)
    31de:	00078683          	lb	a3,0(a5)
    31e2:	c43e                	sw	a5,8(sp)
    31e4:	05a68063          	beq	a3,s10,3224 <_Z18matmul_multi8_testv+0x140>
    31e8:	06c00693          	li	a3,108
    31ec:	ed4a0613          	addi	a2,s4,-300
    31f0:	e2c98593          	addi	a1,s3,-468
    31f4:	02090513          	addi	a0,s2,32
    31f8:	2f0050ef          	jal	84e8 <_Z7printf_PKcz>
    31fc:	47a2                	lw	a5,8(sp)
    31fe:	866a                	mv	a2,s10
    3200:	85da                	mv	a1,s6
    3202:	00078683          	lb	a3,0(a5)
    3206:	630d8513          	addi	a0,s11,1584 # 10000630 <__rodata_start__+0xfff5538>
    320a:	4b81                	li	s7,0
    320c:	2dc050ef          	jal	84e8 <_Z7printf_PKcz>
    3210:	05848513          	addi	a0,s1,88
    3214:	2d4050ef          	jal	84e8 <_Z7printf_PKcz>
    3218:	100057b7          	lui	a5,0x10005
    321c:	04000713          	li	a4,64
    3220:	e7478813          	addi	a6,a5,-396 # 10004e74 <_ZZ18matmul_multi8_testvE4D_sa>
    3224:	0b05                	addi	s6,s6,1
    3226:	faeb16e3          	bne	s6,a4,31d2 <_Z18matmul_multi8_testv+0xee>
    322a:	160b83e3          	beqz	s7,3b90 <_Z18matmul_multi8_testv+0xaac>
    322e:	06e00693          	li	a3,110
    3232:	ed4a0613          	addi	a2,s4,-300
    3236:	e2c98593          	addi	a1,s3,-468
    323a:	02090513          	addi	a0,s2,32
    323e:	2aa050ef          	jal	84e8 <_Z7printf_PKcz>
    3242:	4821                	li	a6,8
    3244:	10001537          	lui	a0,0x10001
    3248:	87c2                	mv	a5,a6
    324a:	8742                	mv	a4,a6
    324c:	86c2                	mv	a3,a6
    324e:	8642                	mv	a2,a6
    3250:	85c2                	mv	a1,a6
    3252:	e6c50513          	addi	a0,a0,-404 # 10000e6c <__rodata_start__+0xfff5d74>
    3256:	292050ef          	jal	84e8 <_Z7printf_PKcz>
    325a:	05848513          	addi	a0,s1,88
    325e:	28a050ef          	jal	84e8 <_Z7printf_PKcz>
    3262:	8566                	mv	a0,s9
    3264:	65f030ef          	jal	70c2 <_Z4freePv>
    3268:	8562                	mv	a0,s8
    326a:	659030ef          	jal	70c2 <_Z4freePv>
    326e:	8556                	mv	a0,s5
    3270:	653030ef          	jal	70c2 <_Z4freePv>
    3274:	08000513          	li	a0,128
    3278:	63d030ef          	jal	70b4 <_Z6mallocj>
    327c:	8caa                	mv	s9,a0
    327e:	08000513          	li	a0,128
    3282:	633030ef          	jal	70b4 <_Z6mallocj>
    3286:	8c2a                	mv	s8,a0
    3288:	04000513          	li	a0,64
    328c:	629030ef          	jal	70b4 <_Z6mallocj>
    3290:	8aaa                	mv	s5,a0
    3292:	4781                	li	a5,0
    3294:	20040593          	addi	a1,s0,512
    3298:	08000713          	li	a4,128
    329c:	00f586b3          	add	a3,a1,a5
    32a0:	00068603          	lb	a2,0(a3)
    32a4:	00fc86b3          	add	a3,s9,a5
    32a8:	0785                	addi	a5,a5,1
    32aa:	00c68023          	sb	a2,0(a3)
    32ae:	fee797e3          	bne	a5,a4,329c <_Z18matmul_multi8_testv+0x1b8>
    32b2:	4781                	li	a5,0
    32b4:	28040593          	addi	a1,s0,640
    32b8:	08000713          	li	a4,128
    32bc:	00f586b3          	add	a3,a1,a5
    32c0:	00068603          	lb	a2,0(a3)
    32c4:	00fc06b3          	add	a3,s8,a5
    32c8:	0785                	addi	a5,a5,1
    32ca:	00c68023          	sb	a2,0(a3)
    32ce:	fee797e3          	bne	a5,a4,32bc <_Z18matmul_multi8_testv+0x1d8>
    32d2:	4781                	li	a5,0
    32d4:	04000713          	li	a4,64
    32d8:	00fa86b3          	add	a3,s5,a5
    32dc:	00068023          	sb	zero,0(a3)
    32e0:	0785                	addi	a5,a5,1
    32e2:	fee79be3          	bne	a5,a4,32d8 <_Z18matmul_multi8_testv+0x1f4>
    32e6:	47a1                	li	a5,8
    32e8:	4741                	li	a4,16
    32ea:	86be                	mv	a3,a5
    32ec:	8656                	mv	a2,s5
    32ee:	85e2                	mv	a1,s8
    32f0:	8566                	mv	a0,s9
    32f2:	af7ff0ef          	jal	2de8 <_Z13matmul_multi8PaS_S_iii>
    32f6:	4b01                	li	s6,0
    32f8:	4d05                	li	s10,1
    32fa:	30040893          	addi	a7,s0,768
    32fe:	10000db7          	lui	s11,0x10000
    3302:	04000813          	li	a6,64
    3306:	016887b3          	add	a5,a7,s6
    330a:	016a8733          	add	a4,s5,s6
    330e:	00078783          	lb	a5,0(a5)
    3312:	00070683          	lb	a3,0(a4)
    3316:	c63a                	sw	a4,12(sp)
    3318:	c43e                	sw	a5,8(sp)
    331a:	04f68163          	beq	a3,a5,335c <_Z18matmul_multi8_testv+0x278>
    331e:	0a800693          	li	a3,168
    3322:	ed4a0613          	addi	a2,s4,-300
    3326:	e2c98593          	addi	a1,s3,-468
    332a:	02090513          	addi	a0,s2,32
    332e:	1ba050ef          	jal	84e8 <_Z7printf_PKcz>
    3332:	4732                	lw	a4,12(sp)
    3334:	47a2                	lw	a5,8(sp)
    3336:	85da                	mv	a1,s6
    3338:	00070683          	lb	a3,0(a4)
    333c:	863e                	mv	a2,a5
    333e:	630d8513          	addi	a0,s11,1584 # 10000630 <__rodata_start__+0xfff5538>
    3342:	1a6050ef          	jal	84e8 <_Z7printf_PKcz>
    3346:	05848513          	addi	a0,s1,88
    334a:	19e050ef          	jal	84e8 <_Z7printf_PKcz>
    334e:	100057b7          	lui	a5,0x10005
    3352:	4d01                	li	s10,0
    3354:	04000813          	li	a6,64
    3358:	fb478893          	addi	a7,a5,-76 # 10004fb4 <_ZZ18matmul_multi8_testvE4D_sa_0>
    335c:	0b05                	addi	s6,s6,1
    335e:	fb0b14e3          	bne	s6,a6,3306 <_Z18matmul_multi8_testv+0x222>
    3362:	040d0de3          	beqz	s10,3bbc <_Z18matmul_multi8_testv+0xad8>
    3366:	0aa00693          	li	a3,170
    336a:	ed4a0613          	addi	a2,s4,-300
    336e:	e2c98593          	addi	a1,s3,-468
    3372:	02090513          	addi	a0,s2,32
    3376:	172050ef          	jal	84e8 <_Z7printf_PKcz>
    337a:	4821                	li	a6,8
    337c:	46c1                	li	a3,16
    337e:	10001537          	lui	a0,0x10001
    3382:	87c2                	mv	a5,a6
    3384:	8742                	mv	a4,a6
    3386:	8636                	mv	a2,a3
    3388:	85c2                	mv	a1,a6
    338a:	e6c50513          	addi	a0,a0,-404 # 10000e6c <__rodata_start__+0xfff5d74>
    338e:	15a050ef          	jal	84e8 <_Z7printf_PKcz>
    3392:	05848513          	addi	a0,s1,88
    3396:	152050ef          	jal	84e8 <_Z7printf_PKcz>
    339a:	8566                	mv	a0,s9
    339c:	527030ef          	jal	70c2 <_Z4freePv>
    33a0:	8562                	mv	a0,s8
    33a2:	521030ef          	jal	70c2 <_Z4freePv>
    33a6:	8556                	mv	a0,s5
    33a8:	51b030ef          	jal	70c2 <_Z4freePv>
    33ac:	10000513          	li	a0,256
    33b0:	505030ef          	jal	70b4 <_Z6mallocj>
    33b4:	8caa                	mv	s9,a0
    33b6:	08000513          	li	a0,128
    33ba:	4fb030ef          	jal	70b4 <_Z6mallocj>
    33be:	8c2a                	mv	s8,a0
    33c0:	20000513          	li	a0,512
    33c4:	4f1030ef          	jal	70b4 <_Z6mallocj>
    33c8:	01abfbb3          	and	s7,s7,s10
    33cc:	8aaa                	mv	s5,a0
    33ce:	4781                	li	a5,0
    33d0:	34040593          	addi	a1,s0,832
    33d4:	10000713          	li	a4,256
    33d8:	00f586b3          	add	a3,a1,a5
    33dc:	00068603          	lb	a2,0(a3)
    33e0:	00fc86b3          	add	a3,s9,a5
    33e4:	0785                	addi	a5,a5,1
    33e6:	00c68023          	sb	a2,0(a3)
    33ea:	fee797e3          	bne	a5,a4,33d8 <_Z18matmul_multi8_testv+0x2f4>
    33ee:	4781                	li	a5,0
    33f0:	44040593          	addi	a1,s0,1088
    33f4:	08000713          	li	a4,128
    33f8:	00f586b3          	add	a3,a1,a5
    33fc:	00068603          	lb	a2,0(a3)
    3400:	00fc06b3          	add	a3,s8,a5
    3404:	0785                	addi	a5,a5,1
    3406:	00c68023          	sb	a2,0(a3)
    340a:	fee797e3          	bne	a5,a4,33f8 <_Z18matmul_multi8_testv+0x314>
    340e:	4781                	li	a5,0
    3410:	20000713          	li	a4,512
    3414:	00fa86b3          	add	a3,s5,a5
    3418:	00068023          	sb	zero,0(a3)
    341c:	0785                	addi	a5,a5,1
    341e:	fee79be3          	bne	a5,a4,3414 <_Z18matmul_multi8_testv+0x330>
    3422:	47c1                	li	a5,16
    3424:	4721                	li	a4,8
    3426:	02000693          	li	a3,32
    342a:	8656                	mv	a2,s5
    342c:	85e2                	mv	a1,s8
    342e:	8566                	mv	a0,s9
    3430:	9b9ff0ef          	jal	2de8 <_Z13matmul_multi8PaS_S_iii>
    3434:	4b01                	li	s6,0
    3436:	4d05                	li	s10,1
    3438:	4c040413          	addi	s0,s0,1216
    343c:	10000db7          	lui	s11,0x10000
    3440:	20000813          	li	a6,512
    3444:	016407b3          	add	a5,s0,s6
    3448:	016a8733          	add	a4,s5,s6
    344c:	00078783          	lb	a5,0(a5)
    3450:	00070683          	lb	a3,0(a4)
    3454:	c63a                	sw	a4,12(sp)
    3456:	c43e                	sw	a5,8(sp)
    3458:	02f68d63          	beq	a3,a5,3492 <_Z18matmul_multi8_testv+0x3ae>
    345c:	10c00693          	li	a3,268
    3460:	ed4a0613          	addi	a2,s4,-300
    3464:	e2c98593          	addi	a1,s3,-468
    3468:	02090513          	addi	a0,s2,32
    346c:	07c050ef          	jal	84e8 <_Z7printf_PKcz>
    3470:	4732                	lw	a4,12(sp)
    3472:	47a2                	lw	a5,8(sp)
    3474:	85da                	mv	a1,s6
    3476:	00070683          	lb	a3,0(a4)
    347a:	863e                	mv	a2,a5
    347c:	630d8513          	addi	a0,s11,1584 # 10000630 <__rodata_start__+0xfff5538>
    3480:	068050ef          	jal	84e8 <_Z7printf_PKcz>
    3484:	05848513          	addi	a0,s1,88
    3488:	060050ef          	jal	84e8 <_Z7printf_PKcz>
    348c:	4d01                	li	s10,0
    348e:	20000813          	li	a6,512
    3492:	0b05                	addi	s6,s6,1
    3494:	fb0b18e3          	bne	s6,a6,3444 <_Z18matmul_multi8_testv+0x360>
    3498:	740d0863          	beqz	s10,3be8 <_Z18matmul_multi8_testv+0xb04>
    349c:	10e00693          	li	a3,270
    34a0:	ed4a0613          	addi	a2,s4,-300
    34a4:	e2c98593          	addi	a1,s3,-468
    34a8:	02090513          	addi	a0,s2,32
    34ac:	03c050ef          	jal	84e8 <_Z7printf_PKcz>
    34b0:	4841                	li	a6,16
    34b2:	02000793          	li	a5,32
    34b6:	46a1                	li	a3,8
    34b8:	10001537          	lui	a0,0x10001
    34bc:	8742                	mv	a4,a6
    34be:	8636                	mv	a2,a3
    34c0:	85be                	mv	a1,a5
    34c2:	e6c50513          	addi	a0,a0,-404 # 10000e6c <__rodata_start__+0xfff5d74>
    34c6:	022050ef          	jal	84e8 <_Z7printf_PKcz>
    34ca:	05848513          	addi	a0,s1,88
    34ce:	01a050ef          	jal	84e8 <_Z7printf_PKcz>
    34d2:	8566                	mv	a0,s9
    34d4:	3ef030ef          	jal	70c2 <_Z4freePv>
    34d8:	8562                	mv	a0,s8
    34da:	3e9030ef          	jal	70c2 <_Z4freePv>
    34de:	8556                	mv	a0,s5
    34e0:	3e3030ef          	jal	70c2 <_Z4freePv>
    34e4:	6505                	lui	a0,0x1
    34e6:	80050513          	addi	a0,a0,-2048 # 800 <_Z12test_fc_procv+0x278>
    34ea:	3cb030ef          	jal	70b4 <_Z6mallocj>
    34ee:	8c2a                	mv	s8,a0
    34f0:	40000513          	li	a0,1024
    34f4:	3c1030ef          	jal	70b4 <_Z6mallocj>
    34f8:	8b2a                	mv	s6,a0
    34fa:	6505                	lui	a0,0x1
    34fc:	80050513          	addi	a0,a0,-2048 # 800 <_Z12test_fc_procv+0x278>
    3500:	3b5030ef          	jal	70b4 <_Z6mallocj>
    3504:	017d7ab3          	and	s5,s10,s7
    3508:	8a2a                	mv	s4,a0
    350a:	4781                	li	a5,0
    350c:	1001a637          	lui	a2,0x1001a
    3510:	d7460713          	addi	a4,a2,-652 # 10019d74 <_ZZ18matmul_multi8_testvE4A_sa_2>
    3514:	973e                	add	a4,a4,a5
    3516:	00070683          	lb	a3,0(a4)
    351a:	00fc0733          	add	a4,s8,a5
    351e:	0785                	addi	a5,a5,1
    3520:	00d70023          	sb	a3,0(a4)
    3524:	80078713          	addi	a4,a5,-2048
    3528:	f765                	bnez	a4,3510 <_Z18matmul_multi8_testv+0x42c>
    352a:	10005737          	lui	a4,0x10005
    352e:	4781                	li	a5,0
    3530:	37470713          	addi	a4,a4,884 # 10005374 <_ZZ18matmul_multi8_testvE4B_sa_2>
    3534:	40000693          	li	a3,1024
    3538:	00f70633          	add	a2,a4,a5
    353c:	00060583          	lb	a1,0(a2)
    3540:	00fb0633          	add	a2,s6,a5
    3544:	0785                	addi	a5,a5,1
    3546:	00b60023          	sb	a1,0(a2)
    354a:	fed797e3          	bne	a5,a3,3538 <_Z18matmul_multi8_testv+0x454>
    354e:	4781                	li	a5,0
    3550:	00fa0733          	add	a4,s4,a5
    3554:	0785                	addi	a5,a5,1
    3556:	00070023          	sb	zero,0(a4)
    355a:	80078713          	addi	a4,a5,-2048
    355e:	fb6d                	bnez	a4,3550 <_Z18matmul_multi8_testv+0x46c>
    3560:	02000793          	li	a5,32
    3564:	873e                	mv	a4,a5
    3566:	04000693          	li	a3,64
    356a:	8652                	mv	a2,s4
    356c:	85da                	mv	a1,s6
    356e:	8562                	mv	a0,s8
    3570:	879ff0ef          	jal	2de8 <_Z13matmul_multi8PaS_S_iii>
    3574:	4401                	li	s0,0
    3576:	4b85                	li	s7,1
    3578:	10019d37          	lui	s10,0x10019
    357c:	10001db7          	lui	s11,0x10001
    3580:	10001737          	lui	a4,0x10001
    3584:	10000837          	lui	a6,0x10000
    3588:	100009b7          	lui	s3,0x10000
    358c:	10000cb7          	lui	s9,0x10000
    3590:	574d0793          	addi	a5,s10,1396 # 10019574 <_ZZ18matmul_multi8_testvE4D_sa_2>
    3594:	97a2                	add	a5,a5,s0
    3596:	008a0933          	add	s2,s4,s0
    359a:	00078483          	lb	s1,0(a5)
    359e:	00090783          	lb	a5,0(s2)
    35a2:	02978d63          	beq	a5,s1,35dc <_Z18matmul_multi8_testv+0x4f8>
    35a6:	e2c70593          	addi	a1,a4,-468 # 10000e2c <__rodata_start__+0xfff5d34>
    35aa:	02080513          	addi	a0,a6,32 # 10000020 <__rodata_start__+0xfff4f28>
    35ae:	1c800693          	li	a3,456
    35b2:	ed4d8613          	addi	a2,s11,-300 # 10000ed4 <__rodata_start__+0xfff5ddc>
    35b6:	733040ef          	jal	84e8 <_Z7printf_PKcz>
    35ba:	00090683          	lb	a3,0(s2)
    35be:	8626                	mv	a2,s1
    35c0:	85a2                	mv	a1,s0
    35c2:	63098513          	addi	a0,s3,1584 # 10000630 <__rodata_start__+0xfff5538>
    35c6:	723040ef          	jal	84e8 <_Z7printf_PKcz>
    35ca:	058c8513          	addi	a0,s9,88 # 10000058 <__rodata_start__+0xfff4f60>
    35ce:	71b040ef          	jal	84e8 <_Z7printf_PKcz>
    35d2:	4b81                	li	s7,0
    35d4:	10001737          	lui	a4,0x10001
    35d8:	10000837          	lui	a6,0x10000
    35dc:	0405                	addi	s0,s0,1
    35de:	80040793          	addi	a5,s0,-2048
    35e2:	f7dd                	bnez	a5,3590 <_Z18matmul_multi8_testv+0x4ac>
    35e4:	10001437          	lui	s0,0x10001
    35e8:	100014b7          	lui	s1,0x10001
    35ec:	10000937          	lui	s2,0x10000
    35f0:	100009b7          	lui	s3,0x10000
    35f4:	620b8163          	beqz	s7,3c16 <_Z18matmul_multi8_testv+0xb32>
    35f8:	1ca00693          	li	a3,458
    35fc:	ed440613          	addi	a2,s0,-300 # 10000ed4 <__rodata_start__+0xfff5ddc>
    3600:	e2c48593          	addi	a1,s1,-468 # 10000e2c <__rodata_start__+0xfff5d34>
    3604:	02090513          	addi	a0,s2,32 # 10000020 <__rodata_start__+0xfff4f28>
    3608:	6e1040ef          	jal	84e8 <_Z7printf_PKcz>
    360c:	02000813          	li	a6,32
    3610:	04000793          	li	a5,64
    3614:	10001537          	lui	a0,0x10001
    3618:	8742                	mv	a4,a6
    361a:	86c2                	mv	a3,a6
    361c:	8642                	mv	a2,a6
    361e:	85be                	mv	a1,a5
    3620:	e6c50513          	addi	a0,a0,-404 # 10000e6c <__rodata_start__+0xfff5d74>
    3624:	6c5040ef          	jal	84e8 <_Z7printf_PKcz>
    3628:	05898513          	addi	a0,s3,88 # 10000058 <__rodata_start__+0xfff4f60>
    362c:	6bd040ef          	jal	84e8 <_Z7printf_PKcz>
    3630:	8562                	mv	a0,s8
    3632:	291030ef          	jal	70c2 <_Z4freePv>
    3636:	855a                	mv	a0,s6
    3638:	28b030ef          	jal	70c2 <_Z4freePv>
    363c:	8552                	mv	a0,s4
    363e:	285030ef          	jal	70c2 <_Z4freePv>
    3642:	6509                	lui	a0,0x2
    3644:	271030ef          	jal	70b4 <_Z6mallocj>
    3648:	8d2a                	mv	s10,a0
    364a:	40000513          	li	a0,1024
    364e:	267030ef          	jal	70b4 <_Z6mallocj>
    3652:	8caa                	mv	s9,a0
    3654:	6505                	lui	a0,0x1
    3656:	80050513          	addi	a0,a0,-2048 # 800 <_Z12test_fc_procv+0x278>
    365a:	25b030ef          	jal	70b4 <_Z6mallocj>
    365e:	015bfbb3          	and	s7,s7,s5
    3662:	4781                	li	a5,0
    3664:	8aaa                	mv	s5,a0
    3666:	100175b7          	lui	a1,0x10017
    366a:	6689                	lui	a3,0x2
    366c:	57458713          	addi	a4,a1,1396 # 10017574 <_ZZ18matmul_multi8_testvE4A_sa_3>
    3670:	973e                	add	a4,a4,a5
    3672:	00070603          	lb	a2,0(a4) # 10001000 <__rodata_start__+0xfff5f08>
    3676:	00fd0733          	add	a4,s10,a5
    367a:	0785                	addi	a5,a5,1
    367c:	00c70023          	sb	a2,0(a4)
    3680:	fed796e3          	bne	a5,a3,366c <_Z18matmul_multi8_testv+0x588>
    3684:	10006a37          	lui	s4,0x10006
    3688:	cb4a0a13          	addi	s4,s4,-844 # 10005cb4 <_ZZ18matmul_multi8_testvE4D_sa_4+0x140>
    368c:	4781                	li	a5,0
    368e:	ac0a0593          	addi	a1,s4,-1344
    3692:	40000713          	li	a4,1024
    3696:	00f586b3          	add	a3,a1,a5
    369a:	00068603          	lb	a2,0(a3) # 2000 <_Z23minimum_conv_single_8x8PaS_S_S_a+0x1b0>
    369e:	00fc86b3          	add	a3,s9,a5
    36a2:	0785                	addi	a5,a5,1
    36a4:	00c68023          	sb	a2,0(a3)
    36a8:	fee797e3          	bne	a5,a4,3696 <_Z18matmul_multi8_testv+0x5b2>
    36ac:	4781                	li	a5,0
    36ae:	00fa8733          	add	a4,s5,a5
    36b2:	0785                	addi	a5,a5,1
    36b4:	00070023          	sb	zero,0(a4)
    36b8:	80078713          	addi	a4,a5,-2048
    36bc:	fb6d                	bnez	a4,36ae <_Z18matmul_multi8_testv+0x5ca>
    36be:	47c1                	li	a5,16
    36c0:	04000713          	li	a4,64
    36c4:	08000693          	li	a3,128
    36c8:	8656                	mv	a2,s5
    36ca:	85e6                	mv	a1,s9
    36cc:	856a                	mv	a0,s10
    36ce:	f1aff0ef          	jal	2de8 <_Z13matmul_multi8PaS_S_iii>
    36d2:	4b01                	li	s6,0
    36d4:	4c05                	li	s8,1
    36d6:	10017837          	lui	a6,0x10017
    36da:	10000db7          	lui	s11,0x10000
    36de:	d7480793          	addi	a5,a6,-652 # 10016d74 <_ZZ18matmul_multi8_testvE4D_sa_3>
    36e2:	97da                	add	a5,a5,s6
    36e4:	016a8733          	add	a4,s5,s6
    36e8:	00078783          	lb	a5,0(a5)
    36ec:	00070683          	lb	a3,0(a4)
    36f0:	c63a                	sw	a4,12(sp)
    36f2:	c43e                	sw	a5,8(sp)
    36f4:	02f68d63          	beq	a3,a5,372e <_Z18matmul_multi8_testv+0x64a>
    36f8:	32400693          	li	a3,804
    36fc:	ed440613          	addi	a2,s0,-300
    3700:	e2c48593          	addi	a1,s1,-468
    3704:	02090513          	addi	a0,s2,32
    3708:	5e1040ef          	jal	84e8 <_Z7printf_PKcz>
    370c:	4732                	lw	a4,12(sp)
    370e:	47a2                	lw	a5,8(sp)
    3710:	85da                	mv	a1,s6
    3712:	00070683          	lb	a3,0(a4)
    3716:	863e                	mv	a2,a5
    3718:	630d8513          	addi	a0,s11,1584 # 10000630 <__rodata_start__+0xfff5538>
    371c:	5cd040ef          	jal	84e8 <_Z7printf_PKcz>
    3720:	05898513          	addi	a0,s3,88
    3724:	5c5040ef          	jal	84e8 <_Z7printf_PKcz>
    3728:	4c01                	li	s8,0
    372a:	10017837          	lui	a6,0x10017
    372e:	0b05                	addi	s6,s6,1
    3730:	800b0793          	addi	a5,s6,-2048
    3734:	f7cd                	bnez	a5,36de <_Z18matmul_multi8_testv+0x5fa>
    3736:	500c0763          	beqz	s8,3c44 <_Z18matmul_multi8_testv+0xb60>
    373a:	32600693          	li	a3,806
    373e:	ed440613          	addi	a2,s0,-300
    3742:	e2c48593          	addi	a1,s1,-468
    3746:	02090513          	addi	a0,s2,32
    374a:	59f040ef          	jal	84e8 <_Z7printf_PKcz>
    374e:	4841                	li	a6,16
    3750:	08000793          	li	a5,128
    3754:	04000693          	li	a3,64
    3758:	10001537          	lui	a0,0x10001
    375c:	8742                	mv	a4,a6
    375e:	8636                	mv	a2,a3
    3760:	85be                	mv	a1,a5
    3762:	e6c50513          	addi	a0,a0,-404 # 10000e6c <__rodata_start__+0xfff5d74>
    3766:	583040ef          	jal	84e8 <_Z7printf_PKcz>
    376a:	05898513          	addi	a0,s3,88
    376e:	57b040ef          	jal	84e8 <_Z7printf_PKcz>
    3772:	856a                	mv	a0,s10
    3774:	14f030ef          	jal	70c2 <_Z4freePv>
    3778:	8566                	mv	a0,s9
    377a:	149030ef          	jal	70c2 <_Z4freePv>
    377e:	8556                	mv	a0,s5
    3780:	143030ef          	jal	70c2 <_Z4freePv>
    3784:	6505                	lui	a0,0x1
    3786:	80050513          	addi	a0,a0,-2048 # 800 <_Z12test_fc_procv+0x278>
    378a:	12b030ef          	jal	70b4 <_Z6mallocj>
    378e:	8d2a                	mv	s10,a0
    3790:	6509                	lui	a0,0x2
    3792:	123030ef          	jal	70b4 <_Z6mallocj>
    3796:	8caa                	mv	s9,a0
    3798:	40000513          	li	a0,1024
    379c:	119030ef          	jal	70b4 <_Z6mallocj>
    37a0:	017c7c33          	and	s8,s8,s7
    37a4:	8aaa                	mv	s5,a0
    37a6:	4781                	li	a5,0
    37a8:	10016637          	lui	a2,0x10016
    37ac:	57460713          	addi	a4,a2,1396 # 10016574 <_ZZ18matmul_multi8_testvE4A_sa_4>
    37b0:	973e                	add	a4,a4,a5
    37b2:	00070683          	lb	a3,0(a4)
    37b6:	00fd0733          	add	a4,s10,a5
    37ba:	0785                	addi	a5,a5,1
    37bc:	00d70023          	sb	a3,0(a4)
    37c0:	80078713          	addi	a4,a5,-2048
    37c4:	f765                	bnez	a4,37ac <_Z18matmul_multi8_testv+0x6c8>
    37c6:	4781                	li	a5,0
    37c8:	100145b7          	lui	a1,0x10014
    37cc:	6689                	lui	a3,0x2
    37ce:	57458713          	addi	a4,a1,1396 # 10014574 <_ZZ18matmul_multi8_testvE4B_sa_4>
    37d2:	973e                	add	a4,a4,a5
    37d4:	00070603          	lb	a2,0(a4)
    37d8:	00fc8733          	add	a4,s9,a5
    37dc:	0785                	addi	a5,a5,1
    37de:	00c70023          	sb	a2,0(a4)
    37e2:	fed796e3          	bne	a5,a3,37ce <_Z18matmul_multi8_testv+0x6ea>
    37e6:	4781                	li	a5,0
    37e8:	40000713          	li	a4,1024
    37ec:	00fa86b3          	add	a3,s5,a5
    37f0:	00068023          	sb	zero,0(a3) # 2000 <_Z23minimum_conv_single_8x8PaS_S_S_a+0x1b0>
    37f4:	0785                	addi	a5,a5,1
    37f6:	fee79be3          	bne	a5,a4,37ec <_Z18matmul_multi8_testv+0x708>
    37fa:	04000793          	li	a5,64
    37fe:	08000713          	li	a4,128
    3802:	46c1                	li	a3,16
    3804:	8656                	mv	a2,s5
    3806:	85e6                	mv	a1,s9
    3808:	856a                	mv	a0,s10
    380a:	ddeff0ef          	jal	2de8 <_Z13matmul_multi8PaS_S_iii>
    380e:	4b01                	li	s6,0
    3810:	4b85                	li	s7,1
    3812:	ec0a0893          	addi	a7,s4,-320
    3816:	10000db7          	lui	s11,0x10000
    381a:	40000813          	li	a6,1024
    381e:	016887b3          	add	a5,a7,s6
    3822:	016a8733          	add	a4,s5,s6
    3826:	00078783          	lb	a5,0(a5)
    382a:	00070683          	lb	a3,0(a4)
    382e:	c63a                	sw	a4,12(sp)
    3830:	c43e                	sw	a5,8(sp)
    3832:	04f68163          	beq	a3,a5,3874 <_Z18matmul_multi8_testv+0x790>
    3836:	3e000693          	li	a3,992
    383a:	ed440613          	addi	a2,s0,-300
    383e:	e2c48593          	addi	a1,s1,-468
    3842:	02090513          	addi	a0,s2,32
    3846:	4a3040ef          	jal	84e8 <_Z7printf_PKcz>
    384a:	4732                	lw	a4,12(sp)
    384c:	47a2                	lw	a5,8(sp)
    384e:	85da                	mv	a1,s6
    3850:	00070683          	lb	a3,0(a4)
    3854:	863e                	mv	a2,a5
    3856:	630d8513          	addi	a0,s11,1584 # 10000630 <__rodata_start__+0xfff5538>
    385a:	48f040ef          	jal	84e8 <_Z7printf_PKcz>
    385e:	05898513          	addi	a0,s3,88
    3862:	487040ef          	jal	84e8 <_Z7printf_PKcz>
    3866:	100067b7          	lui	a5,0x10006
    386a:	4b81                	li	s7,0
    386c:	40000813          	li	a6,1024
    3870:	b7478893          	addi	a7,a5,-1164 # 10005b74 <_ZZ18matmul_multi8_testvE4D_sa_4>
    3874:	0b05                	addi	s6,s6,1
    3876:	fb0b14e3          	bne	s6,a6,381e <_Z18matmul_multi8_testv+0x73a>
    387a:	3e0b8c63          	beqz	s7,3c72 <_Z18matmul_multi8_testv+0xb8e>
    387e:	3e200693          	li	a3,994
    3882:	ed440613          	addi	a2,s0,-300
    3886:	e2c48593          	addi	a1,s1,-468
    388a:	02090513          	addi	a0,s2,32
    388e:	45b040ef          	jal	84e8 <_Z7printf_PKcz>
    3892:	04000813          	li	a6,64
    3896:	47c1                	li	a5,16
    3898:	08000693          	li	a3,128
    389c:	10001537          	lui	a0,0x10001
    38a0:	8742                	mv	a4,a6
    38a2:	8636                	mv	a2,a3
    38a4:	85be                	mv	a1,a5
    38a6:	e6c50513          	addi	a0,a0,-404 # 10000e6c <__rodata_start__+0xfff5d74>
    38aa:	43f040ef          	jal	84e8 <_Z7printf_PKcz>
    38ae:	05898513          	addi	a0,s3,88
    38b2:	437040ef          	jal	84e8 <_Z7printf_PKcz>
    38b6:	856a                	mv	a0,s10
    38b8:	00b030ef          	jal	70c2 <_Z4freePv>
    38bc:	8566                	mv	a0,s9
    38be:	005030ef          	jal	70c2 <_Z4freePv>
    38c2:	8556                	mv	a0,s5
    38c4:	7fe030ef          	jal	70c2 <_Z4freePv>
    38c8:	40000513          	li	a0,1024
    38cc:	7e8030ef          	jal	70b4 <_Z6mallocj>
    38d0:	8caa                	mv	s9,a0
    38d2:	6509                	lui	a0,0x2
    38d4:	7e0030ef          	jal	70b4 <_Z6mallocj>
    38d8:	018bfbb3          	and	s7,s7,s8
    38dc:	8c2a                	mv	s8,a0
    38de:	20000513          	li	a0,512
    38e2:	7d2030ef          	jal	70b4 <_Z6mallocj>
    38e6:	8aaa                	mv	s5,a0
    38e8:	4781                	li	a5,0
    38ea:	2c0a0593          	addi	a1,s4,704
    38ee:	40000713          	li	a4,1024
    38f2:	00f586b3          	add	a3,a1,a5
    38f6:	00068603          	lb	a2,0(a3)
    38fa:	00fc86b3          	add	a3,s9,a5
    38fe:	0785                	addi	a5,a5,1
    3900:	00c68023          	sb	a2,0(a3)
    3904:	fee797e3          	bne	a5,a4,38f2 <_Z18matmul_multi8_testv+0x80e>
    3908:	4781                	li	a5,0
    390a:	100125b7          	lui	a1,0x10012
    390e:	6689                	lui	a3,0x2
    3910:	57458713          	addi	a4,a1,1396 # 10012574 <_ZZ18matmul_multi8_testvE4B_sa_5>
    3914:	973e                	add	a4,a4,a5
    3916:	00070603          	lb	a2,0(a4)
    391a:	00fc0733          	add	a4,s8,a5
    391e:	0785                	addi	a5,a5,1
    3920:	00c70023          	sb	a2,0(a4)
    3924:	fed796e3          	bne	a5,a3,3910 <_Z18matmul_multi8_testv+0x82c>
    3928:	4781                	li	a5,0
    392a:	20000713          	li	a4,512
    392e:	00fa86b3          	add	a3,s5,a5
    3932:	00068023          	sb	zero,0(a3) # 2000 <_Z23minimum_conv_single_8x8PaS_S_S_a+0x1b0>
    3936:	0785                	addi	a5,a5,1
    3938:	fee79be3          	bne	a5,a4,392e <_Z18matmul_multi8_testv+0x84a>
    393c:	04000793          	li	a5,64
    3940:	08000713          	li	a4,128
    3944:	46a1                	li	a3,8
    3946:	8656                	mv	a2,s5
    3948:	85e2                	mv	a1,s8
    394a:	8566                	mv	a0,s9
    394c:	c9cff0ef          	jal	2de8 <_Z13matmul_multi8PaS_S_iii>
    3950:	4d01                	li	s10,0
    3952:	4b05                	li	s6,1
    3954:	6c0a0a13          	addi	s4,s4,1728
    3958:	10000db7          	lui	s11,0x10000
    395c:	20000813          	li	a6,512
    3960:	01aa07b3          	add	a5,s4,s10
    3964:	01aa8733          	add	a4,s5,s10
    3968:	00078783          	lb	a5,0(a5)
    396c:	00070683          	lb	a3,0(a4)
    3970:	c63a                	sw	a4,12(sp)
    3972:	c43e                	sw	a5,8(sp)
    3974:	02f68d63          	beq	a3,a5,39ae <_Z18matmul_multi8_testv+0x8ca>
    3978:	48d00693          	li	a3,1165
    397c:	ed440613          	addi	a2,s0,-300
    3980:	e2c48593          	addi	a1,s1,-468
    3984:	02090513          	addi	a0,s2,32
    3988:	361040ef          	jal	84e8 <_Z7printf_PKcz>
    398c:	4732                	lw	a4,12(sp)
    398e:	47a2                	lw	a5,8(sp)
    3990:	85ea                	mv	a1,s10
    3992:	00070683          	lb	a3,0(a4)
    3996:	863e                	mv	a2,a5
    3998:	630d8513          	addi	a0,s11,1584 # 10000630 <__rodata_start__+0xfff5538>
    399c:	34d040ef          	jal	84e8 <_Z7printf_PKcz>
    39a0:	05898513          	addi	a0,s3,88
    39a4:	345040ef          	jal	84e8 <_Z7printf_PKcz>
    39a8:	4b01                	li	s6,0
    39aa:	20000813          	li	a6,512
    39ae:	0d05                	addi	s10,s10,1
    39b0:	fb0d18e3          	bne	s10,a6,3960 <_Z18matmul_multi8_testv+0x87c>
    39b4:	10001a37          	lui	s4,0x10001
    39b8:	100019b7          	lui	s3,0x10001
    39bc:	10000937          	lui	s2,0x10000
    39c0:	100004b7          	lui	s1,0x10000
    39c4:	2c0b0e63          	beqz	s6,3ca0 <_Z18matmul_multi8_testv+0xbbc>
    39c8:	48f00693          	li	a3,1167
    39cc:	ed4a0613          	addi	a2,s4,-300 # 10000ed4 <__rodata_start__+0xfff5ddc>
    39d0:	e2c98593          	addi	a1,s3,-468 # 10000e2c <__rodata_start__+0xfff5d34>
    39d4:	02090513          	addi	a0,s2,32 # 10000020 <__rodata_start__+0xfff4f28>
    39d8:	311040ef          	jal	84e8 <_Z7printf_PKcz>
    39dc:	04000813          	li	a6,64
    39e0:	47a1                	li	a5,8
    39e2:	08000693          	li	a3,128
    39e6:	10001537          	lui	a0,0x10001
    39ea:	8742                	mv	a4,a6
    39ec:	8636                	mv	a2,a3
    39ee:	85be                	mv	a1,a5
    39f0:	e6c50513          	addi	a0,a0,-404 # 10000e6c <__rodata_start__+0xfff5d74>
    39f4:	2f5040ef          	jal	84e8 <_Z7printf_PKcz>
    39f8:	05848513          	addi	a0,s1,88 # 10000058 <__rodata_start__+0xfff4f60>
    39fc:	2ed040ef          	jal	84e8 <_Z7printf_PKcz>
    3a00:	8566                	mv	a0,s9
    3a02:	6c0030ef          	jal	70c2 <_Z4freePv>
    3a06:	8562                	mv	a0,s8
    3a08:	6ba030ef          	jal	70c2 <_Z4freePv>
    3a0c:	8556                	mv	a0,s5
    3a0e:	6b4030ef          	jal	70c2 <_Z4freePv>
    3a12:	6511                	lui	a0,0x4
    3a14:	6a0030ef          	jal	70b4 <_Z6mallocj>
    3a18:	8caa                	mv	s9,a0
    3a1a:	6511                	lui	a0,0x4
    3a1c:	698030ef          	jal	70b4 <_Z6mallocj>
    3a20:	8c2a                	mv	s8,a0
    3a22:	6511                	lui	a0,0x4
    3a24:	690030ef          	jal	70b4 <_Z6mallocj>
    3a28:	017b7b33          	and	s6,s6,s7
    3a2c:	8aaa                	mv	s5,a0
    3a2e:	4781                	li	a5,0
    3a30:	1000e5b7          	lui	a1,0x1000e
    3a34:	6691                	lui	a3,0x4
    3a36:	57458713          	addi	a4,a1,1396 # 1000e574 <_ZZ18matmul_multi8_testvE4A_sa_6>
    3a3a:	973e                	add	a4,a4,a5
    3a3c:	00070603          	lb	a2,0(a4)
    3a40:	00fc8733          	add	a4,s9,a5
    3a44:	0785                	addi	a5,a5,1
    3a46:	00c70023          	sb	a2,0(a4)
    3a4a:	fed796e3          	bne	a5,a3,3a36 <_Z18matmul_multi8_testv+0x952>
    3a4e:	4781                	li	a5,0
    3a50:	1000a5b7          	lui	a1,0x1000a
    3a54:	6691                	lui	a3,0x4
    3a56:	57458713          	addi	a4,a1,1396 # 1000a574 <_ZZ18matmul_multi8_testvE4B_sa_6>
    3a5a:	973e                	add	a4,a4,a5
    3a5c:	00070603          	lb	a2,0(a4)
    3a60:	00fc0733          	add	a4,s8,a5
    3a64:	0785                	addi	a5,a5,1
    3a66:	00c70023          	sb	a2,0(a4)
    3a6a:	fed796e3          	bne	a5,a3,3a56 <_Z18matmul_multi8_testv+0x972>
    3a6e:	4781                	li	a5,0
    3a70:	6711                	lui	a4,0x4
    3a72:	00fa86b3          	add	a3,s5,a5
    3a76:	00068023          	sb	zero,0(a3) # 4000 <_Z17vsetcsr_testcase1v+0xb4>
    3a7a:	0785                	addi	a5,a5,1
    3a7c:	fee79be3          	bne	a5,a4,3a72 <_Z18matmul_multi8_testv+0x98e>
    3a80:	08000793          	li	a5,128
    3a84:	873e                	mv	a4,a5
    3a86:	86be                	mv	a3,a5
    3a88:	8656                	mv	a2,s5
    3a8a:	85e2                	mv	a1,s8
    3a8c:	8566                	mv	a0,s9
    3a8e:	b5aff0ef          	jal	2de8 <_Z13matmul_multi8PaS_S_iii>
    3a92:	4b81                	li	s7,0
    3a94:	4405                	li	s0,1
    3a96:	100068b7          	lui	a7,0x10006
    3a9a:	10000d37          	lui	s10,0x10000
    3a9e:	6811                	lui	a6,0x4
    3aa0:	57488793          	addi	a5,a7,1396 # 10006574 <_ZZ18matmul_multi8_testvE4D_sa_6>
    3aa4:	017a8733          	add	a4,s5,s7
    3aa8:	97de                	add	a5,a5,s7
    3aaa:	00078d83          	lb	s11,0(a5)
    3aae:	00070783          	lb	a5,0(a4) # 4000 <_Z17vsetcsr_testcase1v+0xb4>
    3ab2:	c43a                	sw	a4,8(sp)
    3ab4:	03b78d63          	beq	a5,s11,3aee <_Z18matmul_multi8_testv+0xa0a>
    3ab8:	62900693          	li	a3,1577
    3abc:	ed4a0613          	addi	a2,s4,-300
    3ac0:	e2c98593          	addi	a1,s3,-468
    3ac4:	02090513          	addi	a0,s2,32
    3ac8:	221040ef          	jal	84e8 <_Z7printf_PKcz>
    3acc:	4722                	lw	a4,8(sp)
    3ace:	866e                	mv	a2,s11
    3ad0:	85de                	mv	a1,s7
    3ad2:	00070683          	lb	a3,0(a4)
    3ad6:	630d0513          	addi	a0,s10,1584 # 10000630 <__rodata_start__+0xfff5538>
    3ada:	4401                	li	s0,0
    3adc:	20d040ef          	jal	84e8 <_Z7printf_PKcz>
    3ae0:	05848513          	addi	a0,s1,88
    3ae4:	205040ef          	jal	84e8 <_Z7printf_PKcz>
    3ae8:	6811                	lui	a6,0x4
    3aea:	100068b7          	lui	a7,0x10006
    3aee:	0b85                	addi	s7,s7,1
    3af0:	fb0b98e3          	bne	s7,a6,3aa0 <_Z18matmul_multi8_testv+0x9bc>
    3af4:	1c040d63          	beqz	s0,3cce <_Z18matmul_multi8_testv+0xbea>
    3af8:	62b00693          	li	a3,1579
    3afc:	ed4a0613          	addi	a2,s4,-300
    3b00:	e2c98593          	addi	a1,s3,-468
    3b04:	02090513          	addi	a0,s2,32
    3b08:	1e1040ef          	jal	84e8 <_Z7printf_PKcz>
    3b0c:	08000813          	li	a6,128
    3b10:	10001537          	lui	a0,0x10001
    3b14:	87c2                	mv	a5,a6
    3b16:	8742                	mv	a4,a6
    3b18:	86c2                	mv	a3,a6
    3b1a:	8642                	mv	a2,a6
    3b1c:	85c2                	mv	a1,a6
    3b1e:	e6c50513          	addi	a0,a0,-404 # 10000e6c <__rodata_start__+0xfff5d74>
    3b22:	1c7040ef          	jal	84e8 <_Z7printf_PKcz>
    3b26:	05848513          	addi	a0,s1,88
    3b2a:	1bf040ef          	jal	84e8 <_Z7printf_PKcz>
    3b2e:	8566                	mv	a0,s9
    3b30:	592030ef          	jal	70c2 <_Z4freePv>
    3b34:	8562                	mv	a0,s8
    3b36:	58c030ef          	jal	70c2 <_Z4freePv>
    3b3a:	8556                	mv	a0,s5
    3b3c:	586030ef          	jal	70c2 <_Z4freePv>
    3b40:	01647433          	and	s0,s0,s6
    3b44:	63500693          	li	a3,1589
    3b48:	ed4a0613          	addi	a2,s4,-300
    3b4c:	e2c98593          	addi	a1,s3,-468
    3b50:	02090513          	addi	a0,s2,32
    3b54:	195040ef          	jal	84e8 <_Z7printf_PKcz>
    3b58:	1a040163          	beqz	s0,3cfa <_Z18matmul_multi8_testv+0xc16>
    3b5c:	10001537          	lui	a0,0x10001
    3b60:	dc050513          	addi	a0,a0,-576 # 10000dc0 <__rodata_start__+0xfff5cc8>
    3b64:	185040ef          	jal	84e8 <_Z7printf_PKcz>
    3b68:	05848513          	addi	a0,s1,88
    3b6c:	17d040ef          	jal	84e8 <_Z7printf_PKcz>
    3b70:	40b6                	lw	ra,76(sp)
    3b72:	8522                	mv	a0,s0
    3b74:	4426                	lw	s0,72(sp)
    3b76:	4496                	lw	s1,68(sp)
    3b78:	4906                	lw	s2,64(sp)
    3b7a:	59f2                	lw	s3,60(sp)
    3b7c:	5a62                	lw	s4,56(sp)
    3b7e:	5ad2                	lw	s5,52(sp)
    3b80:	5b42                	lw	s6,48(sp)
    3b82:	5bb2                	lw	s7,44(sp)
    3b84:	5c22                	lw	s8,40(sp)
    3b86:	5c92                	lw	s9,36(sp)
    3b88:	5d02                	lw	s10,32(sp)
    3b8a:	4df2                	lw	s11,28(sp)
    3b8c:	6161                	addi	sp,sp,80
    3b8e:	8082                	ret
    3b90:	07000693          	li	a3,112
    3b94:	ed4a0613          	addi	a2,s4,-300
    3b98:	e2c98593          	addi	a1,s3,-468
    3b9c:	02090513          	addi	a0,s2,32
    3ba0:	149040ef          	jal	84e8 <_Z7printf_PKcz>
    3ba4:	4821                	li	a6,8
    3ba6:	10001537          	lui	a0,0x10001
    3baa:	87c2                	mv	a5,a6
    3bac:	8742                	mv	a4,a6
    3bae:	86c2                	mv	a3,a6
    3bb0:	8642                	mv	a2,a6
    3bb2:	85c2                	mv	a1,a6
    3bb4:	ea050513          	addi	a0,a0,-352 # 10000ea0 <__rodata_start__+0xfff5da8>
    3bb8:	e9eff06f          	j	3256 <_Z18matmul_multi8_testv+0x172>
    3bbc:	0ac00693          	li	a3,172
    3bc0:	ed4a0613          	addi	a2,s4,-300
    3bc4:	e2c98593          	addi	a1,s3,-468
    3bc8:	02090513          	addi	a0,s2,32
    3bcc:	11d040ef          	jal	84e8 <_Z7printf_PKcz>
    3bd0:	4821                	li	a6,8
    3bd2:	46c1                	li	a3,16
    3bd4:	10001537          	lui	a0,0x10001
    3bd8:	87c2                	mv	a5,a6
    3bda:	8742                	mv	a4,a6
    3bdc:	8636                	mv	a2,a3
    3bde:	85c2                	mv	a1,a6
    3be0:	ea050513          	addi	a0,a0,-352 # 10000ea0 <__rodata_start__+0xfff5da8>
    3be4:	faaff06f          	j	338e <_Z18matmul_multi8_testv+0x2aa>
    3be8:	11000693          	li	a3,272
    3bec:	ed4a0613          	addi	a2,s4,-300
    3bf0:	e2c98593          	addi	a1,s3,-468
    3bf4:	02090513          	addi	a0,s2,32
    3bf8:	0f1040ef          	jal	84e8 <_Z7printf_PKcz>
    3bfc:	4841                	li	a6,16
    3bfe:	02000793          	li	a5,32
    3c02:	46a1                	li	a3,8
    3c04:	10001537          	lui	a0,0x10001
    3c08:	8742                	mv	a4,a6
    3c0a:	8636                	mv	a2,a3
    3c0c:	85be                	mv	a1,a5
    3c0e:	ea050513          	addi	a0,a0,-352 # 10000ea0 <__rodata_start__+0xfff5da8>
    3c12:	8b5ff06f          	j	34c6 <_Z18matmul_multi8_testv+0x3e2>
    3c16:	1cc00693          	li	a3,460
    3c1a:	ed440613          	addi	a2,s0,-300
    3c1e:	e2c48593          	addi	a1,s1,-468
    3c22:	02090513          	addi	a0,s2,32
    3c26:	0c3040ef          	jal	84e8 <_Z7printf_PKcz>
    3c2a:	02000813          	li	a6,32
    3c2e:	04000793          	li	a5,64
    3c32:	10001537          	lui	a0,0x10001
    3c36:	8742                	mv	a4,a6
    3c38:	86c2                	mv	a3,a6
    3c3a:	8642                	mv	a2,a6
    3c3c:	85be                	mv	a1,a5
    3c3e:	ea050513          	addi	a0,a0,-352 # 10000ea0 <__rodata_start__+0xfff5da8>
    3c42:	b2cd                	j	3624 <_Z18matmul_multi8_testv+0x540>
    3c44:	32800693          	li	a3,808
    3c48:	ed440613          	addi	a2,s0,-300
    3c4c:	e2c48593          	addi	a1,s1,-468
    3c50:	02090513          	addi	a0,s2,32
    3c54:	095040ef          	jal	84e8 <_Z7printf_PKcz>
    3c58:	4841                	li	a6,16
    3c5a:	08000793          	li	a5,128
    3c5e:	04000693          	li	a3,64
    3c62:	10001537          	lui	a0,0x10001
    3c66:	8742                	mv	a4,a6
    3c68:	8636                	mv	a2,a3
    3c6a:	85be                	mv	a1,a5
    3c6c:	ea050513          	addi	a0,a0,-352 # 10000ea0 <__rodata_start__+0xfff5da8>
    3c70:	bcdd                	j	3766 <_Z18matmul_multi8_testv+0x682>
    3c72:	3e400693          	li	a3,996
    3c76:	ed440613          	addi	a2,s0,-300
    3c7a:	e2c48593          	addi	a1,s1,-468
    3c7e:	02090513          	addi	a0,s2,32
    3c82:	067040ef          	jal	84e8 <_Z7printf_PKcz>
    3c86:	04000813          	li	a6,64
    3c8a:	47c1                	li	a5,16
    3c8c:	08000693          	li	a3,128
    3c90:	10001537          	lui	a0,0x10001
    3c94:	8742                	mv	a4,a6
    3c96:	8636                	mv	a2,a3
    3c98:	85be                	mv	a1,a5
    3c9a:	ea050513          	addi	a0,a0,-352 # 10000ea0 <__rodata_start__+0xfff5da8>
    3c9e:	b131                	j	38aa <_Z18matmul_multi8_testv+0x7c6>
    3ca0:	49100693          	li	a3,1169
    3ca4:	ed4a0613          	addi	a2,s4,-300
    3ca8:	e2c98593          	addi	a1,s3,-468
    3cac:	02090513          	addi	a0,s2,32
    3cb0:	039040ef          	jal	84e8 <_Z7printf_PKcz>
    3cb4:	04000813          	li	a6,64
    3cb8:	47a1                	li	a5,8
    3cba:	08000693          	li	a3,128
    3cbe:	10001537          	lui	a0,0x10001
    3cc2:	8742                	mv	a4,a6
    3cc4:	8636                	mv	a2,a3
    3cc6:	85be                	mv	a1,a5
    3cc8:	ea050513          	addi	a0,a0,-352 # 10000ea0 <__rodata_start__+0xfff5da8>
    3ccc:	b325                	j	39f4 <_Z18matmul_multi8_testv+0x910>
    3cce:	62d00693          	li	a3,1581
    3cd2:	ed4a0613          	addi	a2,s4,-300
    3cd6:	e2c98593          	addi	a1,s3,-468
    3cda:	02090513          	addi	a0,s2,32
    3cde:	00b040ef          	jal	84e8 <_Z7printf_PKcz>
    3ce2:	08000813          	li	a6,128
    3ce6:	10001537          	lui	a0,0x10001
    3cea:	87c2                	mv	a5,a6
    3cec:	8742                	mv	a4,a6
    3cee:	86c2                	mv	a3,a6
    3cf0:	8642                	mv	a2,a6
    3cf2:	85c2                	mv	a1,a6
    3cf4:	ea050513          	addi	a0,a0,-352 # 10000ea0 <__rodata_start__+0xfff5da8>
    3cf8:	b52d                	j	3b22 <_Z18matmul_multi8_testv+0xa3e>
    3cfa:	10001537          	lui	a0,0x10001
    3cfe:	de850513          	addi	a0,a0,-536 # 10000de8 <__rodata_start__+0xfff5cf0>
    3d02:	b58d                	j	3b64 <_Z18matmul_multi8_testv+0xa80>

00003d04 <_Z16vorcsr_testcase1v>:
    3d04:	1101                	addi	sp,sp,-32
    3d06:	c256                	sw	s5,4(sp)
    3d08:	4aa9                	li	s5,10
    3d0a:	ce06                	sw	ra,28(sp)
    3d0c:	cc22                	sw	s0,24(sp)
    3d0e:	ca26                	sw	s1,20(sp)
    3d10:	c84a                	sw	s2,16(sp)
    3d12:	c64e                	sw	s3,12(sp)
    3d14:	c452                	sw	s4,8(sp)
    3d16:	101aa00b          	vsetcsr	zero,s5,257
    3d1a:	4a01                	li	s4,0
    3d1c:	101a3a0b          	vgetcsr	s4,s4,257
    3d20:	100019b7          	lui	s3,0x10001
    3d24:	10001937          	lui	s2,0x10001
    3d28:	100004b7          	lui	s1,0x10000
    3d2c:	10000437          	lui	s0,0x10000
    3d30:	055a0d63          	beq	s4,s5,3d8a <_Z16vorcsr_testcase1v+0x86>
    3d34:	ee898613          	addi	a2,s3,-280 # 10000ee8 <__rodata_start__+0xfff5df0>
    3d38:	02800693          	li	a3,40
    3d3c:	efc90593          	addi	a1,s2,-260 # 10000efc <__rodata_start__+0xfff5e04>
    3d40:	02048513          	addi	a0,s1,32 # 10000020 <__rodata_start__+0xfff4f28>
    3d44:	7a4040ef          	jal	84e8 <_Z7printf_PKcz>
    3d48:	10000537          	lui	a0,0x10000
    3d4c:	85d2                	mv	a1,s4
    3d4e:	58050513          	addi	a0,a0,1408 # 10000580 <__rodata_start__+0xfff5488>
    3d52:	796040ef          	jal	84e8 <_Z7printf_PKcz>
    3d56:	05840513          	addi	a0,s0,88 # 10000058 <__rodata_start__+0xfff4f60>
    3d5a:	78e040ef          	jal	84e8 <_Z7printf_PKcz>
    3d5e:	02900693          	li	a3,41
    3d62:	ee898613          	addi	a2,s3,-280
    3d66:	efc90593          	addi	a1,s2,-260
    3d6a:	02048513          	addi	a0,s1,32
    3d6e:	77a040ef          	jal	84e8 <_Z7printf_PKcz>
    3d72:	10001537          	lui	a0,0x10001
    3d76:	85d6                	mv	a1,s5
    3d78:	f1050513          	addi	a0,a0,-240 # 10000f10 <__rodata_start__+0xfff5e18>
    3d7c:	76c040ef          	jal	84e8 <_Z7printf_PKcz>
    3d80:	05840513          	addi	a0,s0,88
    3d84:	764040ef          	jal	84e8 <_Z7printf_PKcz>
    3d88:	9002                	ebreak
    3d8a:	4aad                	li	s5,11
    3d8c:	101a878b          	vorcsr	a5,s5,257
    3d90:	4a01                	li	s4,0
    3d92:	101a3a0b          	vgetcsr	s4,s4,257
    3d96:	055a0d63          	beq	s4,s5,3df0 <_Z16vorcsr_testcase1v+0xec>
    3d9a:	ee898613          	addi	a2,s3,-280
    3d9e:	02f00693          	li	a3,47
    3da2:	efc90593          	addi	a1,s2,-260
    3da6:	02048513          	addi	a0,s1,32
    3daa:	73e040ef          	jal	84e8 <_Z7printf_PKcz>
    3dae:	10000537          	lui	a0,0x10000
    3db2:	85d2                	mv	a1,s4
    3db4:	58050513          	addi	a0,a0,1408 # 10000580 <__rodata_start__+0xfff5488>
    3db8:	730040ef          	jal	84e8 <_Z7printf_PKcz>
    3dbc:	05840513          	addi	a0,s0,88
    3dc0:	728040ef          	jal	84e8 <_Z7printf_PKcz>
    3dc4:	03000693          	li	a3,48
    3dc8:	ee898613          	addi	a2,s3,-280
    3dcc:	efc90593          	addi	a1,s2,-260
    3dd0:	02048513          	addi	a0,s1,32
    3dd4:	714040ef          	jal	84e8 <_Z7printf_PKcz>
    3dd8:	10001537          	lui	a0,0x10001
    3ddc:	85d6                	mv	a1,s5
    3dde:	f1050513          	addi	a0,a0,-240 # 10000f10 <__rodata_start__+0xfff5e18>
    3de2:	706040ef          	jal	84e8 <_Z7printf_PKcz>
    3de6:	05840513          	addi	a0,s0,88
    3dea:	6fe040ef          	jal	84e8 <_Z7printf_PKcz>
    3dee:	9002                	ebreak
    3df0:	ee898613          	addi	a2,s3,-280
    3df4:	efc90593          	addi	a1,s2,-260
    3df8:	03300693          	li	a3,51
    3dfc:	02048513          	addi	a0,s1,32
    3e00:	6e8040ef          	jal	84e8 <_Z7printf_PKcz>
    3e04:	10001537          	lui	a0,0x10001
    3e08:	f2c50513          	addi	a0,a0,-212 # 10000f2c <__rodata_start__+0xfff5e34>
    3e0c:	6dc040ef          	jal	84e8 <_Z7printf_PKcz>
    3e10:	05840513          	addi	a0,s0,88
    3e14:	4462                	lw	s0,24(sp)
    3e16:	40f2                	lw	ra,28(sp)
    3e18:	44d2                	lw	s1,20(sp)
    3e1a:	4942                	lw	s2,16(sp)
    3e1c:	49b2                	lw	s3,12(sp)
    3e1e:	4a22                	lw	s4,8(sp)
    3e20:	4a92                	lw	s5,4(sp)
    3e22:	6105                	addi	sp,sp,32
    3e24:	6c40406f          	j	84e8 <_Z7printf_PKcz>

00003e28 <_Z17vandcsr_testcase1v>:
    3e28:	1101                	addi	sp,sp,-32
    3e2a:	c256                	sw	s5,4(sp)
    3e2c:	4aad                	li	s5,11
    3e2e:	ce06                	sw	ra,28(sp)
    3e30:	cc22                	sw	s0,24(sp)
    3e32:	ca26                	sw	s1,20(sp)
    3e34:	c84a                	sw	s2,16(sp)
    3e36:	c64e                	sw	s3,12(sp)
    3e38:	c452                	sw	s4,8(sp)
    3e3a:	101aa00b          	vsetcsr	zero,s5,257
    3e3e:	4a01                	li	s4,0
    3e40:	101a3a0b          	vgetcsr	s4,s4,257
    3e44:	100019b7          	lui	s3,0x10001
    3e48:	10001937          	lui	s2,0x10001
    3e4c:	100004b7          	lui	s1,0x10000
    3e50:	10000437          	lui	s0,0x10000
    3e54:	055a0d63          	beq	s4,s5,3eae <_Z17vandcsr_testcase1v+0x86>
    3e58:	f3c98613          	addi	a2,s3,-196 # 10000f3c <__rodata_start__+0xfff5e44>
    3e5c:	03e00693          	li	a3,62
    3e60:	efc90593          	addi	a1,s2,-260 # 10000efc <__rodata_start__+0xfff5e04>
    3e64:	02048513          	addi	a0,s1,32 # 10000020 <__rodata_start__+0xfff4f28>
    3e68:	680040ef          	jal	84e8 <_Z7printf_PKcz>
    3e6c:	10000537          	lui	a0,0x10000
    3e70:	85d2                	mv	a1,s4
    3e72:	58050513          	addi	a0,a0,1408 # 10000580 <__rodata_start__+0xfff5488>
    3e76:	672040ef          	jal	84e8 <_Z7printf_PKcz>
    3e7a:	05840513          	addi	a0,s0,88 # 10000058 <__rodata_start__+0xfff4f60>
    3e7e:	66a040ef          	jal	84e8 <_Z7printf_PKcz>
    3e82:	03f00693          	li	a3,63
    3e86:	f3c98613          	addi	a2,s3,-196
    3e8a:	efc90593          	addi	a1,s2,-260
    3e8e:	02048513          	addi	a0,s1,32
    3e92:	656040ef          	jal	84e8 <_Z7printf_PKcz>
    3e96:	10001537          	lui	a0,0x10001
    3e9a:	85d6                	mv	a1,s5
    3e9c:	f1050513          	addi	a0,a0,-240 # 10000f10 <__rodata_start__+0xfff5e18>
    3ea0:	648040ef          	jal	84e8 <_Z7printf_PKcz>
    3ea4:	05840513          	addi	a0,s0,88
    3ea8:	640040ef          	jal	84e8 <_Z7printf_PKcz>
    3eac:	9002                	ebreak
    3eae:	4aa9                	li	s5,10
    3eb0:	101a978b          	vandcsr	a5,s5,257
    3eb4:	4a01                	li	s4,0
    3eb6:	101a3a0b          	vgetcsr	s4,s4,257
    3eba:	055a0d63          	beq	s4,s5,3f14 <_Z17vandcsr_testcase1v+0xec>
    3ebe:	f3c98613          	addi	a2,s3,-196
    3ec2:	04500693          	li	a3,69
    3ec6:	efc90593          	addi	a1,s2,-260
    3eca:	02048513          	addi	a0,s1,32
    3ece:	61a040ef          	jal	84e8 <_Z7printf_PKcz>
    3ed2:	10000537          	lui	a0,0x10000
    3ed6:	85d2                	mv	a1,s4
    3ed8:	58050513          	addi	a0,a0,1408 # 10000580 <__rodata_start__+0xfff5488>
    3edc:	60c040ef          	jal	84e8 <_Z7printf_PKcz>
    3ee0:	05840513          	addi	a0,s0,88
    3ee4:	604040ef          	jal	84e8 <_Z7printf_PKcz>
    3ee8:	04600693          	li	a3,70
    3eec:	f3c98613          	addi	a2,s3,-196
    3ef0:	efc90593          	addi	a1,s2,-260
    3ef4:	02048513          	addi	a0,s1,32
    3ef8:	5f0040ef          	jal	84e8 <_Z7printf_PKcz>
    3efc:	10001537          	lui	a0,0x10001
    3f00:	85d6                	mv	a1,s5
    3f02:	f1050513          	addi	a0,a0,-240 # 10000f10 <__rodata_start__+0xfff5e18>
    3f06:	5e2040ef          	jal	84e8 <_Z7printf_PKcz>
    3f0a:	05840513          	addi	a0,s0,88
    3f0e:	5da040ef          	jal	84e8 <_Z7printf_PKcz>
    3f12:	9002                	ebreak
    3f14:	f3c98613          	addi	a2,s3,-196
    3f18:	efc90593          	addi	a1,s2,-260
    3f1c:	04900693          	li	a3,73
    3f20:	02048513          	addi	a0,s1,32
    3f24:	5c4040ef          	jal	84e8 <_Z7printf_PKcz>
    3f28:	10001537          	lui	a0,0x10001
    3f2c:	f5050513          	addi	a0,a0,-176 # 10000f50 <__rodata_start__+0xfff5e58>
    3f30:	5b8040ef          	jal	84e8 <_Z7printf_PKcz>
    3f34:	05840513          	addi	a0,s0,88
    3f38:	4462                	lw	s0,24(sp)
    3f3a:	40f2                	lw	ra,28(sp)
    3f3c:	44d2                	lw	s1,20(sp)
    3f3e:	4942                	lw	s2,16(sp)
    3f40:	49b2                	lw	s3,12(sp)
    3f42:	4a22                	lw	s4,8(sp)
    3f44:	4a92                	lw	s5,4(sp)
    3f46:	6105                	addi	sp,sp,32
    3f48:	5a00406f          	j	84e8 <_Z7printf_PKcz>

00003f4c <_Z17vsetcsr_testcase1v>:
    3f4c:	1101                	addi	sp,sp,-32
    3f4e:	c256                	sw	s5,4(sp)
    3f50:	4aa9                	li	s5,10
    3f52:	ce06                	sw	ra,28(sp)
    3f54:	cc22                	sw	s0,24(sp)
    3f56:	ca26                	sw	s1,20(sp)
    3f58:	c84a                	sw	s2,16(sp)
    3f5a:	c64e                	sw	s3,12(sp)
    3f5c:	c452                	sw	s4,8(sp)
    3f5e:	101aa00b          	vsetcsr	zero,s5,257
    3f62:	4a01                	li	s4,0
    3f64:	101a3a0b          	vgetcsr	s4,s4,257
    3f68:	100019b7          	lui	s3,0x10001
    3f6c:	10001937          	lui	s2,0x10001
    3f70:	100004b7          	lui	s1,0x10000
    3f74:	10000437          	lui	s0,0x10000
    3f78:	055a0d63          	beq	s4,s5,3fd2 <_Z17vsetcsr_testcase1v+0x86>
    3f7c:	f6098613          	addi	a2,s3,-160 # 10000f60 <__rodata_start__+0xfff5e68>
    3f80:	05400693          	li	a3,84
    3f84:	efc90593          	addi	a1,s2,-260 # 10000efc <__rodata_start__+0xfff5e04>
    3f88:	02048513          	addi	a0,s1,32 # 10000020 <__rodata_start__+0xfff4f28>
    3f8c:	55c040ef          	jal	84e8 <_Z7printf_PKcz>
    3f90:	10000537          	lui	a0,0x10000
    3f94:	85d2                	mv	a1,s4
    3f96:	58050513          	addi	a0,a0,1408 # 10000580 <__rodata_start__+0xfff5488>
    3f9a:	54e040ef          	jal	84e8 <_Z7printf_PKcz>
    3f9e:	05840513          	addi	a0,s0,88 # 10000058 <__rodata_start__+0xfff4f60>
    3fa2:	546040ef          	jal	84e8 <_Z7printf_PKcz>
    3fa6:	05500693          	li	a3,85
    3faa:	f6098613          	addi	a2,s3,-160
    3fae:	efc90593          	addi	a1,s2,-260
    3fb2:	02048513          	addi	a0,s1,32
    3fb6:	532040ef          	jal	84e8 <_Z7printf_PKcz>
    3fba:	10001537          	lui	a0,0x10001
    3fbe:	85d6                	mv	a1,s5
    3fc0:	f1050513          	addi	a0,a0,-240 # 10000f10 <__rodata_start__+0xfff5e18>
    3fc4:	524040ef          	jal	84e8 <_Z7printf_PKcz>
    3fc8:	05840513          	addi	a0,s0,88
    3fcc:	51c040ef          	jal	84e8 <_Z7printf_PKcz>
    3fd0:	9002                	ebreak
    3fd2:	4aad                	li	s5,11
    3fd4:	101aa00b          	vsetcsr	zero,s5,257
    3fd8:	4a01                	li	s4,0
    3fda:	101a3a0b          	vgetcsr	s4,s4,257
    3fde:	055a0d63          	beq	s4,s5,4038 <_Z17vsetcsr_testcase1v+0xec>
    3fe2:	f6098613          	addi	a2,s3,-160
    3fe6:	05b00693          	li	a3,91
    3fea:	efc90593          	addi	a1,s2,-260
    3fee:	02048513          	addi	a0,s1,32
    3ff2:	4f6040ef          	jal	84e8 <_Z7printf_PKcz>
    3ff6:	10000537          	lui	a0,0x10000
    3ffa:	85d2                	mv	a1,s4
    3ffc:	58050513          	addi	a0,a0,1408 # 10000580 <__rodata_start__+0xfff5488>
    4000:	4e8040ef          	jal	84e8 <_Z7printf_PKcz>
    4004:	05840513          	addi	a0,s0,88
    4008:	4e0040ef          	jal	84e8 <_Z7printf_PKcz>
    400c:	05c00693          	li	a3,92
    4010:	f6098613          	addi	a2,s3,-160
    4014:	efc90593          	addi	a1,s2,-260
    4018:	02048513          	addi	a0,s1,32
    401c:	4cc040ef          	jal	84e8 <_Z7printf_PKcz>
    4020:	10001537          	lui	a0,0x10001
    4024:	85d6                	mv	a1,s5
    4026:	f1050513          	addi	a0,a0,-240 # 10000f10 <__rodata_start__+0xfff5e18>
    402a:	4be040ef          	jal	84e8 <_Z7printf_PKcz>
    402e:	05840513          	addi	a0,s0,88
    4032:	4b6040ef          	jal	84e8 <_Z7printf_PKcz>
    4036:	9002                	ebreak
    4038:	f6098613          	addi	a2,s3,-160
    403c:	efc90593          	addi	a1,s2,-260
    4040:	05f00693          	li	a3,95
    4044:	02048513          	addi	a0,s1,32
    4048:	4a0040ef          	jal	84e8 <_Z7printf_PKcz>
    404c:	10001537          	lui	a0,0x10001
    4050:	f7450513          	addi	a0,a0,-140 # 10000f74 <__rodata_start__+0xfff5e7c>
    4054:	494040ef          	jal	84e8 <_Z7printf_PKcz>
    4058:	05840513          	addi	a0,s0,88
    405c:	4462                	lw	s0,24(sp)
    405e:	40f2                	lw	ra,28(sp)
    4060:	44d2                	lw	s1,20(sp)
    4062:	4942                	lw	s2,16(sp)
    4064:	49b2                	lw	s3,12(sp)
    4066:	4a22                	lw	s4,8(sp)
    4068:	4a92                	lw	s5,4(sp)
    406a:	6105                	addi	sp,sp,32
    406c:	47c0406f          	j	84e8 <_Z7printf_PKcz>

00004070 <_Z17vgetcsr_testcase1v>:
    4070:	1101                	addi	sp,sp,-32
    4072:	c256                	sw	s5,4(sp)
    4074:	4aa9                	li	s5,10
    4076:	ce06                	sw	ra,28(sp)
    4078:	cc22                	sw	s0,24(sp)
    407a:	ca26                	sw	s1,20(sp)
    407c:	c84a                	sw	s2,16(sp)
    407e:	c64e                	sw	s3,12(sp)
    4080:	c452                	sw	s4,8(sp)
    4082:	101aa00b          	vsetcsr	zero,s5,257
    4086:	4a01                	li	s4,0
    4088:	101a3a0b          	vgetcsr	s4,s4,257
    408c:	100019b7          	lui	s3,0x10001
    4090:	10001937          	lui	s2,0x10001
    4094:	100004b7          	lui	s1,0x10000
    4098:	10000437          	lui	s0,0x10000
    409c:	055a0d63          	beq	s4,s5,40f6 <_Z17vgetcsr_testcase1v+0x86>
    40a0:	f8498613          	addi	a2,s3,-124 # 10000f84 <__rodata_start__+0xfff5e8c>
    40a4:	06a00693          	li	a3,106
    40a8:	efc90593          	addi	a1,s2,-260 # 10000efc <__rodata_start__+0xfff5e04>
    40ac:	02048513          	addi	a0,s1,32 # 10000020 <__rodata_start__+0xfff4f28>
    40b0:	438040ef          	jal	84e8 <_Z7printf_PKcz>
    40b4:	10000537          	lui	a0,0x10000
    40b8:	85d2                	mv	a1,s4
    40ba:	58050513          	addi	a0,a0,1408 # 10000580 <__rodata_start__+0xfff5488>
    40be:	42a040ef          	jal	84e8 <_Z7printf_PKcz>
    40c2:	05840513          	addi	a0,s0,88 # 10000058 <__rodata_start__+0xfff4f60>
    40c6:	422040ef          	jal	84e8 <_Z7printf_PKcz>
    40ca:	06b00693          	li	a3,107
    40ce:	f8498613          	addi	a2,s3,-124
    40d2:	efc90593          	addi	a1,s2,-260
    40d6:	02048513          	addi	a0,s1,32
    40da:	40e040ef          	jal	84e8 <_Z7printf_PKcz>
    40de:	10001537          	lui	a0,0x10001
    40e2:	85d6                	mv	a1,s5
    40e4:	f1050513          	addi	a0,a0,-240 # 10000f10 <__rodata_start__+0xfff5e18>
    40e8:	400040ef          	jal	84e8 <_Z7printf_PKcz>
    40ec:	05840513          	addi	a0,s0,88
    40f0:	3f8040ef          	jal	84e8 <_Z7printf_PKcz>
    40f4:	9002                	ebreak
    40f6:	4aad                	li	s5,11
    40f8:	101aa00b          	vsetcsr	zero,s5,257
    40fc:	4a01                	li	s4,0
    40fe:	101a3a0b          	vgetcsr	s4,s4,257
    4102:	055a0d63          	beq	s4,s5,415c <_Z17vgetcsr_testcase1v+0xec>
    4106:	f8498613          	addi	a2,s3,-124
    410a:	07100693          	li	a3,113
    410e:	efc90593          	addi	a1,s2,-260
    4112:	02048513          	addi	a0,s1,32
    4116:	3d2040ef          	jal	84e8 <_Z7printf_PKcz>
    411a:	10000537          	lui	a0,0x10000
    411e:	85d2                	mv	a1,s4
    4120:	58050513          	addi	a0,a0,1408 # 10000580 <__rodata_start__+0xfff5488>
    4124:	3c4040ef          	jal	84e8 <_Z7printf_PKcz>
    4128:	05840513          	addi	a0,s0,88
    412c:	3bc040ef          	jal	84e8 <_Z7printf_PKcz>
    4130:	07200693          	li	a3,114
    4134:	f8498613          	addi	a2,s3,-124
    4138:	efc90593          	addi	a1,s2,-260
    413c:	02048513          	addi	a0,s1,32
    4140:	3a8040ef          	jal	84e8 <_Z7printf_PKcz>
    4144:	10001537          	lui	a0,0x10001
    4148:	85d6                	mv	a1,s5
    414a:	f1050513          	addi	a0,a0,-240 # 10000f10 <__rodata_start__+0xfff5e18>
    414e:	39a040ef          	jal	84e8 <_Z7printf_PKcz>
    4152:	05840513          	addi	a0,s0,88
    4156:	392040ef          	jal	84e8 <_Z7printf_PKcz>
    415a:	9002                	ebreak
    415c:	f8498613          	addi	a2,s3,-124
    4160:	efc90593          	addi	a1,s2,-260
    4164:	07500693          	li	a3,117
    4168:	02048513          	addi	a0,s1,32
    416c:	37c040ef          	jal	84e8 <_Z7printf_PKcz>
    4170:	10001537          	lui	a0,0x10001
    4174:	f9850513          	addi	a0,a0,-104 # 10000f98 <__rodata_start__+0xfff5ea0>
    4178:	370040ef          	jal	84e8 <_Z7printf_PKcz>
    417c:	05840513          	addi	a0,s0,88
    4180:	4462                	lw	s0,24(sp)
    4182:	40f2                	lw	ra,28(sp)
    4184:	44d2                	lw	s1,20(sp)
    4186:	4942                	lw	s2,16(sp)
    4188:	49b2                	lw	s3,12(sp)
    418a:	4a22                	lw	s4,8(sp)
    418c:	4a92                	lw	s5,4(sp)
    418e:	6105                	addi	sp,sp,32
    4190:	3580406f          	j	84e8 <_Z7printf_PKcz>

00004194 <_Z14vadd_testcase1v>:
    4194:	7139                	addi	sp,sp,-64
    4196:	dc22                	sw	s0,56(sp)
    4198:	de06                	sw	ra,60(sp)
    419a:	da26                	sw	s1,52(sp)
    419c:	d84a                	sw	s2,48(sp)
    419e:	d64e                	sw	s3,44(sp)
    41a0:	d452                	sw	s4,40(sp)
    41a2:	d256                	sw	s5,36(sp)
    41a4:	d05a                	sw	s6,32(sp)
    41a6:	ce5e                	sw	s7,28(sp)
    41a8:	cc62                	sw	s8,24(sp)
    41aa:	ca66                	sw	s9,20(sp)
    41ac:	c86a                	sw	s10,16(sp)
    41ae:	c66e                	sw	s11,12(sp)
    41b0:	4781                	li	a5,0
    41b2:	1001d437          	lui	s0,0x1001d
    41b6:	10000693          	li	a3,256
    41ba:	04040713          	addi	a4,s0,64 # 1001d040 <waddr>
    41be:	973e                	add	a4,a4,a5
    41c0:	00070023          	sb	zero,0(a4)
    41c4:	0785                	addi	a5,a5,1
    41c6:	04040c13          	addi	s8,s0,64
    41ca:	fed798e3          	bne	a5,a3,41ba <_Z14vadd_testcase1v+0x26>
    41ce:	70000793          	li	a5,1792
    41d2:	1047a00b          	vsetcsr	zero,a5,260
    41d6:	08000793          	li	a5,128
    41da:	1057a00b          	vsetcsr	zero,a5,261
    41de:	57fd                	li	a5,-1
    41e0:	1067a00b          	vsetcsr	zero,a5,262
    41e4:	103c200b          	vsetcsr	zero,s8,259
    41e8:	1001dab7          	lui	s5,0x1001d
    41ec:	d30a8d13          	addi	s10,s5,-720 # 1001cd30 <raddr1>
    41f0:	100c0c93          	addi	s9,s8,256
    41f4:	019d006b          	vadd	zero,s10,s9
    41f8:	04040993          	addi	s3,s0,64
    41fc:	d30a8913          	addi	s2,s5,-720
    4200:	84e6                	mv	s1,s9
    4202:	8de6                	mv	s11,s9
    4204:	d30a8a93          	addi	s5,s5,-720
    4208:	04040413          	addi	s0,s0,64
    420c:	4a01                	li	s4,0
    420e:	100018b7          	lui	a7,0x10001
    4212:	10001337          	lui	t1,0x10001
    4216:	10000e37          	lui	t3,0x10000
    421a:	10001b37          	lui	s6,0x10001
    421e:	10000bb7          	lui	s7,0x10000
    4222:	4841                	li	a6,16
    4224:	000d8703          	lb	a4,0(s11)
    4228:	000a8783          	lb	a5,0(s5)
    422c:	97ba                	add	a5,a5,a4
    422e:	00040703          	lb	a4,0(s0)
    4232:	8fb9                	xor	a5,a5,a4
    4234:	0ff7f793          	zext.b	a5,a5
    4238:	c7b9                	beqz	a5,4286 <_Z14vadd_testcase1v+0xf2>
    423a:	fa888613          	addi	a2,a7,-88 # 10000fa8 <__rodata_start__+0xfff5eb0>
    423e:	efc30593          	addi	a1,t1,-260 # 10000efc <__rodata_start__+0xfff5e04>
    4242:	020e0513          	addi	a0,t3,32 # 10000020 <__rodata_start__+0xfff4f28>
    4246:	08b00693          	li	a3,139
    424a:	29e040ef          	jal	84e8 <_Z7printf_PKcz>
    424e:	000d8703          	lb	a4,0(s11)
    4252:	000a8783          	lb	a5,0(s5)
    4256:	86d2                	mv	a3,s4
    4258:	8652                	mv	a2,s4
    425a:	97ba                	add	a5,a5,a4
    425c:	00044703          	lbu	a4,0(s0)
    4260:	0ff7f793          	zext.b	a5,a5
    4264:	85d2                	mv	a1,s4
    4266:	fb8b0513          	addi	a0,s6,-72 # 10000fb8 <__rodata_start__+0xfff5ec0>
    426a:	27e040ef          	jal	84e8 <_Z7printf_PKcz>
    426e:	058b8513          	addi	a0,s7,88 # 10000058 <__rodata_start__+0xfff4f60>
    4272:	276040ef          	jal	84e8 <_Z7printf_PKcz>
    4276:	9002                	ebreak
    4278:	4841                	li	a6,16
    427a:	100018b7          	lui	a7,0x10001
    427e:	10001337          	lui	t1,0x10001
    4282:	10000e37          	lui	t3,0x10000
    4286:	0a05                	addi	s4,s4,1
    4288:	0405                	addi	s0,s0,1
    428a:	0a85                	addi	s5,s5,1
    428c:	0d85                	addi	s11,s11,1
    428e:	f90a1be3          	bne	s4,a6,4224 <_Z14vadd_testcase1v+0x90>
    4292:	4781                	li	a5,0
    4294:	10000713          	li	a4,256
    4298:	00fc06b3          	add	a3,s8,a5
    429c:	00068023          	sb	zero,0(a3)
    42a0:	0785                	addi	a5,a5,1
    42a2:	fee79be3          	bne	a5,a4,4298 <_Z14vadd_testcase1v+0x104>
    42a6:	70000793          	li	a5,1792
    42aa:	1047a00b          	vsetcsr	zero,a5,260
    42ae:	6785                	lui	a5,0x1
    42b0:	80078793          	addi	a5,a5,-2048 # 800 <_Z12test_fc_procv+0x278>
    42b4:	1057a00b          	vsetcsr	zero,a5,261
    42b8:	57fd                	li	a5,-1
    42ba:	1067a00b          	vsetcsr	zero,a5,262
    42be:	103c200b          	vsetcsr	zero,s8,259
    42c2:	019d006b          	vadd	zero,s10,s9
    42c6:	4401                	li	s0,0
    42c8:	10001bb7          	lui	s7,0x10001
    42cc:	10001c37          	lui	s8,0x10001
    42d0:	10000cb7          	lui	s9,0x10000
    42d4:	10001a37          	lui	s4,0x10001
    42d8:	10000ab7          	lui	s5,0x10000
    42dc:	10000b13          	li	s6,256
    42e0:	00048703          	lb	a4,0(s1)
    42e4:	00090783          	lb	a5,0(s2)
    42e8:	97ba                	add	a5,a5,a4
    42ea:	00098703          	lb	a4,0(s3)
    42ee:	8fb9                	xor	a5,a5,a4
    42f0:	0ff7f793          	zext.b	a5,a5
    42f4:	c3a1                	beqz	a5,4334 <_Z14vadd_testcase1v+0x1a0>
    42f6:	fa8b8613          	addi	a2,s7,-88 # 10000fa8 <__rodata_start__+0xfff5eb0>
    42fa:	efcc0593          	addi	a1,s8,-260 # 10000efc <__rodata_start__+0xfff5e04>
    42fe:	0a000693          	li	a3,160
    4302:	020c8513          	addi	a0,s9,32 # 10000020 <__rodata_start__+0xfff4f28>
    4306:	1e2040ef          	jal	84e8 <_Z7printf_PKcz>
    430a:	00048703          	lb	a4,0(s1)
    430e:	00090783          	lb	a5,0(s2)
    4312:	86a2                	mv	a3,s0
    4314:	8622                	mv	a2,s0
    4316:	97ba                	add	a5,a5,a4
    4318:	0009c703          	lbu	a4,0(s3)
    431c:	0ff7f793          	zext.b	a5,a5
    4320:	85a2                	mv	a1,s0
    4322:	feca0513          	addi	a0,s4,-20 # 10000fec <__rodata_start__+0xfff5ef4>
    4326:	1c2040ef          	jal	84e8 <_Z7printf_PKcz>
    432a:	058a8513          	addi	a0,s5,88 # 10000058 <__rodata_start__+0xfff4f60>
    432e:	1ba040ef          	jal	84e8 <_Z7printf_PKcz>
    4332:	9002                	ebreak
    4334:	0405                	addi	s0,s0,1
    4336:	0985                	addi	s3,s3,1
    4338:	0905                	addi	s2,s2,1
    433a:	0485                	addi	s1,s1,1
    433c:	fb6412e3          	bne	s0,s6,42e0 <_Z14vadd_testcase1v+0x14c>
    4340:	10001637          	lui	a2,0x10001
    4344:	100015b7          	lui	a1,0x10001
    4348:	10000537          	lui	a0,0x10000
    434c:	0a400693          	li	a3,164
    4350:	fa860613          	addi	a2,a2,-88 # 10000fa8 <__rodata_start__+0xfff5eb0>
    4354:	efc58593          	addi	a1,a1,-260 # 10000efc <__rodata_start__+0xfff5e04>
    4358:	02050513          	addi	a0,a0,32 # 10000020 <__rodata_start__+0xfff4f28>
    435c:	18c040ef          	jal	84e8 <_Z7printf_PKcz>
    4360:	10001537          	lui	a0,0x10001
    4364:	01c50513          	addi	a0,a0,28 # 1000101c <__rodata_start__+0xfff5f24>
    4368:	180040ef          	jal	84e8 <_Z7printf_PKcz>
    436c:	5462                	lw	s0,56(sp)
    436e:	50f2                	lw	ra,60(sp)
    4370:	54d2                	lw	s1,52(sp)
    4372:	5942                	lw	s2,48(sp)
    4374:	59b2                	lw	s3,44(sp)
    4376:	5a22                	lw	s4,40(sp)
    4378:	5a92                	lw	s5,36(sp)
    437a:	5b02                	lw	s6,32(sp)
    437c:	4bf2                	lw	s7,28(sp)
    437e:	4c62                	lw	s8,24(sp)
    4380:	4cd2                	lw	s9,20(sp)
    4382:	4d42                	lw	s10,16(sp)
    4384:	4db2                	lw	s11,12(sp)
    4386:	10000537          	lui	a0,0x10000
    438a:	05850513          	addi	a0,a0,88 # 10000058 <__rodata_start__+0xfff4f60>
    438e:	6121                	addi	sp,sp,64
    4390:	1580406f          	j	84e8 <_Z7printf_PKcz>

00004394 <_Z14vadd_testcase2v>:
    4394:	7179                	addi	sp,sp,-48
    4396:	d226                	sw	s1,36(sp)
    4398:	d606                	sw	ra,44(sp)
    439a:	d422                	sw	s0,40(sp)
    439c:	d04a                	sw	s2,32(sp)
    439e:	ce4e                	sw	s3,28(sp)
    43a0:	cc52                	sw	s4,24(sp)
    43a2:	ca56                	sw	s5,20(sp)
    43a4:	c85a                	sw	s6,16(sp)
    43a6:	c65e                	sw	s7,12(sp)
    43a8:	c462                	sw	s8,8(sp)
    43aa:	4781                	li	a5,0
    43ac:	1001d4b7          	lui	s1,0x1001d
    43b0:	10000713          	li	a4,256
    43b4:	04048413          	addi	s0,s1,64 # 1001d040 <waddr>
    43b8:	00f406b3          	add	a3,s0,a5
    43bc:	00068023          	sb	zero,0(a3)
    43c0:	0785                	addi	a5,a5,1
    43c2:	fee799e3          	bne	a5,a4,43b4 <_Z14vadd_testcase2v+0x20>
    43c6:	6785                	lui	a5,0x1
    43c8:	f0078793          	addi	a5,a5,-256 # f00 <_Z22minimum_matmul_multi_1PaS_S_+0xca>
    43cc:	1047a00b          	vsetcsr	zero,a5,260
    43d0:	20000793          	li	a5,512
    43d4:	1057a00b          	vsetcsr	zero,a5,261
    43d8:	57fd                	li	a5,-1
    43da:	1067a00b          	vsetcsr	zero,a5,262
    43de:	1034200b          	vsetcsr	zero,s0,259
    43e2:	10040413          	addi	s0,s0,256
    43e6:	0ff00793          	li	a5,255
    43ea:	0087806b          	vadd	zero,a5,s0
    43ee:	04048493          	addi	s1,s1,64
    43f2:	4901                	li	s2,0
    43f4:	10001b37          	lui	s6,0x10001
    43f8:	10001bb7          	lui	s7,0x10001
    43fc:	10000c37          	lui	s8,0x10000
    4400:	10001a37          	lui	s4,0x10001
    4404:	10000ab7          	lui	s5,0x10000
    4408:	04000993          	li	s3,64
    440c:	00040783          	lb	a5,0(s0)
    4410:	00048703          	lb	a4,0(s1)
    4414:	0ff78793          	addi	a5,a5,255
    4418:	8fb9                	xor	a5,a5,a4
    441a:	0ff7f793          	zext.b	a5,a5
    441e:	cf95                	beqz	a5,445a <_Z14vadd_testcase2v+0xc6>
    4420:	028b0613          	addi	a2,s6,40 # 10001028 <__rodata_start__+0xfff5f30>
    4424:	efcb8593          	addi	a1,s7,-260 # 10000efc <__rodata_start__+0xfff5e04>
    4428:	0b900693          	li	a3,185
    442c:	020c0513          	addi	a0,s8,32 # 10000020 <__rodata_start__+0xfff4f28>
    4430:	0b8040ef          	jal	84e8 <_Z7printf_PKcz>
    4434:	00040703          	lb	a4,0(s0)
    4438:	0004c683          	lbu	a3,0(s1)
    443c:	864a                	mv	a2,s2
    443e:	0ff70713          	addi	a4,a4,255
    4442:	0ff77713          	zext.b	a4,a4
    4446:	85ca                	mv	a1,s2
    4448:	038a0513          	addi	a0,s4,56 # 10001038 <__rodata_start__+0xfff5f40>
    444c:	09c040ef          	jal	84e8 <_Z7printf_PKcz>
    4450:	058a8513          	addi	a0,s5,88 # 10000058 <__rodata_start__+0xfff4f60>
    4454:	094040ef          	jal	84e8 <_Z7printf_PKcz>
    4458:	9002                	ebreak
    445a:	0905                	addi	s2,s2,1
    445c:	0485                	addi	s1,s1,1
    445e:	0405                	addi	s0,s0,1
    4460:	fb3916e3          	bne	s2,s3,440c <_Z14vadd_testcase2v+0x78>
    4464:	10001637          	lui	a2,0x10001
    4468:	100015b7          	lui	a1,0x10001
    446c:	10000537          	lui	a0,0x10000
    4470:	0d600693          	li	a3,214
    4474:	02860613          	addi	a2,a2,40 # 10001028 <__rodata_start__+0xfff5f30>
    4478:	efc58593          	addi	a1,a1,-260 # 10000efc <__rodata_start__+0xfff5e04>
    447c:	02050513          	addi	a0,a0,32 # 10000020 <__rodata_start__+0xfff4f28>
    4480:	068040ef          	jal	84e8 <_Z7printf_PKcz>
    4484:	10001537          	lui	a0,0x10001
    4488:	01c50513          	addi	a0,a0,28 # 1000101c <__rodata_start__+0xfff5f24>
    448c:	05c040ef          	jal	84e8 <_Z7printf_PKcz>
    4490:	5422                	lw	s0,40(sp)
    4492:	50b2                	lw	ra,44(sp)
    4494:	5492                	lw	s1,36(sp)
    4496:	5902                	lw	s2,32(sp)
    4498:	49f2                	lw	s3,28(sp)
    449a:	4a62                	lw	s4,24(sp)
    449c:	4ad2                	lw	s5,20(sp)
    449e:	4b42                	lw	s6,16(sp)
    44a0:	4bb2                	lw	s7,12(sp)
    44a2:	4c22                	lw	s8,8(sp)
    44a4:	10000537          	lui	a0,0x10000
    44a8:	05850513          	addi	a0,a0,88 # 10000058 <__rodata_start__+0xfff4f60>
    44ac:	6145                	addi	sp,sp,48
    44ae:	03a0406f          	j	84e8 <_Z7printf_PKcz>

000044b2 <_Z14vsub_testcase1v>:
    44b2:	7139                	addi	sp,sp,-64
    44b4:	da26                	sw	s1,52(sp)
    44b6:	de06                	sw	ra,60(sp)
    44b8:	dc22                	sw	s0,56(sp)
    44ba:	d84a                	sw	s2,48(sp)
    44bc:	d64e                	sw	s3,44(sp)
    44be:	d452                	sw	s4,40(sp)
    44c0:	d256                	sw	s5,36(sp)
    44c2:	d05a                	sw	s6,32(sp)
    44c4:	ce5e                	sw	s7,28(sp)
    44c6:	cc62                	sw	s8,24(sp)
    44c8:	ca66                	sw	s9,20(sp)
    44ca:	c86a                	sw	s10,16(sp)
    44cc:	c66e                	sw	s11,12(sp)
    44ce:	4781                	li	a5,0
    44d0:	1001d4b7          	lui	s1,0x1001d
    44d4:	10000693          	li	a3,256
    44d8:	04048713          	addi	a4,s1,64 # 1001d040 <waddr>
    44dc:	973e                	add	a4,a4,a5
    44de:	00070023          	sb	zero,0(a4)
    44e2:	0785                	addi	a5,a5,1
    44e4:	04048c93          	addi	s9,s1,64
    44e8:	fed798e3          	bne	a5,a3,44d8 <_Z14vsub_testcase1v+0x26>
    44ec:	70000793          	li	a5,1792
    44f0:	1047a00b          	vsetcsr	zero,a5,260
    44f4:	08000793          	li	a5,128
    44f8:	1057a00b          	vsetcsr	zero,a5,261
    44fc:	57fd                	li	a5,-1
    44fe:	1067a00b          	vsetcsr	zero,a5,262
    4502:	103ca00b          	vsetcsr	zero,s9,259
    4506:	1001d437          	lui	s0,0x1001d
    450a:	d3040413          	addi	s0,s0,-720 # 1001cd30 <raddr1>
    450e:	10040c13          	addi	s8,s0,256
    4512:	20040413          	addi	s0,s0,512
    4516:	028c006b          	vsub	zero,s8,s0
    451a:	04048a13          	addi	s4,s1,64
    451e:	89e2                	mv	s3,s8
    4520:	8922                	mv	s2,s0
    4522:	8d22                	mv	s10,s0
    4524:	8de2                	mv	s11,s8
    4526:	04048493          	addi	s1,s1,64
    452a:	4a81                	li	s5,0
    452c:	100018b7          	lui	a7,0x10001
    4530:	10001337          	lui	t1,0x10001
    4534:	10000e37          	lui	t3,0x10000
    4538:	10001b37          	lui	s6,0x10001
    453c:	10000bb7          	lui	s7,0x10000
    4540:	4841                	li	a6,16
    4542:	000d0703          	lb	a4,0(s10)
    4546:	000d8783          	lb	a5,0(s11)
    454a:	8f99                	sub	a5,a5,a4
    454c:	00048703          	lb	a4,0(s1)
    4550:	8fb9                	xor	a5,a5,a4
    4552:	0ff7f793          	zext.b	a5,a5
    4556:	c7b9                	beqz	a5,45a4 <_Z14vsub_testcase1v+0xf2>
    4558:	06488613          	addi	a2,a7,100 # 10001064 <__rodata_start__+0xfff5f6c>
    455c:	efc30593          	addi	a1,t1,-260 # 10000efc <__rodata_start__+0xfff5e04>
    4560:	020e0513          	addi	a0,t3,32 # 10000020 <__rodata_start__+0xfff4f28>
    4564:	0ec00693          	li	a3,236
    4568:	781030ef          	jal	84e8 <_Z7printf_PKcz>
    456c:	000d0703          	lb	a4,0(s10)
    4570:	000d8783          	lb	a5,0(s11)
    4574:	86d6                	mv	a3,s5
    4576:	8656                	mv	a2,s5
    4578:	8f99                	sub	a5,a5,a4
    457a:	0004c703          	lbu	a4,0(s1)
    457e:	0ff7f793          	zext.b	a5,a5
    4582:	85d6                	mv	a1,s5
    4584:	074b0513          	addi	a0,s6,116 # 10001074 <__rodata_start__+0xfff5f7c>
    4588:	761030ef          	jal	84e8 <_Z7printf_PKcz>
    458c:	058b8513          	addi	a0,s7,88 # 10000058 <__rodata_start__+0xfff4f60>
    4590:	759030ef          	jal	84e8 <_Z7printf_PKcz>
    4594:	9002                	ebreak
    4596:	4841                	li	a6,16
    4598:	100018b7          	lui	a7,0x10001
    459c:	10001337          	lui	t1,0x10001
    45a0:	10000e37          	lui	t3,0x10000
    45a4:	0a85                	addi	s5,s5,1
    45a6:	0485                	addi	s1,s1,1
    45a8:	0d85                	addi	s11,s11,1
    45aa:	0d05                	addi	s10,s10,1
    45ac:	f90a9be3          	bne	s5,a6,4542 <_Z14vsub_testcase1v+0x90>
    45b0:	4781                	li	a5,0
    45b2:	10000713          	li	a4,256
    45b6:	00fc86b3          	add	a3,s9,a5
    45ba:	00068023          	sb	zero,0(a3)
    45be:	0785                	addi	a5,a5,1
    45c0:	fee79be3          	bne	a5,a4,45b6 <_Z14vsub_testcase1v+0x104>
    45c4:	70000793          	li	a5,1792
    45c8:	1047a00b          	vsetcsr	zero,a5,260
    45cc:	6785                	lui	a5,0x1
    45ce:	80078793          	addi	a5,a5,-2048 # 800 <_Z12test_fc_procv+0x278>
    45d2:	1057a00b          	vsetcsr	zero,a5,261
    45d6:	57fd                	li	a5,-1
    45d8:	1067a00b          	vsetcsr	zero,a5,262
    45dc:	103ca00b          	vsetcsr	zero,s9,259
    45e0:	028c006b          	vsub	zero,s8,s0
    45e4:	4401                	li	s0,0
    45e6:	10001bb7          	lui	s7,0x10001
    45ea:	10001c37          	lui	s8,0x10001
    45ee:	10000cb7          	lui	s9,0x10000
    45f2:	100014b7          	lui	s1,0x10001
    45f6:	10000ab7          	lui	s5,0x10000
    45fa:	10000b13          	li	s6,256
    45fe:	00090703          	lb	a4,0(s2)
    4602:	00098783          	lb	a5,0(s3)
    4606:	8f99                	sub	a5,a5,a4
    4608:	000a0703          	lb	a4,0(s4)
    460c:	8fb9                	xor	a5,a5,a4
    460e:	0ff7f793          	zext.b	a5,a5
    4612:	c3a1                	beqz	a5,4652 <_Z14vsub_testcase1v+0x1a0>
    4614:	064b8613          	addi	a2,s7,100 # 10001064 <__rodata_start__+0xfff5f6c>
    4618:	efcc0593          	addi	a1,s8,-260 # 10000efc <__rodata_start__+0xfff5e04>
    461c:	10100693          	li	a3,257
    4620:	020c8513          	addi	a0,s9,32 # 10000020 <__rodata_start__+0xfff4f28>
    4624:	6c5030ef          	jal	84e8 <_Z7printf_PKcz>
    4628:	00090703          	lb	a4,0(s2)
    462c:	00098783          	lb	a5,0(s3)
    4630:	86a2                	mv	a3,s0
    4632:	8622                	mv	a2,s0
    4634:	8f99                	sub	a5,a5,a4
    4636:	000a4703          	lbu	a4,0(s4)
    463a:	0ff7f793          	zext.b	a5,a5
    463e:	85a2                	mv	a1,s0
    4640:	07448513          	addi	a0,s1,116 # 10001074 <__rodata_start__+0xfff5f7c>
    4644:	6a5030ef          	jal	84e8 <_Z7printf_PKcz>
    4648:	058a8513          	addi	a0,s5,88 # 10000058 <__rodata_start__+0xfff4f60>
    464c:	69d030ef          	jal	84e8 <_Z7printf_PKcz>
    4650:	9002                	ebreak
    4652:	0405                	addi	s0,s0,1
    4654:	0a05                	addi	s4,s4,1
    4656:	0985                	addi	s3,s3,1
    4658:	0905                	addi	s2,s2,1
    465a:	fb6412e3          	bne	s0,s6,45fe <_Z14vsub_testcase1v+0x14c>
    465e:	10001637          	lui	a2,0x10001
    4662:	100015b7          	lui	a1,0x10001
    4666:	10000537          	lui	a0,0x10000
    466a:	10500693          	li	a3,261
    466e:	06460613          	addi	a2,a2,100 # 10001064 <__rodata_start__+0xfff5f6c>
    4672:	efc58593          	addi	a1,a1,-260 # 10000efc <__rodata_start__+0xfff5e04>
    4676:	02050513          	addi	a0,a0,32 # 10000020 <__rodata_start__+0xfff4f28>
    467a:	66f030ef          	jal	84e8 <_Z7printf_PKcz>
    467e:	10001537          	lui	a0,0x10001
    4682:	0a850513          	addi	a0,a0,168 # 100010a8 <__rodata_start__+0xfff5fb0>
    4686:	663030ef          	jal	84e8 <_Z7printf_PKcz>
    468a:	5462                	lw	s0,56(sp)
    468c:	50f2                	lw	ra,60(sp)
    468e:	54d2                	lw	s1,52(sp)
    4690:	5942                	lw	s2,48(sp)
    4692:	59b2                	lw	s3,44(sp)
    4694:	5a22                	lw	s4,40(sp)
    4696:	5a92                	lw	s5,36(sp)
    4698:	5b02                	lw	s6,32(sp)
    469a:	4bf2                	lw	s7,28(sp)
    469c:	4c62                	lw	s8,24(sp)
    469e:	4cd2                	lw	s9,20(sp)
    46a0:	4d42                	lw	s10,16(sp)
    46a2:	4db2                	lw	s11,12(sp)
    46a4:	10000537          	lui	a0,0x10000
    46a8:	05850513          	addi	a0,a0,88 # 10000058 <__rodata_start__+0xfff4f60>
    46ac:	6121                	addi	sp,sp,64
    46ae:	63b0306f          	j	84e8 <_Z7printf_PKcz>

000046b2 <_Z14vmin_testcase1v>:
    46b2:	7139                	addi	sp,sp,-64
    46b4:	dc22                	sw	s0,56(sp)
    46b6:	de06                	sw	ra,60(sp)
    46b8:	da26                	sw	s1,52(sp)
    46ba:	d84a                	sw	s2,48(sp)
    46bc:	d64e                	sw	s3,44(sp)
    46be:	d452                	sw	s4,40(sp)
    46c0:	d256                	sw	s5,36(sp)
    46c2:	d05a                	sw	s6,32(sp)
    46c4:	ce5e                	sw	s7,28(sp)
    46c6:	cc62                	sw	s8,24(sp)
    46c8:	ca66                	sw	s9,20(sp)
    46ca:	c86a                	sw	s10,16(sp)
    46cc:	c66e                	sw	s11,12(sp)
    46ce:	4781                	li	a5,0
    46d0:	1001d437          	lui	s0,0x1001d
    46d4:	10000693          	li	a3,256
    46d8:	04040713          	addi	a4,s0,64 # 1001d040 <waddr>
    46dc:	973e                	add	a4,a4,a5
    46de:	00070023          	sb	zero,0(a4)
    46e2:	0785                	addi	a5,a5,1
    46e4:	04040b93          	addi	s7,s0,64
    46e8:	fed798e3          	bne	a5,a3,46d8 <_Z14vmin_testcase1v+0x26>
    46ec:	70000793          	li	a5,1792
    46f0:	1047a00b          	vsetcsr	zero,a5,260
    46f4:	08000793          	li	a5,128
    46f8:	1057a00b          	vsetcsr	zero,a5,261
    46fc:	57fd                	li	a5,-1
    46fe:	1067a00b          	vsetcsr	zero,a5,262
    4702:	103ba00b          	vsetcsr	zero,s7,259
    4706:	1001dab7          	lui	s5,0x1001d
    470a:	d30a8a93          	addi	s5,s5,-720 # 1001cd30 <raddr1>
    470e:	200a8b13          	addi	s6,s5,512
    4712:	100a8a93          	addi	s5,s5,256
    4716:	055b006b          	vmin	zero,s6,s5
    471a:	1001da37          	lui	s4,0x1001d
    471e:	04040993          	addi	s3,s0,64
    4722:	895a                	mv	s2,s6
    4724:	8c5a                	mv	s8,s6
    4726:	04040413          	addi	s0,s0,64
    472a:	4481                	li	s1,0
    472c:	e30a0a13          	addi	s4,s4,-464 # 1001ce30 <raddr4>
    4730:	10000cb7          	lui	s9,0x10000
    4734:	10001d37          	lui	s10,0x10001
    4738:	10000db7          	lui	s11,0x10000
    473c:	00044703          	lbu	a4,0(s0)
    4740:	000c4783          	lbu	a5,0(s8)
    4744:	04f70763          	beq	a4,a5,4792 <_Z14vmin_testcase1v+0xe0>
    4748:	100017b7          	lui	a5,0x10001
    474c:	0b478613          	addi	a2,a5,180 # 100010b4 <__rodata_start__+0xfff5fbc>
    4750:	100017b7          	lui	a5,0x10001
    4754:	efc78593          	addi	a1,a5,-260 # 10000efc <__rodata_start__+0xfff5e04>
    4758:	11b00693          	li	a3,283
    475c:	020c8513          	addi	a0,s9,32 # 10000020 <__rodata_start__+0xfff4f28>
    4760:	589030ef          	jal	84e8 <_Z7printf_PKcz>
    4764:	009a07b3          	add	a5,s4,s1
    4768:	000c4703          	lbu	a4,0(s8)
    476c:	0007c783          	lbu	a5,0(a5)
    4770:	00f75363          	bge	a4,a5,4776 <_Z14vmin_testcase1v+0xc4>
    4774:	87ba                	mv	a5,a4
    4776:	00044703          	lbu	a4,0(s0)
    477a:	86a6                	mv	a3,s1
    477c:	8626                	mv	a2,s1
    477e:	85a6                	mv	a1,s1
    4780:	0c4d0513          	addi	a0,s10,196 # 100010c4 <__rodata_start__+0xfff5fcc>
    4784:	565030ef          	jal	84e8 <_Z7printf_PKcz>
    4788:	058d8513          	addi	a0,s11,88 # 10000058 <__rodata_start__+0xfff4f60>
    478c:	55d030ef          	jal	84e8 <_Z7printf_PKcz>
    4790:	9002                	ebreak
    4792:	0485                	addi	s1,s1,1
    4794:	47c1                	li	a5,16
    4796:	0405                	addi	s0,s0,1
    4798:	0c05                	addi	s8,s8,1
    479a:	faf491e3          	bne	s1,a5,473c <_Z14vmin_testcase1v+0x8a>
    479e:	4781                	li	a5,0
    47a0:	10000713          	li	a4,256
    47a4:	00fb86b3          	add	a3,s7,a5
    47a8:	00068023          	sb	zero,0(a3)
    47ac:	0785                	addi	a5,a5,1
    47ae:	fee79be3          	bne	a5,a4,47a4 <_Z14vmin_testcase1v+0xf2>
    47b2:	70000793          	li	a5,1792
    47b6:	1047a00b          	vsetcsr	zero,a5,260
    47ba:	6785                	lui	a5,0x1
    47bc:	80078793          	addi	a5,a5,-2048 # 800 <_Z12test_fc_procv+0x278>
    47c0:	1057a00b          	vsetcsr	zero,a5,261
    47c4:	57fd                	li	a5,-1
    47c6:	1067a00b          	vsetcsr	zero,a5,262
    47ca:	103ba00b          	vsetcsr	zero,s7,259
    47ce:	055b006b          	vmin	zero,s6,s5
    47d2:	4401                	li	s0,0
    47d4:	10001ab7          	lui	s5,0x10001
    47d8:	10001b37          	lui	s6,0x10001
    47dc:	10000bb7          	lui	s7,0x10000
    47e0:	10001c37          	lui	s8,0x10001
    47e4:	10000cb7          	lui	s9,0x10000
    47e8:	10000493          	li	s1,256
    47ec:	0009c703          	lbu	a4,0(s3)
    47f0:	00094783          	lbu	a5,0(s2)
    47f4:	04f70363          	beq	a4,a5,483a <_Z14vmin_testcase1v+0x188>
    47f8:	13000693          	li	a3,304
    47fc:	0b4a8613          	addi	a2,s5,180 # 100010b4 <__rodata_start__+0xfff5fbc>
    4800:	efcb0593          	addi	a1,s6,-260 # 10000efc <__rodata_start__+0xfff5e04>
    4804:	020b8513          	addi	a0,s7,32 # 10000020 <__rodata_start__+0xfff4f28>
    4808:	4e1030ef          	jal	84e8 <_Z7printf_PKcz>
    480c:	008a07b3          	add	a5,s4,s0
    4810:	00094703          	lbu	a4,0(s2)
    4814:	0007c783          	lbu	a5,0(a5)
    4818:	00f75363          	bge	a4,a5,481e <_Z14vmin_testcase1v+0x16c>
    481c:	87ba                	mv	a5,a4
    481e:	0009c703          	lbu	a4,0(s3)
    4822:	86a2                	mv	a3,s0
    4824:	8622                	mv	a2,s0
    4826:	85a2                	mv	a1,s0
    4828:	0f8c0513          	addi	a0,s8,248 # 100010f8 <__rodata_start__+0xfff6000>
    482c:	4bd030ef          	jal	84e8 <_Z7printf_PKcz>
    4830:	058c8513          	addi	a0,s9,88 # 10000058 <__rodata_start__+0xfff4f60>
    4834:	4b5030ef          	jal	84e8 <_Z7printf_PKcz>
    4838:	9002                	ebreak
    483a:	0405                	addi	s0,s0,1
    483c:	0985                	addi	s3,s3,1
    483e:	0905                	addi	s2,s2,1
    4840:	fa9416e3          	bne	s0,s1,47ec <_Z14vmin_testcase1v+0x13a>
    4844:	10001637          	lui	a2,0x10001
    4848:	100015b7          	lui	a1,0x10001
    484c:	10000537          	lui	a0,0x10000
    4850:	13400693          	li	a3,308
    4854:	0b460613          	addi	a2,a2,180 # 100010b4 <__rodata_start__+0xfff5fbc>
    4858:	efc58593          	addi	a1,a1,-260 # 10000efc <__rodata_start__+0xfff5e04>
    485c:	02050513          	addi	a0,a0,32 # 10000020 <__rodata_start__+0xfff4f28>
    4860:	489030ef          	jal	84e8 <_Z7printf_PKcz>
    4864:	10001537          	lui	a0,0x10001
    4868:	12c50513          	addi	a0,a0,300 # 1000112c <__rodata_start__+0xfff6034>
    486c:	47d030ef          	jal	84e8 <_Z7printf_PKcz>
    4870:	5462                	lw	s0,56(sp)
    4872:	50f2                	lw	ra,60(sp)
    4874:	54d2                	lw	s1,52(sp)
    4876:	5942                	lw	s2,48(sp)
    4878:	59b2                	lw	s3,44(sp)
    487a:	5a22                	lw	s4,40(sp)
    487c:	5a92                	lw	s5,36(sp)
    487e:	5b02                	lw	s6,32(sp)
    4880:	4bf2                	lw	s7,28(sp)
    4882:	4c62                	lw	s8,24(sp)
    4884:	4cd2                	lw	s9,20(sp)
    4886:	4d42                	lw	s10,16(sp)
    4888:	4db2                	lw	s11,12(sp)
    488a:	10000537          	lui	a0,0x10000
    488e:	05850513          	addi	a0,a0,88 # 10000058 <__rodata_start__+0xfff4f60>
    4892:	6121                	addi	sp,sp,64
    4894:	4550306f          	j	84e8 <_Z7printf_PKcz>

00004898 <_Z15vminu_testcase1v>:
    4898:	7139                	addi	sp,sp,-64
    489a:	dc22                	sw	s0,56(sp)
    489c:	de06                	sw	ra,60(sp)
    489e:	da26                	sw	s1,52(sp)
    48a0:	d84a                	sw	s2,48(sp)
    48a2:	d64e                	sw	s3,44(sp)
    48a4:	d452                	sw	s4,40(sp)
    48a6:	d256                	sw	s5,36(sp)
    48a8:	d05a                	sw	s6,32(sp)
    48aa:	ce5e                	sw	s7,28(sp)
    48ac:	cc62                	sw	s8,24(sp)
    48ae:	ca66                	sw	s9,20(sp)
    48b0:	c86a                	sw	s10,16(sp)
    48b2:	c66e                	sw	s11,12(sp)
    48b4:	4781                	li	a5,0
    48b6:	1001d437          	lui	s0,0x1001d
    48ba:	10000693          	li	a3,256
    48be:	04040713          	addi	a4,s0,64 # 1001d040 <waddr>
    48c2:	973e                	add	a4,a4,a5
    48c4:	00070023          	sb	zero,0(a4)
    48c8:	0785                	addi	a5,a5,1
    48ca:	04040b93          	addi	s7,s0,64
    48ce:	fed798e3          	bne	a5,a3,48be <_Z15vminu_testcase1v+0x26>
    48d2:	60000793          	li	a5,1536
    48d6:	1047a00b          	vsetcsr	zero,a5,260
    48da:	08000793          	li	a5,128
    48de:	1057a00b          	vsetcsr	zero,a5,261
    48e2:	57fd                	li	a5,-1
    48e4:	1067a00b          	vsetcsr	zero,a5,262
    48e8:	103ba00b          	vsetcsr	zero,s7,259
    48ec:	1001dab7          	lui	s5,0x1001d
    48f0:	d30a8a93          	addi	s5,s5,-720 # 1001cd30 <raddr1>
    48f4:	200a8b13          	addi	s6,s5,512
    48f8:	100a8a93          	addi	s5,s5,256
    48fc:	055b006b          	vmin	zero,s6,s5
    4900:	1001da37          	lui	s4,0x1001d
    4904:	04040993          	addi	s3,s0,64
    4908:	895a                	mv	s2,s6
    490a:	8c5a                	mv	s8,s6
    490c:	04040413          	addi	s0,s0,64
    4910:	4481                	li	s1,0
    4912:	e30a0a13          	addi	s4,s4,-464 # 1001ce30 <raddr4>
    4916:	10000cb7          	lui	s9,0x10000
    491a:	10001d37          	lui	s10,0x10001
    491e:	10000db7          	lui	s11,0x10000
    4922:	00044703          	lbu	a4,0(s0)
    4926:	000c4783          	lbu	a5,0(s8)
    492a:	04f70763          	beq	a4,a5,4978 <_Z15vminu_testcase1v+0xe0>
    492e:	100017b7          	lui	a5,0x10001
    4932:	13878613          	addi	a2,a5,312 # 10001138 <__rodata_start__+0xfff6040>
    4936:	100017b7          	lui	a5,0x10001
    493a:	efc78593          	addi	a1,a5,-260 # 10000efc <__rodata_start__+0xfff5e04>
    493e:	14a00693          	li	a3,330
    4942:	020c8513          	addi	a0,s9,32 # 10000020 <__rodata_start__+0xfff4f28>
    4946:	3a3030ef          	jal	84e8 <_Z7printf_PKcz>
    494a:	009a07b3          	add	a5,s4,s1
    494e:	000c4703          	lbu	a4,0(s8)
    4952:	0007c783          	lbu	a5,0(a5)
    4956:	00f75363          	bge	a4,a5,495c <_Z15vminu_testcase1v+0xc4>
    495a:	87ba                	mv	a5,a4
    495c:	00044703          	lbu	a4,0(s0)
    4960:	86a6                	mv	a3,s1
    4962:	8626                	mv	a2,s1
    4964:	85a6                	mv	a1,s1
    4966:	148d0513          	addi	a0,s10,328 # 10001148 <__rodata_start__+0xfff6050>
    496a:	37f030ef          	jal	84e8 <_Z7printf_PKcz>
    496e:	058d8513          	addi	a0,s11,88 # 10000058 <__rodata_start__+0xfff4f60>
    4972:	377030ef          	jal	84e8 <_Z7printf_PKcz>
    4976:	9002                	ebreak
    4978:	0485                	addi	s1,s1,1
    497a:	47c1                	li	a5,16
    497c:	0405                	addi	s0,s0,1
    497e:	0c05                	addi	s8,s8,1
    4980:	faf491e3          	bne	s1,a5,4922 <_Z15vminu_testcase1v+0x8a>
    4984:	4781                	li	a5,0
    4986:	10000713          	li	a4,256
    498a:	00fb86b3          	add	a3,s7,a5
    498e:	00068023          	sb	zero,0(a3)
    4992:	0785                	addi	a5,a5,1
    4994:	fee79be3          	bne	a5,a4,498a <_Z15vminu_testcase1v+0xf2>
    4998:	60000793          	li	a5,1536
    499c:	1047a00b          	vsetcsr	zero,a5,260
    49a0:	6785                	lui	a5,0x1
    49a2:	80078793          	addi	a5,a5,-2048 # 800 <_Z12test_fc_procv+0x278>
    49a6:	1057a00b          	vsetcsr	zero,a5,261
    49aa:	57fd                	li	a5,-1
    49ac:	1067a00b          	vsetcsr	zero,a5,262
    49b0:	103ba00b          	vsetcsr	zero,s7,259
    49b4:	055b006b          	vmin	zero,s6,s5
    49b8:	4401                	li	s0,0
    49ba:	10001ab7          	lui	s5,0x10001
    49be:	10001b37          	lui	s6,0x10001
    49c2:	10000bb7          	lui	s7,0x10000
    49c6:	10001c37          	lui	s8,0x10001
    49ca:	10000cb7          	lui	s9,0x10000
    49ce:	10000493          	li	s1,256
    49d2:	0009c703          	lbu	a4,0(s3)
    49d6:	00094783          	lbu	a5,0(s2)
    49da:	04f70363          	beq	a4,a5,4a20 <_Z15vminu_testcase1v+0x188>
    49de:	15f00693          	li	a3,351
    49e2:	138a8613          	addi	a2,s5,312 # 10001138 <__rodata_start__+0xfff6040>
    49e6:	efcb0593          	addi	a1,s6,-260 # 10000efc <__rodata_start__+0xfff5e04>
    49ea:	020b8513          	addi	a0,s7,32 # 10000020 <__rodata_start__+0xfff4f28>
    49ee:	2fb030ef          	jal	84e8 <_Z7printf_PKcz>
    49f2:	008a07b3          	add	a5,s4,s0
    49f6:	00094703          	lbu	a4,0(s2)
    49fa:	0007c783          	lbu	a5,0(a5)
    49fe:	00f75363          	bge	a4,a5,4a04 <_Z15vminu_testcase1v+0x16c>
    4a02:	87ba                	mv	a5,a4
    4a04:	0009c703          	lbu	a4,0(s3)
    4a08:	86a2                	mv	a3,s0
    4a0a:	8622                	mv	a2,s0
    4a0c:	85a2                	mv	a1,s0
    4a0e:	17cc0513          	addi	a0,s8,380 # 1000117c <__rodata_start__+0xfff6084>
    4a12:	2d7030ef          	jal	84e8 <_Z7printf_PKcz>
    4a16:	058c8513          	addi	a0,s9,88 # 10000058 <__rodata_start__+0xfff4f60>
    4a1a:	2cf030ef          	jal	84e8 <_Z7printf_PKcz>
    4a1e:	9002                	ebreak
    4a20:	0405                	addi	s0,s0,1
    4a22:	0985                	addi	s3,s3,1
    4a24:	0905                	addi	s2,s2,1
    4a26:	fa9416e3          	bne	s0,s1,49d2 <_Z15vminu_testcase1v+0x13a>
    4a2a:	10001637          	lui	a2,0x10001
    4a2e:	100015b7          	lui	a1,0x10001
    4a32:	10000537          	lui	a0,0x10000
    4a36:	16300693          	li	a3,355
    4a3a:	13860613          	addi	a2,a2,312 # 10001138 <__rodata_start__+0xfff6040>
    4a3e:	efc58593          	addi	a1,a1,-260 # 10000efc <__rodata_start__+0xfff5e04>
    4a42:	02050513          	addi	a0,a0,32 # 10000020 <__rodata_start__+0xfff4f28>
    4a46:	2a3030ef          	jal	84e8 <_Z7printf_PKcz>
    4a4a:	10001537          	lui	a0,0x10001
    4a4e:	1b050513          	addi	a0,a0,432 # 100011b0 <__rodata_start__+0xfff60b8>
    4a52:	297030ef          	jal	84e8 <_Z7printf_PKcz>
    4a56:	5462                	lw	s0,56(sp)
    4a58:	50f2                	lw	ra,60(sp)
    4a5a:	54d2                	lw	s1,52(sp)
    4a5c:	5942                	lw	s2,48(sp)
    4a5e:	59b2                	lw	s3,44(sp)
    4a60:	5a22                	lw	s4,40(sp)
    4a62:	5a92                	lw	s5,36(sp)
    4a64:	5b02                	lw	s6,32(sp)
    4a66:	4bf2                	lw	s7,28(sp)
    4a68:	4c62                	lw	s8,24(sp)
    4a6a:	4cd2                	lw	s9,20(sp)
    4a6c:	4d42                	lw	s10,16(sp)
    4a6e:	4db2                	lw	s11,12(sp)
    4a70:	10000537          	lui	a0,0x10000
    4a74:	05850513          	addi	a0,a0,88 # 10000058 <__rodata_start__+0xfff4f60>
    4a78:	6121                	addi	sp,sp,64
    4a7a:	26f0306f          	j	84e8 <_Z7printf_PKcz>

00004a7e <_Z14vmax_testcase1v>:
    4a7e:	7139                	addi	sp,sp,-64
    4a80:	da26                	sw	s1,52(sp)
    4a82:	de06                	sw	ra,60(sp)
    4a84:	dc22                	sw	s0,56(sp)
    4a86:	d84a                	sw	s2,48(sp)
    4a88:	d64e                	sw	s3,44(sp)
    4a8a:	d452                	sw	s4,40(sp)
    4a8c:	d256                	sw	s5,36(sp)
    4a8e:	d05a                	sw	s6,32(sp)
    4a90:	ce5e                	sw	s7,28(sp)
    4a92:	cc62                	sw	s8,24(sp)
    4a94:	ca66                	sw	s9,20(sp)
    4a96:	c86a                	sw	s10,16(sp)
    4a98:	c66e                	sw	s11,12(sp)
    4a9a:	4781                	li	a5,0
    4a9c:	1001d4b7          	lui	s1,0x1001d
    4aa0:	10000693          	li	a3,256
    4aa4:	04048713          	addi	a4,s1,64 # 1001d040 <waddr>
    4aa8:	973e                	add	a4,a4,a5
    4aaa:	00070023          	sb	zero,0(a4)
    4aae:	0785                	addi	a5,a5,1
    4ab0:	04048b13          	addi	s6,s1,64
    4ab4:	fed798e3          	bne	a5,a3,4aa4 <_Z14vmax_testcase1v+0x26>
    4ab8:	70000793          	li	a5,1792
    4abc:	1047a00b          	vsetcsr	zero,a5,260
    4ac0:	08000793          	li	a5,128
    4ac4:	1057a00b          	vsetcsr	zero,a5,261
    4ac8:	57fd                	li	a5,-1
    4aca:	1067a00b          	vsetcsr	zero,a5,262
    4ace:	103b200b          	vsetcsr	zero,s6,259
    4ad2:	1001d437          	lui	s0,0x1001d
    4ad6:	d3040413          	addi	s0,s0,-720 # 1001cd30 <raddr1>
    4ada:	20040a93          	addi	s5,s0,512
    4ade:	10040413          	addi	s0,s0,256
    4ae2:	068a806b          	vmax	zero,s5,s0
    4ae6:	1001da37          	lui	s4,0x1001d
    4aea:	04048993          	addi	s3,s1,64
    4aee:	8922                	mv	s2,s0
    4af0:	8c22                	mv	s8,s0
    4af2:	04048493          	addi	s1,s1,64
    4af6:	4b81                	li	s7,0
    4af8:	f30a0a13          	addi	s4,s4,-208 # 1001cf30 <raddr3>
    4afc:	10000cb7          	lui	s9,0x10000
    4b00:	10001d37          	lui	s10,0x10001
    4b04:	10000db7          	lui	s11,0x10000
    4b08:	0004c703          	lbu	a4,0(s1)
    4b0c:	000c4783          	lbu	a5,0(s8)
    4b10:	04f70763          	beq	a4,a5,4b5e <_Z14vmax_testcase1v+0xe0>
    4b14:	100017b7          	lui	a5,0x10001
    4b18:	1bc78613          	addi	a2,a5,444 # 100011bc <__rodata_start__+0xfff60c4>
    4b1c:	100017b7          	lui	a5,0x10001
    4b20:	efc78593          	addi	a1,a5,-260 # 10000efc <__rodata_start__+0xfff5e04>
    4b24:	17900693          	li	a3,377
    4b28:	020c8513          	addi	a0,s9,32 # 10000020 <__rodata_start__+0xfff4f28>
    4b2c:	1bd030ef          	jal	84e8 <_Z7printf_PKcz>
    4b30:	017a07b3          	add	a5,s4,s7
    4b34:	000c4703          	lbu	a4,0(s8)
    4b38:	0007c783          	lbu	a5,0(a5)
    4b3c:	00e7d363          	bge	a5,a4,4b42 <_Z14vmax_testcase1v+0xc4>
    4b40:	87ba                	mv	a5,a4
    4b42:	0004c703          	lbu	a4,0(s1)
    4b46:	86de                	mv	a3,s7
    4b48:	865e                	mv	a2,s7
    4b4a:	85de                	mv	a1,s7
    4b4c:	1ccd0513          	addi	a0,s10,460 # 100011cc <__rodata_start__+0xfff60d4>
    4b50:	199030ef          	jal	84e8 <_Z7printf_PKcz>
    4b54:	058d8513          	addi	a0,s11,88 # 10000058 <__rodata_start__+0xfff4f60>
    4b58:	191030ef          	jal	84e8 <_Z7printf_PKcz>
    4b5c:	9002                	ebreak
    4b5e:	0b85                	addi	s7,s7,1
    4b60:	47c1                	li	a5,16
    4b62:	0485                	addi	s1,s1,1
    4b64:	0c05                	addi	s8,s8,1
    4b66:	fafb91e3          	bne	s7,a5,4b08 <_Z14vmax_testcase1v+0x8a>
    4b6a:	4781                	li	a5,0
    4b6c:	10000713          	li	a4,256
    4b70:	00fb06b3          	add	a3,s6,a5
    4b74:	00068023          	sb	zero,0(a3)
    4b78:	0785                	addi	a5,a5,1
    4b7a:	fee79be3          	bne	a5,a4,4b70 <_Z14vmax_testcase1v+0xf2>
    4b7e:	70000793          	li	a5,1792
    4b82:	1047a00b          	vsetcsr	zero,a5,260
    4b86:	6785                	lui	a5,0x1
    4b88:	80078793          	addi	a5,a5,-2048 # 800 <_Z12test_fc_procv+0x278>
    4b8c:	1057a00b          	vsetcsr	zero,a5,261
    4b90:	57fd                	li	a5,-1
    4b92:	1067a00b          	vsetcsr	zero,a5,262
    4b96:	103b200b          	vsetcsr	zero,s6,259
    4b9a:	068a806b          	vmax	zero,s5,s0
    4b9e:	4401                	li	s0,0
    4ba0:	10001ab7          	lui	s5,0x10001
    4ba4:	10001b37          	lui	s6,0x10001
    4ba8:	10000bb7          	lui	s7,0x10000
    4bac:	10001c37          	lui	s8,0x10001
    4bb0:	10000cb7          	lui	s9,0x10000
    4bb4:	10000493          	li	s1,256
    4bb8:	0009c703          	lbu	a4,0(s3)
    4bbc:	00094783          	lbu	a5,0(s2)
    4bc0:	04f70363          	beq	a4,a5,4c06 <_Z14vmax_testcase1v+0x188>
    4bc4:	18e00693          	li	a3,398
    4bc8:	1bca8613          	addi	a2,s5,444 # 100011bc <__rodata_start__+0xfff60c4>
    4bcc:	efcb0593          	addi	a1,s6,-260 # 10000efc <__rodata_start__+0xfff5e04>
    4bd0:	020b8513          	addi	a0,s7,32 # 10000020 <__rodata_start__+0xfff4f28>
    4bd4:	115030ef          	jal	84e8 <_Z7printf_PKcz>
    4bd8:	008a07b3          	add	a5,s4,s0
    4bdc:	00094703          	lbu	a4,0(s2)
    4be0:	0007c783          	lbu	a5,0(a5)
    4be4:	00e7d363          	bge	a5,a4,4bea <_Z14vmax_testcase1v+0x16c>
    4be8:	87ba                	mv	a5,a4
    4bea:	0009c703          	lbu	a4,0(s3)
    4bee:	86a2                	mv	a3,s0
    4bf0:	8622                	mv	a2,s0
    4bf2:	85a2                	mv	a1,s0
    4bf4:	200c0513          	addi	a0,s8,512 # 10001200 <__rodata_start__+0xfff6108>
    4bf8:	0f1030ef          	jal	84e8 <_Z7printf_PKcz>
    4bfc:	058c8513          	addi	a0,s9,88 # 10000058 <__rodata_start__+0xfff4f60>
    4c00:	0e9030ef          	jal	84e8 <_Z7printf_PKcz>
    4c04:	9002                	ebreak
    4c06:	0405                	addi	s0,s0,1
    4c08:	0985                	addi	s3,s3,1
    4c0a:	0905                	addi	s2,s2,1
    4c0c:	fa9416e3          	bne	s0,s1,4bb8 <_Z14vmax_testcase1v+0x13a>
    4c10:	10001637          	lui	a2,0x10001
    4c14:	100015b7          	lui	a1,0x10001
    4c18:	10000537          	lui	a0,0x10000
    4c1c:	19200693          	li	a3,402
    4c20:	1bc60613          	addi	a2,a2,444 # 100011bc <__rodata_start__+0xfff60c4>
    4c24:	efc58593          	addi	a1,a1,-260 # 10000efc <__rodata_start__+0xfff5e04>
    4c28:	02050513          	addi	a0,a0,32 # 10000020 <__rodata_start__+0xfff4f28>
    4c2c:	0bd030ef          	jal	84e8 <_Z7printf_PKcz>
    4c30:	10001537          	lui	a0,0x10001
    4c34:	23450513          	addi	a0,a0,564 # 10001234 <__rodata_start__+0xfff613c>
    4c38:	0b1030ef          	jal	84e8 <_Z7printf_PKcz>
    4c3c:	5462                	lw	s0,56(sp)
    4c3e:	50f2                	lw	ra,60(sp)
    4c40:	54d2                	lw	s1,52(sp)
    4c42:	5942                	lw	s2,48(sp)
    4c44:	59b2                	lw	s3,44(sp)
    4c46:	5a22                	lw	s4,40(sp)
    4c48:	5a92                	lw	s5,36(sp)
    4c4a:	5b02                	lw	s6,32(sp)
    4c4c:	4bf2                	lw	s7,28(sp)
    4c4e:	4c62                	lw	s8,24(sp)
    4c50:	4cd2                	lw	s9,20(sp)
    4c52:	4d42                	lw	s10,16(sp)
    4c54:	4db2                	lw	s11,12(sp)
    4c56:	10000537          	lui	a0,0x10000
    4c5a:	05850513          	addi	a0,a0,88 # 10000058 <__rodata_start__+0xfff4f60>
    4c5e:	6121                	addi	sp,sp,64
    4c60:	0890306f          	j	84e8 <_Z7printf_PKcz>

00004c64 <_Z15vmaxu_testcase1v>:
    4c64:	7139                	addi	sp,sp,-64
    4c66:	da26                	sw	s1,52(sp)
    4c68:	de06                	sw	ra,60(sp)
    4c6a:	dc22                	sw	s0,56(sp)
    4c6c:	d84a                	sw	s2,48(sp)
    4c6e:	d64e                	sw	s3,44(sp)
    4c70:	d452                	sw	s4,40(sp)
    4c72:	d256                	sw	s5,36(sp)
    4c74:	d05a                	sw	s6,32(sp)
    4c76:	ce5e                	sw	s7,28(sp)
    4c78:	cc62                	sw	s8,24(sp)
    4c7a:	ca66                	sw	s9,20(sp)
    4c7c:	c86a                	sw	s10,16(sp)
    4c7e:	c66e                	sw	s11,12(sp)
    4c80:	4781                	li	a5,0
    4c82:	1001d4b7          	lui	s1,0x1001d
    4c86:	10000693          	li	a3,256
    4c8a:	04048713          	addi	a4,s1,64 # 1001d040 <waddr>
    4c8e:	973e                	add	a4,a4,a5
    4c90:	00070023          	sb	zero,0(a4)
    4c94:	0785                	addi	a5,a5,1
    4c96:	04048b13          	addi	s6,s1,64
    4c9a:	fed798e3          	bne	a5,a3,4c8a <_Z15vmaxu_testcase1v+0x26>
    4c9e:	60000793          	li	a5,1536
    4ca2:	1047a00b          	vsetcsr	zero,a5,260
    4ca6:	08000793          	li	a5,128
    4caa:	1057a00b          	vsetcsr	zero,a5,261
    4cae:	57fd                	li	a5,-1
    4cb0:	1067a00b          	vsetcsr	zero,a5,262
    4cb4:	103b200b          	vsetcsr	zero,s6,259
    4cb8:	1001d437          	lui	s0,0x1001d
    4cbc:	d3040413          	addi	s0,s0,-720 # 1001cd30 <raddr1>
    4cc0:	20040a93          	addi	s5,s0,512
    4cc4:	10040413          	addi	s0,s0,256
    4cc8:	068a806b          	vmax	zero,s5,s0
    4ccc:	1001da37          	lui	s4,0x1001d
    4cd0:	04048993          	addi	s3,s1,64
    4cd4:	8922                	mv	s2,s0
    4cd6:	8c22                	mv	s8,s0
    4cd8:	04048493          	addi	s1,s1,64
    4cdc:	4b81                	li	s7,0
    4cde:	f30a0a13          	addi	s4,s4,-208 # 1001cf30 <raddr3>
    4ce2:	10000cb7          	lui	s9,0x10000
    4ce6:	10001d37          	lui	s10,0x10001
    4cea:	10000db7          	lui	s11,0x10000
    4cee:	0004c703          	lbu	a4,0(s1)
    4cf2:	000c4783          	lbu	a5,0(s8)
    4cf6:	04f70763          	beq	a4,a5,4d44 <_Z15vmaxu_testcase1v+0xe0>
    4cfa:	100017b7          	lui	a5,0x10001
    4cfe:	24078613          	addi	a2,a5,576 # 10001240 <__rodata_start__+0xfff6148>
    4d02:	100017b7          	lui	a5,0x10001
    4d06:	efc78593          	addi	a1,a5,-260 # 10000efc <__rodata_start__+0xfff5e04>
    4d0a:	1a800693          	li	a3,424
    4d0e:	020c8513          	addi	a0,s9,32 # 10000020 <__rodata_start__+0xfff4f28>
    4d12:	7d6030ef          	jal	84e8 <_Z7printf_PKcz>
    4d16:	017a07b3          	add	a5,s4,s7
    4d1a:	000c4703          	lbu	a4,0(s8)
    4d1e:	0007c783          	lbu	a5,0(a5)
    4d22:	00e7d363          	bge	a5,a4,4d28 <_Z15vmaxu_testcase1v+0xc4>
    4d26:	87ba                	mv	a5,a4
    4d28:	0004c703          	lbu	a4,0(s1)
    4d2c:	86de                	mv	a3,s7
    4d2e:	865e                	mv	a2,s7
    4d30:	85de                	mv	a1,s7
    4d32:	250d0513          	addi	a0,s10,592 # 10001250 <__rodata_start__+0xfff6158>
    4d36:	7b2030ef          	jal	84e8 <_Z7printf_PKcz>
    4d3a:	058d8513          	addi	a0,s11,88 # 10000058 <__rodata_start__+0xfff4f60>
    4d3e:	7aa030ef          	jal	84e8 <_Z7printf_PKcz>
    4d42:	9002                	ebreak
    4d44:	0b85                	addi	s7,s7,1
    4d46:	47c1                	li	a5,16
    4d48:	0485                	addi	s1,s1,1
    4d4a:	0c05                	addi	s8,s8,1
    4d4c:	fafb91e3          	bne	s7,a5,4cee <_Z15vmaxu_testcase1v+0x8a>
    4d50:	4781                	li	a5,0
    4d52:	10000713          	li	a4,256
    4d56:	00fb06b3          	add	a3,s6,a5
    4d5a:	00068023          	sb	zero,0(a3)
    4d5e:	0785                	addi	a5,a5,1
    4d60:	fee79be3          	bne	a5,a4,4d56 <_Z15vmaxu_testcase1v+0xf2>
    4d64:	60000793          	li	a5,1536
    4d68:	1047a00b          	vsetcsr	zero,a5,260
    4d6c:	6785                	lui	a5,0x1
    4d6e:	80078793          	addi	a5,a5,-2048 # 800 <_Z12test_fc_procv+0x278>
    4d72:	1057a00b          	vsetcsr	zero,a5,261
    4d76:	57fd                	li	a5,-1
    4d78:	1067a00b          	vsetcsr	zero,a5,262
    4d7c:	103b200b          	vsetcsr	zero,s6,259
    4d80:	068a806b          	vmax	zero,s5,s0
    4d84:	4401                	li	s0,0
    4d86:	10001ab7          	lui	s5,0x10001
    4d8a:	10001b37          	lui	s6,0x10001
    4d8e:	10000bb7          	lui	s7,0x10000
    4d92:	10001c37          	lui	s8,0x10001
    4d96:	10000cb7          	lui	s9,0x10000
    4d9a:	10000493          	li	s1,256
    4d9e:	0009c703          	lbu	a4,0(s3)
    4da2:	00094783          	lbu	a5,0(s2)
    4da6:	04f70363          	beq	a4,a5,4dec <_Z15vmaxu_testcase1v+0x188>
    4daa:	1bd00693          	li	a3,445
    4dae:	240a8613          	addi	a2,s5,576 # 10001240 <__rodata_start__+0xfff6148>
    4db2:	efcb0593          	addi	a1,s6,-260 # 10000efc <__rodata_start__+0xfff5e04>
    4db6:	020b8513          	addi	a0,s7,32 # 10000020 <__rodata_start__+0xfff4f28>
    4dba:	72e030ef          	jal	84e8 <_Z7printf_PKcz>
    4dbe:	008a07b3          	add	a5,s4,s0
    4dc2:	00094703          	lbu	a4,0(s2)
    4dc6:	0007c783          	lbu	a5,0(a5)
    4dca:	00e7d363          	bge	a5,a4,4dd0 <_Z15vmaxu_testcase1v+0x16c>
    4dce:	87ba                	mv	a5,a4
    4dd0:	0009c703          	lbu	a4,0(s3)
    4dd4:	86a2                	mv	a3,s0
    4dd6:	8622                	mv	a2,s0
    4dd8:	85a2                	mv	a1,s0
    4dda:	284c0513          	addi	a0,s8,644 # 10001284 <__rodata_start__+0xfff618c>
    4dde:	70a030ef          	jal	84e8 <_Z7printf_PKcz>
    4de2:	058c8513          	addi	a0,s9,88 # 10000058 <__rodata_start__+0xfff4f60>
    4de6:	702030ef          	jal	84e8 <_Z7printf_PKcz>
    4dea:	9002                	ebreak
    4dec:	0405                	addi	s0,s0,1
    4dee:	0985                	addi	s3,s3,1
    4df0:	0905                	addi	s2,s2,1
    4df2:	fa9416e3          	bne	s0,s1,4d9e <_Z15vmaxu_testcase1v+0x13a>
    4df6:	10001637          	lui	a2,0x10001
    4dfa:	100015b7          	lui	a1,0x10001
    4dfe:	10000537          	lui	a0,0x10000
    4e02:	1c100693          	li	a3,449
    4e06:	24060613          	addi	a2,a2,576 # 10001240 <__rodata_start__+0xfff6148>
    4e0a:	efc58593          	addi	a1,a1,-260 # 10000efc <__rodata_start__+0xfff5e04>
    4e0e:	02050513          	addi	a0,a0,32 # 10000020 <__rodata_start__+0xfff4f28>
    4e12:	6d6030ef          	jal	84e8 <_Z7printf_PKcz>
    4e16:	10001537          	lui	a0,0x10001
    4e1a:	2b850513          	addi	a0,a0,696 # 100012b8 <__rodata_start__+0xfff61c0>
    4e1e:	6ca030ef          	jal	84e8 <_Z7printf_PKcz>
    4e22:	5462                	lw	s0,56(sp)
    4e24:	50f2                	lw	ra,60(sp)
    4e26:	54d2                	lw	s1,52(sp)
    4e28:	5942                	lw	s2,48(sp)
    4e2a:	59b2                	lw	s3,44(sp)
    4e2c:	5a22                	lw	s4,40(sp)
    4e2e:	5a92                	lw	s5,36(sp)
    4e30:	5b02                	lw	s6,32(sp)
    4e32:	4bf2                	lw	s7,28(sp)
    4e34:	4c62                	lw	s8,24(sp)
    4e36:	4cd2                	lw	s9,20(sp)
    4e38:	4d42                	lw	s10,16(sp)
    4e3a:	4db2                	lw	s11,12(sp)
    4e3c:	10000537          	lui	a0,0x10000
    4e40:	05850513          	addi	a0,a0,88 # 10000058 <__rodata_start__+0xfff4f60>
    4e44:	6121                	addi	sp,sp,64
    4e46:	6a20306f          	j	84e8 <_Z7printf_PKcz>

00004e4a <_Z14vand_testcase1v>:
    4e4a:	7139                	addi	sp,sp,-64
    4e4c:	da26                	sw	s1,52(sp)
    4e4e:	de06                	sw	ra,60(sp)
    4e50:	dc22                	sw	s0,56(sp)
    4e52:	d84a                	sw	s2,48(sp)
    4e54:	d64e                	sw	s3,44(sp)
    4e56:	d452                	sw	s4,40(sp)
    4e58:	d256                	sw	s5,36(sp)
    4e5a:	d05a                	sw	s6,32(sp)
    4e5c:	ce5e                	sw	s7,28(sp)
    4e5e:	cc62                	sw	s8,24(sp)
    4e60:	ca66                	sw	s9,20(sp)
    4e62:	c86a                	sw	s10,16(sp)
    4e64:	c66e                	sw	s11,12(sp)
    4e66:	4781                	li	a5,0
    4e68:	1001d4b7          	lui	s1,0x1001d
    4e6c:	10000693          	li	a3,256
    4e70:	04048713          	addi	a4,s1,64 # 1001d040 <waddr>
    4e74:	973e                	add	a4,a4,a5
    4e76:	00070023          	sb	zero,0(a4)
    4e7a:	0785                	addi	a5,a5,1
    4e7c:	04048c93          	addi	s9,s1,64
    4e80:	fed798e3          	bne	a5,a3,4e70 <_Z14vand_testcase1v+0x26>
    4e84:	70000793          	li	a5,1792
    4e88:	1047a00b          	vsetcsr	zero,a5,260
    4e8c:	08000793          	li	a5,128
    4e90:	1057a00b          	vsetcsr	zero,a5,261
    4e94:	57fd                	li	a5,-1
    4e96:	1067a00b          	vsetcsr	zero,a5,262
    4e9a:	103ca00b          	vsetcsr	zero,s9,259
    4e9e:	1001d437          	lui	s0,0x1001d
    4ea2:	d3040413          	addi	s0,s0,-720 # 1001cd30 <raddr1>
    4ea6:	20040c13          	addi	s8,s0,512
    4eaa:	10040413          	addi	s0,s0,256
    4eae:	0c8c006b          	vand	zero,s8,s0
    4eb2:	04048a93          	addi	s5,s1,64
    4eb6:	8a62                	mv	s4,s8
    4eb8:	89a2                	mv	s3,s0
    4eba:	8b22                	mv	s6,s0
    4ebc:	8be2                	mv	s7,s8
    4ebe:	04048493          	addi	s1,s1,64
    4ec2:	4901                	li	s2,0
    4ec4:	100018b7          	lui	a7,0x10001
    4ec8:	10001337          	lui	t1,0x10001
    4ecc:	10000e37          	lui	t3,0x10000
    4ed0:	10001d37          	lui	s10,0x10001
    4ed4:	10000db7          	lui	s11,0x10000
    4ed8:	4841                	li	a6,16
    4eda:	000b4703          	lbu	a4,0(s6)
    4ede:	000bc783          	lbu	a5,0(s7)
    4ee2:	8ff9                	and	a5,a5,a4
    4ee4:	0004c703          	lbu	a4,0(s1)
    4ee8:	04e78663          	beq	a5,a4,4f34 <_Z14vand_testcase1v+0xea>
    4eec:	2c488613          	addi	a2,a7,708 # 100012c4 <__rodata_start__+0xfff61cc>
    4ef0:	efc30593          	addi	a1,t1,-260 # 10000efc <__rodata_start__+0xfff5e04>
    4ef4:	020e0513          	addi	a0,t3,32 # 10000020 <__rodata_start__+0xfff4f28>
    4ef8:	1d700693          	li	a3,471
    4efc:	5ec030ef          	jal	84e8 <_Z7printf_PKcz>
    4f00:	000bc703          	lbu	a4,0(s7)
    4f04:	000b4783          	lbu	a5,0(s6)
    4f08:	86ca                	mv	a3,s2
    4f0a:	864a                	mv	a2,s2
    4f0c:	8ff9                	and	a5,a5,a4
    4f0e:	0004c703          	lbu	a4,0(s1)
    4f12:	85ca                	mv	a1,s2
    4f14:	2d4d0513          	addi	a0,s10,724 # 100012d4 <__rodata_start__+0xfff61dc>
    4f18:	5d0030ef          	jal	84e8 <_Z7printf_PKcz>
    4f1c:	058d8513          	addi	a0,s11,88 # 10000058 <__rodata_start__+0xfff4f60>
    4f20:	5c8030ef          	jal	84e8 <_Z7printf_PKcz>
    4f24:	9002                	ebreak
    4f26:	4841                	li	a6,16
    4f28:	100018b7          	lui	a7,0x10001
    4f2c:	10001337          	lui	t1,0x10001
    4f30:	10000e37          	lui	t3,0x10000
    4f34:	0905                	addi	s2,s2,1
    4f36:	0485                	addi	s1,s1,1
    4f38:	0b85                	addi	s7,s7,1
    4f3a:	0b05                	addi	s6,s6,1
    4f3c:	f9091fe3          	bne	s2,a6,4eda <_Z14vand_testcase1v+0x90>
    4f40:	4781                	li	a5,0
    4f42:	10000713          	li	a4,256
    4f46:	00fc86b3          	add	a3,s9,a5
    4f4a:	00068023          	sb	zero,0(a3)
    4f4e:	0785                	addi	a5,a5,1
    4f50:	fee79be3          	bne	a5,a4,4f46 <_Z14vand_testcase1v+0xfc>
    4f54:	70000793          	li	a5,1792
    4f58:	1047a00b          	vsetcsr	zero,a5,260
    4f5c:	6785                	lui	a5,0x1
    4f5e:	80078793          	addi	a5,a5,-2048 # 800 <_Z12test_fc_procv+0x278>
    4f62:	1057a00b          	vsetcsr	zero,a5,261
    4f66:	57fd                	li	a5,-1
    4f68:	1067a00b          	vsetcsr	zero,a5,262
    4f6c:	103ca00b          	vsetcsr	zero,s9,259
    4f70:	0c8c006b          	vand	zero,s8,s0
    4f74:	4401                	li	s0,0
    4f76:	10001937          	lui	s2,0x10001
    4f7a:	10001b37          	lui	s6,0x10001
    4f7e:	10000bb7          	lui	s7,0x10000
    4f82:	10001c37          	lui	s8,0x10001
    4f86:	10000cb7          	lui	s9,0x10000
    4f8a:	10000493          	li	s1,256
    4f8e:	0009c703          	lbu	a4,0(s3)
    4f92:	000a4783          	lbu	a5,0(s4)
    4f96:	8ff9                	and	a5,a5,a4
    4f98:	000ac703          	lbu	a4,0(s5)
    4f9c:	02e78f63          	beq	a5,a4,4fda <_Z14vand_testcase1v+0x190>
    4fa0:	2c490613          	addi	a2,s2,708 # 100012c4 <__rodata_start__+0xfff61cc>
    4fa4:	efcb0593          	addi	a1,s6,-260 # 10000efc <__rodata_start__+0xfff5e04>
    4fa8:	1ec00693          	li	a3,492
    4fac:	020b8513          	addi	a0,s7,32 # 10000020 <__rodata_start__+0xfff4f28>
    4fb0:	538030ef          	jal	84e8 <_Z7printf_PKcz>
    4fb4:	000a4703          	lbu	a4,0(s4)
    4fb8:	0009c783          	lbu	a5,0(s3)
    4fbc:	86a2                	mv	a3,s0
    4fbe:	8622                	mv	a2,s0
    4fc0:	8ff9                	and	a5,a5,a4
    4fc2:	000ac703          	lbu	a4,0(s5)
    4fc6:	85a2                	mv	a1,s0
    4fc8:	2d4c0513          	addi	a0,s8,724 # 100012d4 <__rodata_start__+0xfff61dc>
    4fcc:	51c030ef          	jal	84e8 <_Z7printf_PKcz>
    4fd0:	058c8513          	addi	a0,s9,88 # 10000058 <__rodata_start__+0xfff4f60>
    4fd4:	514030ef          	jal	84e8 <_Z7printf_PKcz>
    4fd8:	9002                	ebreak
    4fda:	0405                	addi	s0,s0,1
    4fdc:	0a85                	addi	s5,s5,1
    4fde:	0a05                	addi	s4,s4,1
    4fe0:	0985                	addi	s3,s3,1
    4fe2:	fa9416e3          	bne	s0,s1,4f8e <_Z14vand_testcase1v+0x144>
    4fe6:	10001637          	lui	a2,0x10001
    4fea:	100015b7          	lui	a1,0x10001
    4fee:	10000537          	lui	a0,0x10000
    4ff2:	1f000693          	li	a3,496
    4ff6:	2c460613          	addi	a2,a2,708 # 100012c4 <__rodata_start__+0xfff61cc>
    4ffa:	efc58593          	addi	a1,a1,-260 # 10000efc <__rodata_start__+0xfff5e04>
    4ffe:	02050513          	addi	a0,a0,32 # 10000020 <__rodata_start__+0xfff4f28>
    5002:	4e6030ef          	jal	84e8 <_Z7printf_PKcz>
    5006:	10001537          	lui	a0,0x10001
    500a:	30850513          	addi	a0,a0,776 # 10001308 <__rodata_start__+0xfff6210>
    500e:	4da030ef          	jal	84e8 <_Z7printf_PKcz>
    5012:	5462                	lw	s0,56(sp)
    5014:	50f2                	lw	ra,60(sp)
    5016:	54d2                	lw	s1,52(sp)
    5018:	5942                	lw	s2,48(sp)
    501a:	59b2                	lw	s3,44(sp)
    501c:	5a22                	lw	s4,40(sp)
    501e:	5a92                	lw	s5,36(sp)
    5020:	5b02                	lw	s6,32(sp)
    5022:	4bf2                	lw	s7,28(sp)
    5024:	4c62                	lw	s8,24(sp)
    5026:	4cd2                	lw	s9,20(sp)
    5028:	4d42                	lw	s10,16(sp)
    502a:	4db2                	lw	s11,12(sp)
    502c:	10000537          	lui	a0,0x10000
    5030:	05850513          	addi	a0,a0,88 # 10000058 <__rodata_start__+0xfff4f60>
    5034:	6121                	addi	sp,sp,64
    5036:	4b20306f          	j	84e8 <_Z7printf_PKcz>

0000503a <_Z13vor_testcase1v>:
    503a:	7139                	addi	sp,sp,-64
    503c:	da26                	sw	s1,52(sp)
    503e:	de06                	sw	ra,60(sp)
    5040:	dc22                	sw	s0,56(sp)
    5042:	d84a                	sw	s2,48(sp)
    5044:	d64e                	sw	s3,44(sp)
    5046:	d452                	sw	s4,40(sp)
    5048:	d256                	sw	s5,36(sp)
    504a:	d05a                	sw	s6,32(sp)
    504c:	ce5e                	sw	s7,28(sp)
    504e:	cc62                	sw	s8,24(sp)
    5050:	ca66                	sw	s9,20(sp)
    5052:	c86a                	sw	s10,16(sp)
    5054:	c66e                	sw	s11,12(sp)
    5056:	4781                	li	a5,0
    5058:	1001d4b7          	lui	s1,0x1001d
    505c:	10000693          	li	a3,256
    5060:	04048713          	addi	a4,s1,64 # 1001d040 <waddr>
    5064:	973e                	add	a4,a4,a5
    5066:	00070023          	sb	zero,0(a4)
    506a:	0785                	addi	a5,a5,1
    506c:	04048c93          	addi	s9,s1,64
    5070:	fed798e3          	bne	a5,a3,5060 <_Z13vor_testcase1v+0x26>
    5074:	70000793          	li	a5,1792
    5078:	1047a00b          	vsetcsr	zero,a5,260
    507c:	08000793          	li	a5,128
    5080:	1057a00b          	vsetcsr	zero,a5,261
    5084:	57fd                	li	a5,-1
    5086:	1067a00b          	vsetcsr	zero,a5,262
    508a:	103ca00b          	vsetcsr	zero,s9,259
    508e:	1001d437          	lui	s0,0x1001d
    5092:	d3040413          	addi	s0,s0,-720 # 1001cd30 <raddr1>
    5096:	20040c13          	addi	s8,s0,512
    509a:	10040413          	addi	s0,s0,256
    509e:	0e8c006b          	vor	zero,s8,s0
    50a2:	04048a93          	addi	s5,s1,64
    50a6:	8a62                	mv	s4,s8
    50a8:	89a2                	mv	s3,s0
    50aa:	8b22                	mv	s6,s0
    50ac:	8be2                	mv	s7,s8
    50ae:	04048493          	addi	s1,s1,64
    50b2:	4901                	li	s2,0
    50b4:	100018b7          	lui	a7,0x10001
    50b8:	10001337          	lui	t1,0x10001
    50bc:	10000e37          	lui	t3,0x10000
    50c0:	10001d37          	lui	s10,0x10001
    50c4:	10000db7          	lui	s11,0x10000
    50c8:	4841                	li	a6,16
    50ca:	000b4703          	lbu	a4,0(s6)
    50ce:	000bc783          	lbu	a5,0(s7)
    50d2:	8fd9                	or	a5,a5,a4
    50d4:	0004c703          	lbu	a4,0(s1)
    50d8:	04e78663          	beq	a5,a4,5124 <_Z13vor_testcase1v+0xea>
    50dc:	31488613          	addi	a2,a7,788 # 10001314 <__rodata_start__+0xfff621c>
    50e0:	efc30593          	addi	a1,t1,-260 # 10000efc <__rodata_start__+0xfff5e04>
    50e4:	020e0513          	addi	a0,t3,32 # 10000020 <__rodata_start__+0xfff4f28>
    50e8:	20600693          	li	a3,518
    50ec:	3fc030ef          	jal	84e8 <_Z7printf_PKcz>
    50f0:	000bc703          	lbu	a4,0(s7)
    50f4:	000b4783          	lbu	a5,0(s6)
    50f8:	86ca                	mv	a3,s2
    50fa:	864a                	mv	a2,s2
    50fc:	8fd9                	or	a5,a5,a4
    50fe:	0004c703          	lbu	a4,0(s1)
    5102:	85ca                	mv	a1,s2
    5104:	324d0513          	addi	a0,s10,804 # 10001324 <__rodata_start__+0xfff622c>
    5108:	3e0030ef          	jal	84e8 <_Z7printf_PKcz>
    510c:	058d8513          	addi	a0,s11,88 # 10000058 <__rodata_start__+0xfff4f60>
    5110:	3d8030ef          	jal	84e8 <_Z7printf_PKcz>
    5114:	9002                	ebreak
    5116:	4841                	li	a6,16
    5118:	100018b7          	lui	a7,0x10001
    511c:	10001337          	lui	t1,0x10001
    5120:	10000e37          	lui	t3,0x10000
    5124:	0905                	addi	s2,s2,1
    5126:	0485                	addi	s1,s1,1
    5128:	0b85                	addi	s7,s7,1
    512a:	0b05                	addi	s6,s6,1
    512c:	f9091fe3          	bne	s2,a6,50ca <_Z13vor_testcase1v+0x90>
    5130:	4781                	li	a5,0
    5132:	10000713          	li	a4,256
    5136:	00fc86b3          	add	a3,s9,a5
    513a:	00068023          	sb	zero,0(a3)
    513e:	0785                	addi	a5,a5,1
    5140:	fee79be3          	bne	a5,a4,5136 <_Z13vor_testcase1v+0xfc>
    5144:	70000793          	li	a5,1792
    5148:	1047a00b          	vsetcsr	zero,a5,260
    514c:	6785                	lui	a5,0x1
    514e:	80078793          	addi	a5,a5,-2048 # 800 <_Z12test_fc_procv+0x278>
    5152:	1057a00b          	vsetcsr	zero,a5,261
    5156:	57fd                	li	a5,-1
    5158:	1067a00b          	vsetcsr	zero,a5,262
    515c:	103ca00b          	vsetcsr	zero,s9,259
    5160:	0e8c006b          	vor	zero,s8,s0
    5164:	4401                	li	s0,0
    5166:	10001937          	lui	s2,0x10001
    516a:	10001b37          	lui	s6,0x10001
    516e:	10000bb7          	lui	s7,0x10000
    5172:	10001c37          	lui	s8,0x10001
    5176:	10000cb7          	lui	s9,0x10000
    517a:	10000493          	li	s1,256
    517e:	0009c703          	lbu	a4,0(s3)
    5182:	000a4783          	lbu	a5,0(s4)
    5186:	8fd9                	or	a5,a5,a4
    5188:	000ac703          	lbu	a4,0(s5)
    518c:	02e78f63          	beq	a5,a4,51ca <_Z13vor_testcase1v+0x190>
    5190:	31490613          	addi	a2,s2,788 # 10001314 <__rodata_start__+0xfff621c>
    5194:	efcb0593          	addi	a1,s6,-260 # 10000efc <__rodata_start__+0xfff5e04>
    5198:	21b00693          	li	a3,539
    519c:	020b8513          	addi	a0,s7,32 # 10000020 <__rodata_start__+0xfff4f28>
    51a0:	348030ef          	jal	84e8 <_Z7printf_PKcz>
    51a4:	000a4703          	lbu	a4,0(s4)
    51a8:	0009c783          	lbu	a5,0(s3)
    51ac:	86a2                	mv	a3,s0
    51ae:	8622                	mv	a2,s0
    51b0:	8fd9                	or	a5,a5,a4
    51b2:	000ac703          	lbu	a4,0(s5)
    51b6:	85a2                	mv	a1,s0
    51b8:	324c0513          	addi	a0,s8,804 # 10001324 <__rodata_start__+0xfff622c>
    51bc:	32c030ef          	jal	84e8 <_Z7printf_PKcz>
    51c0:	058c8513          	addi	a0,s9,88 # 10000058 <__rodata_start__+0xfff4f60>
    51c4:	324030ef          	jal	84e8 <_Z7printf_PKcz>
    51c8:	9002                	ebreak
    51ca:	0405                	addi	s0,s0,1
    51cc:	0a85                	addi	s5,s5,1
    51ce:	0a05                	addi	s4,s4,1
    51d0:	0985                	addi	s3,s3,1
    51d2:	fa9416e3          	bne	s0,s1,517e <_Z13vor_testcase1v+0x144>
    51d6:	10001637          	lui	a2,0x10001
    51da:	100015b7          	lui	a1,0x10001
    51de:	10000537          	lui	a0,0x10000
    51e2:	21f00693          	li	a3,543
    51e6:	31460613          	addi	a2,a2,788 # 10001314 <__rodata_start__+0xfff621c>
    51ea:	efc58593          	addi	a1,a1,-260 # 10000efc <__rodata_start__+0xfff5e04>
    51ee:	02050513          	addi	a0,a0,32 # 10000020 <__rodata_start__+0xfff4f28>
    51f2:	2f6030ef          	jal	84e8 <_Z7printf_PKcz>
    51f6:	10001537          	lui	a0,0x10001
    51fa:	35850513          	addi	a0,a0,856 # 10001358 <__rodata_start__+0xfff6260>
    51fe:	2ea030ef          	jal	84e8 <_Z7printf_PKcz>
    5202:	5462                	lw	s0,56(sp)
    5204:	50f2                	lw	ra,60(sp)
    5206:	54d2                	lw	s1,52(sp)
    5208:	5942                	lw	s2,48(sp)
    520a:	59b2                	lw	s3,44(sp)
    520c:	5a22                	lw	s4,40(sp)
    520e:	5a92                	lw	s5,36(sp)
    5210:	5b02                	lw	s6,32(sp)
    5212:	4bf2                	lw	s7,28(sp)
    5214:	4c62                	lw	s8,24(sp)
    5216:	4cd2                	lw	s9,20(sp)
    5218:	4d42                	lw	s10,16(sp)
    521a:	4db2                	lw	s11,12(sp)
    521c:	10000537          	lui	a0,0x10000
    5220:	05850513          	addi	a0,a0,88 # 10000058 <__rodata_start__+0xfff4f60>
    5224:	6121                	addi	sp,sp,64
    5226:	2c20306f          	j	84e8 <_Z7printf_PKcz>

0000522a <_Z14vxor_testcase1v>:
    522a:	7139                	addi	sp,sp,-64
    522c:	da26                	sw	s1,52(sp)
    522e:	de06                	sw	ra,60(sp)
    5230:	dc22                	sw	s0,56(sp)
    5232:	d84a                	sw	s2,48(sp)
    5234:	d64e                	sw	s3,44(sp)
    5236:	d452                	sw	s4,40(sp)
    5238:	d256                	sw	s5,36(sp)
    523a:	d05a                	sw	s6,32(sp)
    523c:	ce5e                	sw	s7,28(sp)
    523e:	cc62                	sw	s8,24(sp)
    5240:	ca66                	sw	s9,20(sp)
    5242:	c86a                	sw	s10,16(sp)
    5244:	c66e                	sw	s11,12(sp)
    5246:	4781                	li	a5,0
    5248:	1001d4b7          	lui	s1,0x1001d
    524c:	10000693          	li	a3,256
    5250:	04048713          	addi	a4,s1,64 # 1001d040 <waddr>
    5254:	973e                	add	a4,a4,a5
    5256:	00070023          	sb	zero,0(a4)
    525a:	0785                	addi	a5,a5,1
    525c:	04048c93          	addi	s9,s1,64
    5260:	fed798e3          	bne	a5,a3,5250 <_Z14vxor_testcase1v+0x26>
    5264:	70000793          	li	a5,1792
    5268:	1047a00b          	vsetcsr	zero,a5,260
    526c:	08000793          	li	a5,128
    5270:	1057a00b          	vsetcsr	zero,a5,261
    5274:	57fd                	li	a5,-1
    5276:	1067a00b          	vsetcsr	zero,a5,262
    527a:	103ca00b          	vsetcsr	zero,s9,259
    527e:	1001d437          	lui	s0,0x1001d
    5282:	d3040413          	addi	s0,s0,-720 # 1001cd30 <raddr1>
    5286:	20040c13          	addi	s8,s0,512
    528a:	10040413          	addi	s0,s0,256
    528e:	108c006b          	vxor	zero,s8,s0
    5292:	04048a93          	addi	s5,s1,64
    5296:	8a62                	mv	s4,s8
    5298:	89a2                	mv	s3,s0
    529a:	8b22                	mv	s6,s0
    529c:	8be2                	mv	s7,s8
    529e:	04048493          	addi	s1,s1,64
    52a2:	4901                	li	s2,0
    52a4:	100018b7          	lui	a7,0x10001
    52a8:	10001337          	lui	t1,0x10001
    52ac:	10000e37          	lui	t3,0x10000
    52b0:	10001d37          	lui	s10,0x10001
    52b4:	10000db7          	lui	s11,0x10000
    52b8:	4841                	li	a6,16
    52ba:	000bc703          	lbu	a4,0(s7)
    52be:	0004c783          	lbu	a5,0(s1)
    52c2:	8fb9                	xor	a5,a5,a4
    52c4:	000b4703          	lbu	a4,0(s6)
    52c8:	04e78663          	beq	a5,a4,5314 <_Z14vxor_testcase1v+0xea>
    52cc:	36488613          	addi	a2,a7,868 # 10001364 <__rodata_start__+0xfff626c>
    52d0:	efc30593          	addi	a1,t1,-260 # 10000efc <__rodata_start__+0xfff5e04>
    52d4:	020e0513          	addi	a0,t3,32 # 10000020 <__rodata_start__+0xfff4f28>
    52d8:	23500693          	li	a3,565
    52dc:	20c030ef          	jal	84e8 <_Z7printf_PKcz>
    52e0:	000bc703          	lbu	a4,0(s7)
    52e4:	000b4783          	lbu	a5,0(s6)
    52e8:	86ca                	mv	a3,s2
    52ea:	864a                	mv	a2,s2
    52ec:	8fb9                	xor	a5,a5,a4
    52ee:	0004c703          	lbu	a4,0(s1)
    52f2:	85ca                	mv	a1,s2
    52f4:	374d0513          	addi	a0,s10,884 # 10001374 <__rodata_start__+0xfff627c>
    52f8:	1f0030ef          	jal	84e8 <_Z7printf_PKcz>
    52fc:	058d8513          	addi	a0,s11,88 # 10000058 <__rodata_start__+0xfff4f60>
    5300:	1e8030ef          	jal	84e8 <_Z7printf_PKcz>
    5304:	9002                	ebreak
    5306:	4841                	li	a6,16
    5308:	100018b7          	lui	a7,0x10001
    530c:	10001337          	lui	t1,0x10001
    5310:	10000e37          	lui	t3,0x10000
    5314:	0905                	addi	s2,s2,1
    5316:	0485                	addi	s1,s1,1
    5318:	0b85                	addi	s7,s7,1
    531a:	0b05                	addi	s6,s6,1
    531c:	f9091fe3          	bne	s2,a6,52ba <_Z14vxor_testcase1v+0x90>
    5320:	4781                	li	a5,0
    5322:	10000713          	li	a4,256
    5326:	00fc86b3          	add	a3,s9,a5
    532a:	00068023          	sb	zero,0(a3)
    532e:	0785                	addi	a5,a5,1
    5330:	fee79be3          	bne	a5,a4,5326 <_Z14vxor_testcase1v+0xfc>
    5334:	70000793          	li	a5,1792
    5338:	1047a00b          	vsetcsr	zero,a5,260
    533c:	6785                	lui	a5,0x1
    533e:	80078793          	addi	a5,a5,-2048 # 800 <_Z12test_fc_procv+0x278>
    5342:	1057a00b          	vsetcsr	zero,a5,261
    5346:	57fd                	li	a5,-1
    5348:	1067a00b          	vsetcsr	zero,a5,262
    534c:	103ca00b          	vsetcsr	zero,s9,259
    5350:	108c006b          	vxor	zero,s8,s0
    5354:	4401                	li	s0,0
    5356:	10001937          	lui	s2,0x10001
    535a:	10001b37          	lui	s6,0x10001
    535e:	10000bb7          	lui	s7,0x10000
    5362:	10001c37          	lui	s8,0x10001
    5366:	10000cb7          	lui	s9,0x10000
    536a:	10000493          	li	s1,256
    536e:	000a4703          	lbu	a4,0(s4)
    5372:	000ac783          	lbu	a5,0(s5)
    5376:	8fb9                	xor	a5,a5,a4
    5378:	0009c703          	lbu	a4,0(s3)
    537c:	02e78f63          	beq	a5,a4,53ba <_Z14vxor_testcase1v+0x190>
    5380:	36490613          	addi	a2,s2,868 # 10001364 <__rodata_start__+0xfff626c>
    5384:	efcb0593          	addi	a1,s6,-260 # 10000efc <__rodata_start__+0xfff5e04>
    5388:	24a00693          	li	a3,586
    538c:	020b8513          	addi	a0,s7,32 # 10000020 <__rodata_start__+0xfff4f28>
    5390:	158030ef          	jal	84e8 <_Z7printf_PKcz>
    5394:	000a4703          	lbu	a4,0(s4)
    5398:	0009c783          	lbu	a5,0(s3)
    539c:	86a2                	mv	a3,s0
    539e:	8622                	mv	a2,s0
    53a0:	8fb9                	xor	a5,a5,a4
    53a2:	000ac703          	lbu	a4,0(s5)
    53a6:	85a2                	mv	a1,s0
    53a8:	374c0513          	addi	a0,s8,884 # 10001374 <__rodata_start__+0xfff627c>
    53ac:	13c030ef          	jal	84e8 <_Z7printf_PKcz>
    53b0:	058c8513          	addi	a0,s9,88 # 10000058 <__rodata_start__+0xfff4f60>
    53b4:	134030ef          	jal	84e8 <_Z7printf_PKcz>
    53b8:	9002                	ebreak
    53ba:	0405                	addi	s0,s0,1
    53bc:	0a85                	addi	s5,s5,1
    53be:	0a05                	addi	s4,s4,1
    53c0:	0985                	addi	s3,s3,1
    53c2:	fa9416e3          	bne	s0,s1,536e <_Z14vxor_testcase1v+0x144>
    53c6:	10001637          	lui	a2,0x10001
    53ca:	100015b7          	lui	a1,0x10001
    53ce:	10000537          	lui	a0,0x10000
    53d2:	24e00693          	li	a3,590
    53d6:	36460613          	addi	a2,a2,868 # 10001364 <__rodata_start__+0xfff626c>
    53da:	efc58593          	addi	a1,a1,-260 # 10000efc <__rodata_start__+0xfff5e04>
    53de:	02050513          	addi	a0,a0,32 # 10000020 <__rodata_start__+0xfff4f28>
    53e2:	106030ef          	jal	84e8 <_Z7printf_PKcz>
    53e6:	10001537          	lui	a0,0x10001
    53ea:	3a850513          	addi	a0,a0,936 # 100013a8 <__rodata_start__+0xfff62b0>
    53ee:	0fa030ef          	jal	84e8 <_Z7printf_PKcz>
    53f2:	5462                	lw	s0,56(sp)
    53f4:	50f2                	lw	ra,60(sp)
    53f6:	54d2                	lw	s1,52(sp)
    53f8:	5942                	lw	s2,48(sp)
    53fa:	59b2                	lw	s3,44(sp)
    53fc:	5a22                	lw	s4,40(sp)
    53fe:	5a92                	lw	s5,36(sp)
    5400:	5b02                	lw	s6,32(sp)
    5402:	4bf2                	lw	s7,28(sp)
    5404:	4c62                	lw	s8,24(sp)
    5406:	4cd2                	lw	s9,20(sp)
    5408:	4d42                	lw	s10,16(sp)
    540a:	4db2                	lw	s11,12(sp)
    540c:	10000537          	lui	a0,0x10000
    5410:	05850513          	addi	a0,a0,88 # 10000058 <__rodata_start__+0xfff4f60>
    5414:	6121                	addi	sp,sp,64
    5416:	0d20306f          	j	84e8 <_Z7printf_PKcz>

0000541a <_Z13vmv_testcase1v>:
    541a:	7139                	addi	sp,sp,-64
    541c:	dc22                	sw	s0,56(sp)
    541e:	de06                	sw	ra,60(sp)
    5420:	da26                	sw	s1,52(sp)
    5422:	d84a                	sw	s2,48(sp)
    5424:	d64e                	sw	s3,44(sp)
    5426:	d452                	sw	s4,40(sp)
    5428:	d256                	sw	s5,36(sp)
    542a:	d05a                	sw	s6,32(sp)
    542c:	ce5e                	sw	s7,28(sp)
    542e:	cc62                	sw	s8,24(sp)
    5430:	ca66                	sw	s9,20(sp)
    5432:	c86a                	sw	s10,16(sp)
    5434:	c66e                	sw	s11,12(sp)
    5436:	4781                	li	a5,0
    5438:	1001d437          	lui	s0,0x1001d
    543c:	10000693          	li	a3,256
    5440:	04040713          	addi	a4,s0,64 # 1001d040 <waddr>
    5444:	973e                	add	a4,a4,a5
    5446:	00070023          	sb	zero,0(a4)
    544a:	0785                	addi	a5,a5,1
    544c:	04040b13          	addi	s6,s0,64
    5450:	fed798e3          	bne	a5,a3,5440 <_Z13vmv_testcase1v+0x26>
    5454:	70000793          	li	a5,1792
    5458:	1047a00b          	vsetcsr	zero,a5,260
    545c:	08000793          	li	a5,128
    5460:	1057a00b          	vsetcsr	zero,a5,261
    5464:	57fd                	li	a5,-1
    5466:	1067a00b          	vsetcsr	zero,a5,262
    546a:	1001d4b7          	lui	s1,0x1001d
    546e:	e3048493          	addi	s1,s1,-464 # 1001ce30 <raddr4>
    5472:	1764806b          	vmv	zero,s1,s6
    5476:	04040a13          	addi	s4,s0,64
    547a:	89a6                	mv	s3,s1
    547c:	8aa6                	mv	s5,s1
    547e:	04040413          	addi	s0,s0,64
    5482:	4901                	li	s2,0
    5484:	10001c37          	lui	s8,0x10001
    5488:	10001cb7          	lui	s9,0x10001
    548c:	100007b7          	lui	a5,0x10000
    5490:	10001d37          	lui	s10,0x10001
    5494:	10000db7          	lui	s11,0x10000
    5498:	4bc1                	li	s7,16
    549a:	00044683          	lbu	a3,0(s0)
    549e:	000ac703          	lbu	a4,0(s5)
    54a2:	02e68d63          	beq	a3,a4,54dc <_Z13vmv_testcase1v+0xc2>
    54a6:	02078513          	addi	a0,a5,32 # 10000020 <__rodata_start__+0xfff4f28>
    54aa:	3b4c0613          	addi	a2,s8,948 # 100013b4 <__rodata_start__+0xfff62bc>
    54ae:	efcc8593          	addi	a1,s9,-260 # 10000efc <__rodata_start__+0xfff5e04>
    54b2:	26200693          	li	a3,610
    54b6:	032030ef          	jal	84e8 <_Z7printf_PKcz>
    54ba:	000ac703          	lbu	a4,0(s5)
    54be:	00044683          	lbu	a3,0(s0)
    54c2:	864a                	mv	a2,s2
    54c4:	85ca                	mv	a1,s2
    54c6:	3c4d0513          	addi	a0,s10,964 # 100013c4 <__rodata_start__+0xfff62cc>
    54ca:	01e030ef          	jal	84e8 <_Z7printf_PKcz>
    54ce:	058d8513          	addi	a0,s11,88 # 10000058 <__rodata_start__+0xfff4f60>
    54d2:	016030ef          	jal	84e8 <_Z7printf_PKcz>
    54d6:	9002                	ebreak
    54d8:	100007b7          	lui	a5,0x10000
    54dc:	0905                	addi	s2,s2,1
    54de:	0405                	addi	s0,s0,1
    54e0:	0a85                	addi	s5,s5,1
    54e2:	fb791ce3          	bne	s2,s7,549a <_Z13vmv_testcase1v+0x80>
    54e6:	4781                	li	a5,0
    54e8:	10000713          	li	a4,256
    54ec:	00fb06b3          	add	a3,s6,a5
    54f0:	00068023          	sb	zero,0(a3)
    54f4:	0785                	addi	a5,a5,1 # 10000001 <__rodata_start__+0xfff4f09>
    54f6:	fee79be3          	bne	a5,a4,54ec <_Z13vmv_testcase1v+0xd2>
    54fa:	70000793          	li	a5,1792
    54fe:	1047a00b          	vsetcsr	zero,a5,260
    5502:	6785                	lui	a5,0x1
    5504:	80078793          	addi	a5,a5,-2048 # 800 <_Z12test_fc_procv+0x278>
    5508:	1057a00b          	vsetcsr	zero,a5,261
    550c:	57fd                	li	a5,-1
    550e:	1067a00b          	vsetcsr	zero,a5,262
    5512:	1764806b          	vmv	zero,s1,s6
    5516:	4401                	li	s0,0
    5518:	10001937          	lui	s2,0x10001
    551c:	10001ab7          	lui	s5,0x10001
    5520:	10000b37          	lui	s6,0x10000
    5524:	10001bb7          	lui	s7,0x10001
    5528:	10000c37          	lui	s8,0x10000
    552c:	10000493          	li	s1,256
    5530:	000a4703          	lbu	a4,0(s4)
    5534:	0009c783          	lbu	a5,0(s3)
    5538:	02f70b63          	beq	a4,a5,556e <_Z13vmv_testcase1v+0x154>
    553c:	3b490613          	addi	a2,s2,948 # 100013b4 <__rodata_start__+0xfff62bc>
    5540:	efca8593          	addi	a1,s5,-260 # 10000efc <__rodata_start__+0xfff5e04>
    5544:	27600693          	li	a3,630
    5548:	020b0513          	addi	a0,s6,32 # 10000020 <__rodata_start__+0xfff4f28>
    554c:	79d020ef          	jal	84e8 <_Z7printf_PKcz>
    5550:	0009c703          	lbu	a4,0(s3)
    5554:	000a4683          	lbu	a3,0(s4)
    5558:	8622                	mv	a2,s0
    555a:	85a2                	mv	a1,s0
    555c:	3c4b8513          	addi	a0,s7,964 # 100013c4 <__rodata_start__+0xfff62cc>
    5560:	789020ef          	jal	84e8 <_Z7printf_PKcz>
    5564:	058c0513          	addi	a0,s8,88 # 10000058 <__rodata_start__+0xfff4f60>
    5568:	781020ef          	jal	84e8 <_Z7printf_PKcz>
    556c:	9002                	ebreak
    556e:	0405                	addi	s0,s0,1
    5570:	0a05                	addi	s4,s4,1
    5572:	0985                	addi	s3,s3,1
    5574:	fa941ee3          	bne	s0,s1,5530 <_Z13vmv_testcase1v+0x116>
    5578:	10001637          	lui	a2,0x10001
    557c:	100015b7          	lui	a1,0x10001
    5580:	10000537          	lui	a0,0x10000
    5584:	27a00693          	li	a3,634
    5588:	3b460613          	addi	a2,a2,948 # 100013b4 <__rodata_start__+0xfff62bc>
    558c:	efc58593          	addi	a1,a1,-260 # 10000efc <__rodata_start__+0xfff5e04>
    5590:	02050513          	addi	a0,a0,32 # 10000020 <__rodata_start__+0xfff4f28>
    5594:	755020ef          	jal	84e8 <_Z7printf_PKcz>
    5598:	10001537          	lui	a0,0x10001
    559c:	3e850513          	addi	a0,a0,1000 # 100013e8 <__rodata_start__+0xfff62f0>
    55a0:	749020ef          	jal	84e8 <_Z7printf_PKcz>
    55a4:	5462                	lw	s0,56(sp)
    55a6:	50f2                	lw	ra,60(sp)
    55a8:	54d2                	lw	s1,52(sp)
    55aa:	5942                	lw	s2,48(sp)
    55ac:	59b2                	lw	s3,44(sp)
    55ae:	5a22                	lw	s4,40(sp)
    55b0:	5a92                	lw	s5,36(sp)
    55b2:	5b02                	lw	s6,32(sp)
    55b4:	4bf2                	lw	s7,28(sp)
    55b6:	4c62                	lw	s8,24(sp)
    55b8:	4cd2                	lw	s9,20(sp)
    55ba:	4d42                	lw	s10,16(sp)
    55bc:	4db2                	lw	s11,12(sp)
    55be:	10000537          	lui	a0,0x10000
    55c2:	05850513          	addi	a0,a0,88 # 10000058 <__rodata_start__+0xfff4f60>
    55c6:	6121                	addi	sp,sp,64
    55c8:	7210206f          	j	84e8 <_Z7printf_PKcz>

000055cc <_Z15vssrl_testcase1v>:
    55cc:	7139                	addi	sp,sp,-64
    55ce:	dc22                	sw	s0,56(sp)
    55d0:	de06                	sw	ra,60(sp)
    55d2:	da26                	sw	s1,52(sp)
    55d4:	d84a                	sw	s2,48(sp)
    55d6:	d64e                	sw	s3,44(sp)
    55d8:	d452                	sw	s4,40(sp)
    55da:	d256                	sw	s5,36(sp)
    55dc:	d05a                	sw	s6,32(sp)
    55de:	ce5e                	sw	s7,28(sp)
    55e0:	cc62                	sw	s8,24(sp)
    55e2:	ca66                	sw	s9,20(sp)
    55e4:	c86a                	sw	s10,16(sp)
    55e6:	c66e                	sw	s11,12(sp)
    55e8:	4781                	li	a5,0
    55ea:	1001d437          	lui	s0,0x1001d
    55ee:	10000693          	li	a3,256
    55f2:	04040713          	addi	a4,s0,64 # 1001d040 <waddr>
    55f6:	973e                	add	a4,a4,a5
    55f8:	00070023          	sb	zero,0(a4)
    55fc:	0785                	addi	a5,a5,1
    55fe:	04040a93          	addi	s5,s0,64
    5602:	fed798e3          	bne	a5,a3,55f2 <_Z15vssrl_testcase1v+0x26>
    5606:	70000793          	li	a5,1792
    560a:	1047a00b          	vsetcsr	zero,a5,260
    560e:	08000793          	li	a5,128
    5612:	1057a00b          	vsetcsr	zero,a5,261
    5616:	57fd                	li	a5,-1
    5618:	1067a00b          	vsetcsr	zero,a5,262
    561c:	103aa00b          	vsetcsr	zero,s5,259
    5620:	1001d4b7          	lui	s1,0x1001d
    5624:	d3048b13          	addi	s6,s1,-720 # 1001cd30 <raddr1>
    5628:	4785                	li	a5,1
    562a:	1967806b          	vssrl	zero,a5,s6
    562e:	04040a13          	addi	s4,s0,64
    5632:	d3048993          	addi	s3,s1,-720
    5636:	04040413          	addi	s0,s0,64
    563a:	d3048493          	addi	s1,s1,-720
    563e:	4901                	li	s2,0
    5640:	10001d37          	lui	s10,0x10001
    5644:	10001db7          	lui	s11,0x10001
    5648:	10000837          	lui	a6,0x10000
    564c:	10001c37          	lui	s8,0x10001
    5650:	10000cb7          	lui	s9,0x10000
    5654:	4bc1                	li	s7,16
    5656:	0004c783          	lbu	a5,0(s1)
    565a:	00044703          	lbu	a4,0(s0)
    565e:	8385                	srli	a5,a5,0x1
    5660:	02f70e63          	beq	a4,a5,569c <_Z15vssrl_testcase1v+0xd0>
    5664:	02080513          	addi	a0,a6,32 # 10000020 <__rodata_start__+0xfff4f28>
    5668:	3f4d0613          	addi	a2,s10,1012 # 100013f4 <__rodata_start__+0xfff62fc>
    566c:	efcd8593          	addi	a1,s11,-260 # 10000efc <__rodata_start__+0xfff5e04>
    5670:	28e00693          	li	a3,654
    5674:	675020ef          	jal	84e8 <_Z7printf_PKcz>
    5678:	0004c703          	lbu	a4,0(s1)
    567c:	00044683          	lbu	a3,0(s0)
    5680:	864a                	mv	a2,s2
    5682:	8305                	srli	a4,a4,0x1
    5684:	85ca                	mv	a1,s2
    5686:	404c0513          	addi	a0,s8,1028 # 10001404 <__rodata_start__+0xfff630c>
    568a:	65f020ef          	jal	84e8 <_Z7printf_PKcz>
    568e:	058c8513          	addi	a0,s9,88 # 10000058 <__rodata_start__+0xfff4f60>
    5692:	657020ef          	jal	84e8 <_Z7printf_PKcz>
    5696:	9002                	ebreak
    5698:	10000837          	lui	a6,0x10000
    569c:	0905                	addi	s2,s2,1
    569e:	0405                	addi	s0,s0,1
    56a0:	0485                	addi	s1,s1,1
    56a2:	fb791ae3          	bne	s2,s7,5656 <_Z15vssrl_testcase1v+0x8a>
    56a6:	4781                	li	a5,0
    56a8:	10000713          	li	a4,256
    56ac:	00fa86b3          	add	a3,s5,a5
    56b0:	00068023          	sb	zero,0(a3)
    56b4:	0785                	addi	a5,a5,1
    56b6:	fee79be3          	bne	a5,a4,56ac <_Z15vssrl_testcase1v+0xe0>
    56ba:	70000793          	li	a5,1792
    56be:	1047a00b          	vsetcsr	zero,a5,260
    56c2:	6785                	lui	a5,0x1
    56c4:	80078793          	addi	a5,a5,-2048 # 800 <_Z12test_fc_procv+0x278>
    56c8:	1057a00b          	vsetcsr	zero,a5,261
    56cc:	57fd                	li	a5,-1
    56ce:	1067a00b          	vsetcsr	zero,a5,262
    56d2:	103aa00b          	vsetcsr	zero,s5,259
    56d6:	4785                	li	a5,1
    56d8:	1967806b          	vssrl	zero,a5,s6
    56dc:	4401                	li	s0,0
    56de:	10001937          	lui	s2,0x10001
    56e2:	10001ab7          	lui	s5,0x10001
    56e6:	10000b37          	lui	s6,0x10000
    56ea:	10001bb7          	lui	s7,0x10001
    56ee:	10000c37          	lui	s8,0x10000
    56f2:	10000493          	li	s1,256
    56f6:	0009c783          	lbu	a5,0(s3)
    56fa:	000a4703          	lbu	a4,0(s4)
    56fe:	8385                	srli	a5,a5,0x1
    5700:	02f70c63          	beq	a4,a5,5738 <_Z15vssrl_testcase1v+0x16c>
    5704:	3f490613          	addi	a2,s2,1012 # 100013f4 <__rodata_start__+0xfff62fc>
    5708:	efca8593          	addi	a1,s5,-260 # 10000efc <__rodata_start__+0xfff5e04>
    570c:	2a300693          	li	a3,675
    5710:	020b0513          	addi	a0,s6,32 # 10000020 <__rodata_start__+0xfff4f28>
    5714:	5d5020ef          	jal	84e8 <_Z7printf_PKcz>
    5718:	0009c703          	lbu	a4,0(s3)
    571c:	000a4683          	lbu	a3,0(s4)
    5720:	8622                	mv	a2,s0
    5722:	8305                	srli	a4,a4,0x1
    5724:	85a2                	mv	a1,s0
    5726:	404b8513          	addi	a0,s7,1028 # 10001404 <__rodata_start__+0xfff630c>
    572a:	5bf020ef          	jal	84e8 <_Z7printf_PKcz>
    572e:	058c0513          	addi	a0,s8,88 # 10000058 <__rodata_start__+0xfff4f60>
    5732:	5b7020ef          	jal	84e8 <_Z7printf_PKcz>
    5736:	9002                	ebreak
    5738:	0405                	addi	s0,s0,1
    573a:	0a05                	addi	s4,s4,1
    573c:	0985                	addi	s3,s3,1
    573e:	fa941ce3          	bne	s0,s1,56f6 <_Z15vssrl_testcase1v+0x12a>
    5742:	10001637          	lui	a2,0x10001
    5746:	100015b7          	lui	a1,0x10001
    574a:	10000537          	lui	a0,0x10000
    574e:	2a700693          	li	a3,679
    5752:	3f460613          	addi	a2,a2,1012 # 100013f4 <__rodata_start__+0xfff62fc>
    5756:	efc58593          	addi	a1,a1,-260 # 10000efc <__rodata_start__+0xfff5e04>
    575a:	02050513          	addi	a0,a0,32 # 10000020 <__rodata_start__+0xfff4f28>
    575e:	58b020ef          	jal	84e8 <_Z7printf_PKcz>
    5762:	10001537          	lui	a0,0x10001
    5766:	43050513          	addi	a0,a0,1072 # 10001430 <__rodata_start__+0xfff6338>
    576a:	57f020ef          	jal	84e8 <_Z7printf_PKcz>
    576e:	5462                	lw	s0,56(sp)
    5770:	50f2                	lw	ra,60(sp)
    5772:	54d2                	lw	s1,52(sp)
    5774:	5942                	lw	s2,48(sp)
    5776:	59b2                	lw	s3,44(sp)
    5778:	5a22                	lw	s4,40(sp)
    577a:	5a92                	lw	s5,36(sp)
    577c:	5b02                	lw	s6,32(sp)
    577e:	4bf2                	lw	s7,28(sp)
    5780:	4c62                	lw	s8,24(sp)
    5782:	4cd2                	lw	s9,20(sp)
    5784:	4d42                	lw	s10,16(sp)
    5786:	4db2                	lw	s11,12(sp)
    5788:	10000537          	lui	a0,0x10000
    578c:	05850513          	addi	a0,a0,88 # 10000058 <__rodata_start__+0xfff4f60>
    5790:	6121                	addi	sp,sp,64
    5792:	5570206f          	j	84e8 <_Z7printf_PKcz>

00005796 <_Z15vssra_testcase1v>:
    5796:	7139                	addi	sp,sp,-64
    5798:	dc22                	sw	s0,56(sp)
    579a:	de06                	sw	ra,60(sp)
    579c:	da26                	sw	s1,52(sp)
    579e:	d84a                	sw	s2,48(sp)
    57a0:	d64e                	sw	s3,44(sp)
    57a2:	d452                	sw	s4,40(sp)
    57a4:	d256                	sw	s5,36(sp)
    57a6:	d05a                	sw	s6,32(sp)
    57a8:	ce5e                	sw	s7,28(sp)
    57aa:	cc62                	sw	s8,24(sp)
    57ac:	ca66                	sw	s9,20(sp)
    57ae:	c86a                	sw	s10,16(sp)
    57b0:	c66e                	sw	s11,12(sp)
    57b2:	4781                	li	a5,0
    57b4:	1001d437          	lui	s0,0x1001d
    57b8:	10000693          	li	a3,256
    57bc:	04040713          	addi	a4,s0,64 # 1001d040 <waddr>
    57c0:	973e                	add	a4,a4,a5
    57c2:	00070023          	sb	zero,0(a4)
    57c6:	0785                	addi	a5,a5,1
    57c8:	04040a93          	addi	s5,s0,64
    57cc:	fed798e3          	bne	a5,a3,57bc <_Z15vssra_testcase1v+0x26>
    57d0:	70000793          	li	a5,1792
    57d4:	1047a00b          	vsetcsr	zero,a5,260
    57d8:	08000793          	li	a5,128
    57dc:	1057a00b          	vsetcsr	zero,a5,261
    57e0:	57fd                	li	a5,-1
    57e2:	1067a00b          	vsetcsr	zero,a5,262
    57e6:	103aa00b          	vsetcsr	zero,s5,259
    57ea:	1001d4b7          	lui	s1,0x1001d
    57ee:	d3048c13          	addi	s8,s1,-720 # 1001cd30 <raddr1>
    57f2:	4785                	li	a5,1
    57f4:	1b87806b          	vssra	zero,a5,s8
    57f8:	04040993          	addi	s3,s0,64
    57fc:	d3048913          	addi	s2,s1,-720
    5800:	04040413          	addi	s0,s0,64
    5804:	d3048493          	addi	s1,s1,-720
    5808:	4a01                	li	s4,0
    580a:	10001d37          	lui	s10,0x10001
    580e:	10001db7          	lui	s11,0x10001
    5812:	10000837          	lui	a6,0x10000
    5816:	10001b37          	lui	s6,0x10001
    581a:	10000bb7          	lui	s7,0x10000
    581e:	4cc1                	li	s9,16
    5820:	00048783          	lb	a5,0(s1)
    5824:	00044703          	lbu	a4,0(s0)
    5828:	8785                	srai	a5,a5,0x1
    582a:	8fb9                	xor	a5,a5,a4
    582c:	0ff7f793          	zext.b	a5,a5
    5830:	cf9d                	beqz	a5,586e <_Z15vssra_testcase1v+0xd8>
    5832:	02080513          	addi	a0,a6,32 # 10000020 <__rodata_start__+0xfff4f28>
    5836:	43cd0613          	addi	a2,s10,1084 # 1000143c <__rodata_start__+0xfff6344>
    583a:	efcd8593          	addi	a1,s11,-260 # 10000efc <__rodata_start__+0xfff5e04>
    583e:	2bb00693          	li	a3,699
    5842:	4a7020ef          	jal	84e8 <_Z7printf_PKcz>
    5846:	00048703          	lb	a4,0(s1)
    584a:	00044683          	lbu	a3,0(s0)
    584e:	8652                	mv	a2,s4
    5850:	8705                	srai	a4,a4,0x1
    5852:	0ff77713          	zext.b	a4,a4
    5856:	85d2                	mv	a1,s4
    5858:	404b0513          	addi	a0,s6,1028 # 10001404 <__rodata_start__+0xfff630c>
    585c:	48d020ef          	jal	84e8 <_Z7printf_PKcz>
    5860:	058b8513          	addi	a0,s7,88 # 10000058 <__rodata_start__+0xfff4f60>
    5864:	485020ef          	jal	84e8 <_Z7printf_PKcz>
    5868:	9002                	ebreak
    586a:	10000837          	lui	a6,0x10000
    586e:	0a05                	addi	s4,s4,1
    5870:	0405                	addi	s0,s0,1
    5872:	0485                	addi	s1,s1,1
    5874:	fb9a16e3          	bne	s4,s9,5820 <_Z15vssra_testcase1v+0x8a>
    5878:	4781                	li	a5,0
    587a:	10000713          	li	a4,256
    587e:	00fa86b3          	add	a3,s5,a5
    5882:	00068023          	sb	zero,0(a3)
    5886:	0785                	addi	a5,a5,1
    5888:	fee79be3          	bne	a5,a4,587e <_Z15vssra_testcase1v+0xe8>
    588c:	70000793          	li	a5,1792
    5890:	1047a00b          	vsetcsr	zero,a5,260
    5894:	6785                	lui	a5,0x1
    5896:	80078793          	addi	a5,a5,-2048 # 800 <_Z12test_fc_procv+0x278>
    589a:	1057a00b          	vsetcsr	zero,a5,261
    589e:	57fd                	li	a5,-1
    58a0:	1067a00b          	vsetcsr	zero,a5,262
    58a4:	103aa00b          	vsetcsr	zero,s5,259
    58a8:	4785                	li	a5,1
    58aa:	1b87806b          	vssra	zero,a5,s8
    58ae:	4401                	li	s0,0
    58b0:	10001b37          	lui	s6,0x10001
    58b4:	10001bb7          	lui	s7,0x10001
    58b8:	10000c37          	lui	s8,0x10000
    58bc:	10001a37          	lui	s4,0x10001
    58c0:	10000ab7          	lui	s5,0x10000
    58c4:	44c1                	li	s1,16
    58c6:	00090783          	lb	a5,0(s2)
    58ca:	0009c703          	lbu	a4,0(s3)
    58ce:	8785                	srai	a5,a5,0x1
    58d0:	8fb9                	xor	a5,a5,a4
    58d2:	0ff7f793          	zext.b	a5,a5
    58d6:	cf8d                	beqz	a5,5910 <_Z15vssra_testcase1v+0x17a>
    58d8:	43cb0613          	addi	a2,s6,1084 # 1000143c <__rodata_start__+0xfff6344>
    58dc:	efcb8593          	addi	a1,s7,-260 # 10000efc <__rodata_start__+0xfff5e04>
    58e0:	2d000693          	li	a3,720
    58e4:	020c0513          	addi	a0,s8,32 # 10000020 <__rodata_start__+0xfff4f28>
    58e8:	401020ef          	jal	84e8 <_Z7printf_PKcz>
    58ec:	00090703          	lb	a4,0(s2)
    58f0:	0009c683          	lbu	a3,0(s3)
    58f4:	8622                	mv	a2,s0
    58f6:	8705                	srai	a4,a4,0x1
    58f8:	0ff77713          	zext.b	a4,a4
    58fc:	85a2                	mv	a1,s0
    58fe:	404a0513          	addi	a0,s4,1028 # 10001404 <__rodata_start__+0xfff630c>
    5902:	3e7020ef          	jal	84e8 <_Z7printf_PKcz>
    5906:	058a8513          	addi	a0,s5,88 # 10000058 <__rodata_start__+0xfff4f60>
    590a:	3df020ef          	jal	84e8 <_Z7printf_PKcz>
    590e:	9002                	ebreak
    5910:	0405                	addi	s0,s0,1
    5912:	0985                	addi	s3,s3,1
    5914:	0905                	addi	s2,s2,1
    5916:	fa9418e3          	bne	s0,s1,58c6 <_Z15vssra_testcase1v+0x130>
    591a:	10001637          	lui	a2,0x10001
    591e:	100015b7          	lui	a1,0x10001
    5922:	10000537          	lui	a0,0x10000
    5926:	2d400693          	li	a3,724
    592a:	43c60613          	addi	a2,a2,1084 # 1000143c <__rodata_start__+0xfff6344>
    592e:	efc58593          	addi	a1,a1,-260 # 10000efc <__rodata_start__+0xfff5e04>
    5932:	02050513          	addi	a0,a0,32 # 10000020 <__rodata_start__+0xfff4f28>
    5936:	3b3020ef          	jal	84e8 <_Z7printf_PKcz>
    593a:	10001537          	lui	a0,0x10001
    593e:	44c50513          	addi	a0,a0,1100 # 1000144c <__rodata_start__+0xfff6354>
    5942:	3a7020ef          	jal	84e8 <_Z7printf_PKcz>
    5946:	5462                	lw	s0,56(sp)
    5948:	50f2                	lw	ra,60(sp)
    594a:	54d2                	lw	s1,52(sp)
    594c:	5942                	lw	s2,48(sp)
    594e:	59b2                	lw	s3,44(sp)
    5950:	5a22                	lw	s4,40(sp)
    5952:	5a92                	lw	s5,36(sp)
    5954:	5b02                	lw	s6,32(sp)
    5956:	4bf2                	lw	s7,28(sp)
    5958:	4c62                	lw	s8,24(sp)
    595a:	4cd2                	lw	s9,20(sp)
    595c:	4d42                	lw	s10,16(sp)
    595e:	4db2                	lw	s11,12(sp)
    5960:	10000537          	lui	a0,0x10000
    5964:	05850513          	addi	a0,a0,88 # 10000058 <__rodata_start__+0xfff4f60>
    5968:	6121                	addi	sp,sp,64
    596a:	37f0206f          	j	84e8 <_Z7printf_PKcz>

0000596e <_Z16vnclip_testcase1v>:
    596e:	7179                	addi	sp,sp,-48
    5970:	d422                	sw	s0,40(sp)
    5972:	d606                	sw	ra,44(sp)
    5974:	d226                	sw	s1,36(sp)
    5976:	d04a                	sw	s2,32(sp)
    5978:	ce4e                	sw	s3,28(sp)
    597a:	cc52                	sw	s4,24(sp)
    597c:	ca56                	sw	s5,20(sp)
    597e:	c85a                	sw	s6,16(sp)
    5980:	c65e                	sw	s7,12(sp)
    5982:	c462                	sw	s8,8(sp)
    5984:	4781                	li	a5,0
    5986:	1001d437          	lui	s0,0x1001d
    598a:	577d                	li	a4,-1
    598c:	10000613          	li	a2,256
    5990:	04040693          	addi	a3,s0,64 # 1001d040 <waddr>
    5994:	96be                	add	a3,a3,a5
    5996:	00e68023          	sb	a4,0(a3)
    599a:	0785                	addi	a5,a5,1
    599c:	04040493          	addi	s1,s0,64
    59a0:	fec798e3          	bne	a5,a2,5990 <_Z16vnclip_testcase1v+0x22>
    59a4:	6785                	lui	a5,0x1
    59a6:	e0078793          	addi	a5,a5,-512 # e00 <_Z23minimum_matmul_single_1PaS_S_+0x138>
    59aa:	1047a00b          	vsetcsr	zero,a5,260
    59ae:	08000793          	li	a5,128
    59b2:	1057a00b          	vsetcsr	zero,a5,261
    59b6:	1067200b          	vsetcsr	zero,a4,262
    59ba:	1034a00b          	vsetcsr	zero,s1,259
    59be:	004007b7          	lui	a5,0x400
    59c2:	0c078793          	addi	a5,a5,192 # 4000c0 <__rodata_start__+0x3f4fc8>
    59c6:	1c97806b          	vnclip	zero,a5,s1
    59ca:	04040913          	addi	s2,s0,64
    59ce:	4981                	li	s3,0
    59d0:	04040413          	addi	s0,s0,64
    59d4:	04000a13          	li	s4,64
    59d8:	10001ab7          	lui	s5,0x10001
    59dc:	10001b37          	lui	s6,0x10001
    59e0:	10000bb7          	lui	s7,0x10000
    59e4:	10001c37          	lui	s8,0x10001
    59e8:	00044783          	lbu	a5,0(s0)
    59ec:	03478e63          	beq	a5,s4,5a28 <_Z16vnclip_testcase1v+0xba>
    59f0:	458a8613          	addi	a2,s5,1112 # 10001458 <__rodata_start__+0xfff6360>
    59f4:	efcb0593          	addi	a1,s6,-260 # 10000efc <__rodata_start__+0xfff5e04>
    59f8:	2ec00693          	li	a3,748
    59fc:	020b8513          	addi	a0,s7,32 # 10000020 <__rodata_start__+0xfff4f28>
    5a00:	2e9020ef          	jal	84e8 <_Z7printf_PKcz>
    5a04:	00044683          	lbu	a3,0(s0)
    5a08:	04000713          	li	a4,64
    5a0c:	08000613          	li	a2,128
    5a10:	85ce                	mv	a1,s3
    5a12:	46cc0513          	addi	a0,s8,1132 # 1000146c <__rodata_start__+0xfff6374>
    5a16:	2d3020ef          	jal	84e8 <_Z7printf_PKcz>
    5a1a:	10000537          	lui	a0,0x10000
    5a1e:	05850513          	addi	a0,a0,88 # 10000058 <__rodata_start__+0xfff4f60>
    5a22:	2c7020ef          	jal	84e8 <_Z7printf_PKcz>
    5a26:	9002                	ebreak
    5a28:	0985                	addi	s3,s3,1
    5a2a:	47c1                	li	a5,16
    5a2c:	0405                	addi	s0,s0,1
    5a2e:	faf99de3          	bne	s3,a5,59e8 <_Z16vnclip_testcase1v+0x7a>
    5a32:	4781                	li	a5,0
    5a34:	577d                	li	a4,-1
    5a36:	10000693          	li	a3,256
    5a3a:	00f48633          	add	a2,s1,a5
    5a3e:	00e60023          	sb	a4,0(a2)
    5a42:	0785                	addi	a5,a5,1
    5a44:	fed79be3          	bne	a5,a3,5a3a <_Z16vnclip_testcase1v+0xcc>
    5a48:	6785                	lui	a5,0x1
    5a4a:	f0078793          	addi	a5,a5,-256 # f00 <_Z22minimum_matmul_multi_1PaS_S_+0xca>
    5a4e:	1047a00b          	vsetcsr	zero,a5,260
    5a52:	08000793          	li	a5,128
    5a56:	1057a00b          	vsetcsr	zero,a5,261
    5a5a:	1067200b          	vsetcsr	zero,a4,262
    5a5e:	1034a00b          	vsetcsr	zero,s1,259
    5a62:	004007b7          	lui	a5,0x400
    5a66:	0c078793          	addi	a5,a5,192 # 4000c0 <__rodata_start__+0x3f4fc8>
    5a6a:	1c97806b          	vnclip	zero,a5,s1
    5a6e:	4401                	li	s0,0
    5a70:	0ff00493          	li	s1,255
    5a74:	100019b7          	lui	s3,0x10001
    5a78:	10001a37          	lui	s4,0x10001
    5a7c:	10000ab7          	lui	s5,0x10000
    5a80:	00094783          	lbu	a5,0(s2)
    5a84:	02978f63          	beq	a5,s1,5ac2 <_Z16vnclip_testcase1v+0x154>
    5a88:	45898613          	addi	a2,s3,1112 # 10001458 <__rodata_start__+0xfff6360>
    5a8c:	efca0593          	addi	a1,s4,-260 # 10000efc <__rodata_start__+0xfff5e04>
    5a90:	30100693          	li	a3,769
    5a94:	020a8513          	addi	a0,s5,32 # 10000020 <__rodata_start__+0xfff4f28>
    5a98:	251020ef          	jal	84e8 <_Z7printf_PKcz>
    5a9c:	00094683          	lbu	a3,0(s2)
    5aa0:	10001537          	lui	a0,0x10001
    5aa4:	577d                	li	a4,-1
    5aa6:	08000613          	li	a2,128
    5aaa:	85a2                	mv	a1,s0
    5aac:	46c50513          	addi	a0,a0,1132 # 1000146c <__rodata_start__+0xfff6374>
    5ab0:	239020ef          	jal	84e8 <_Z7printf_PKcz>
    5ab4:	10000537          	lui	a0,0x10000
    5ab8:	05850513          	addi	a0,a0,88 # 10000058 <__rodata_start__+0xfff4f60>
    5abc:	22d020ef          	jal	84e8 <_Z7printf_PKcz>
    5ac0:	9002                	ebreak
    5ac2:	0405                	addi	s0,s0,1
    5ac4:	47c1                	li	a5,16
    5ac6:	0905                	addi	s2,s2,1
    5ac8:	faf41ce3          	bne	s0,a5,5a80 <_Z16vnclip_testcase1v+0x112>
    5acc:	10001637          	lui	a2,0x10001
    5ad0:	100015b7          	lui	a1,0x10001
    5ad4:	10000537          	lui	a0,0x10000
    5ad8:	30500693          	li	a3,773
    5adc:	45860613          	addi	a2,a2,1112 # 10001458 <__rodata_start__+0xfff6360>
    5ae0:	efc58593          	addi	a1,a1,-260 # 10000efc <__rodata_start__+0xfff5e04>
    5ae4:	02050513          	addi	a0,a0,32 # 10000020 <__rodata_start__+0xfff4f28>
    5ae8:	201020ef          	jal	84e8 <_Z7printf_PKcz>
    5aec:	10001537          	lui	a0,0x10001
    5af0:	48850513          	addi	a0,a0,1160 # 10001488 <__rodata_start__+0xfff6390>
    5af4:	1f5020ef          	jal	84e8 <_Z7printf_PKcz>
    5af8:	5422                	lw	s0,40(sp)
    5afa:	50b2                	lw	ra,44(sp)
    5afc:	5492                	lw	s1,36(sp)
    5afe:	5902                	lw	s2,32(sp)
    5b00:	49f2                	lw	s3,28(sp)
    5b02:	4a62                	lw	s4,24(sp)
    5b04:	4ad2                	lw	s5,20(sp)
    5b06:	4b42                	lw	s6,16(sp)
    5b08:	4bb2                	lw	s7,12(sp)
    5b0a:	4c22                	lw	s8,8(sp)
    5b0c:	10000537          	lui	a0,0x10000
    5b10:	05850513          	addi	a0,a0,88 # 10000058 <__rodata_start__+0xfff4f60>
    5b14:	6145                	addi	sp,sp,48
    5b16:	1d30206f          	j	84e8 <_Z7printf_PKcz>

00005b1a <_Z18vwredsum_testcase1v>:
    5b1a:	1101                	addi	sp,sp,-32
    5b1c:	ce06                	sw	ra,28(sp)
    5b1e:	cc22                	sw	s0,24(sp)
    5b20:	ca26                	sw	s1,20(sp)
    5b22:	c84a                	sw	s2,16(sp)
    5b24:	c64e                	sw	s3,12(sp)
    5b26:	c452                	sw	s4,8(sp)
    5b28:	c256                	sw	s5,4(sp)
    5b2a:	4781                	li	a5,0
    5b2c:	1001d6b7          	lui	a3,0x1001d
    5b30:	10000613          	li	a2,256
    5b34:	04068713          	addi	a4,a3,64 # 1001d040 <waddr>
    5b38:	973e                	add	a4,a4,a5
    5b3a:	00070023          	sb	zero,0(a4)
    5b3e:	0785                	addi	a5,a5,1
    5b40:	04068413          	addi	s0,a3,64
    5b44:	fec798e3          	bne	a5,a2,5b34 <_Z18vwredsum_testcase1v+0x1a>
    5b48:	4785                	li	a5,1
    5b4a:	1047a00b          	vsetcsr	zero,a5,260
    5b4e:	50000793          	li	a5,1280
    5b52:	1047a00b          	vsetcsr	zero,a5,260
    5b56:	08000793          	li	a5,128
    5b5a:	1057a00b          	vsetcsr	zero,a5,261
    5b5e:	57fd                	li	a5,-1
    5b60:	1067a00b          	vsetcsr	zero,a5,262
    5b64:	1001d4b7          	lui	s1,0x1001d
    5b68:	e3048493          	addi	s1,s1,-464 # 1001ce30 <raddr4>
    5b6c:	1e84806b          	vwredsum	zero,s1,s0
    5b70:	00044783          	lbu	a5,0(s0)
    5b74:	02000913          	li	s2,32
    5b78:	05278363          	beq	a5,s2,5bbe <_Z18vwredsum_testcase1v+0xa4>
    5b7c:	10001637          	lui	a2,0x10001
    5b80:	100015b7          	lui	a1,0x10001
    5b84:	10000537          	lui	a0,0x10000
    5b88:	31c00693          	li	a3,796
    5b8c:	49860613          	addi	a2,a2,1176 # 10001498 <__rodata_start__+0xfff63a0>
    5b90:	efc58593          	addi	a1,a1,-260 # 10000efc <__rodata_start__+0xfff5e04>
    5b94:	02050513          	addi	a0,a0,32 # 10000020 <__rodata_start__+0xfff4f28>
    5b98:	151020ef          	jal	84e8 <_Z7printf_PKcz>
    5b9c:	00044603          	lbu	a2,0(s0)
    5ba0:	10001537          	lui	a0,0x10001
    5ba4:	86ca                	mv	a3,s2
    5ba6:	4581                	li	a1,0
    5ba8:	4ac50513          	addi	a0,a0,1196 # 100014ac <__rodata_start__+0xfff63b4>
    5bac:	13d020ef          	jal	84e8 <_Z7printf_PKcz>
    5bb0:	10000537          	lui	a0,0x10000
    5bb4:	05850513          	addi	a0,a0,88 # 10000058 <__rodata_start__+0xfff4f60>
    5bb8:	131020ef          	jal	84e8 <_Z7printf_PKcz>
    5bbc:	9002                	ebreak
    5bbe:	00144783          	lbu	a5,1(s0)
    5bc2:	c3b1                	beqz	a5,5c06 <_Z18vwredsum_testcase1v+0xec>
    5bc4:	10001637          	lui	a2,0x10001
    5bc8:	100015b7          	lui	a1,0x10001
    5bcc:	10000537          	lui	a0,0x10000
    5bd0:	32000693          	li	a3,800
    5bd4:	49860613          	addi	a2,a2,1176 # 10001498 <__rodata_start__+0xfff63a0>
    5bd8:	efc58593          	addi	a1,a1,-260 # 10000efc <__rodata_start__+0xfff5e04>
    5bdc:	02050513          	addi	a0,a0,32 # 10000020 <__rodata_start__+0xfff4f28>
    5be0:	109020ef          	jal	84e8 <_Z7printf_PKcz>
    5be4:	00144603          	lbu	a2,1(s0)
    5be8:	10001537          	lui	a0,0x10001
    5bec:	4681                	li	a3,0
    5bee:	4585                	li	a1,1
    5bf0:	4e050513          	addi	a0,a0,1248 # 100014e0 <__rodata_start__+0xfff63e8>
    5bf4:	0f5020ef          	jal	84e8 <_Z7printf_PKcz>
    5bf8:	10000537          	lui	a0,0x10000
    5bfc:	05850513          	addi	a0,a0,88 # 10000058 <__rodata_start__+0xfff4f60>
    5c00:	0e9020ef          	jal	84e8 <_Z7printf_PKcz>
    5c04:	9002                	ebreak
    5c06:	4781                	li	a5,0
    5c08:	10000713          	li	a4,256
    5c0c:	00f406b3          	add	a3,s0,a5
    5c10:	00068023          	sb	zero,0(a3)
    5c14:	0785                	addi	a5,a5,1
    5c16:	fee79be3          	bne	a5,a4,5c0c <_Z18vwredsum_testcase1v+0xf2>
    5c1a:	4785                	li	a5,1
    5c1c:	1047a00b          	vsetcsr	zero,a5,260
    5c20:	50000793          	li	a5,1280
    5c24:	1047a00b          	vsetcsr	zero,a5,260
    5c28:	6785                	lui	a5,0x1
    5c2a:	80078793          	addi	a5,a5,-2048 # 800 <_Z12test_fc_procv+0x278>
    5c2e:	1057a00b          	vsetcsr	zero,a5,261
    5c32:	57fd                	li	a5,-1
    5c34:	1067a00b          	vsetcsr	zero,a5,262
    5c38:	1e84806b          	vwredsum	zero,s1,s0
    5c3c:	00044783          	lbu	a5,0(s0)
    5c40:	10001a37          	lui	s4,0x10001
    5c44:	100019b7          	lui	s3,0x10001
    5c48:	10000937          	lui	s2,0x10000
    5c4c:	100004b7          	lui	s1,0x10000
    5c50:	cb95                	beqz	a5,5c84 <_Z18vwredsum_testcase1v+0x16a>
    5c52:	498a0613          	addi	a2,s4,1176 # 10001498 <__rodata_start__+0xfff63a0>
    5c56:	efc98593          	addi	a1,s3,-260 # 10000efc <__rodata_start__+0xfff5e04>
    5c5a:	33400693          	li	a3,820
    5c5e:	02090513          	addi	a0,s2,32 # 10000020 <__rodata_start__+0xfff4f28>
    5c62:	087020ef          	jal	84e8 <_Z7printf_PKcz>
    5c66:	00044603          	lbu	a2,0(s0)
    5c6a:	10001537          	lui	a0,0x10001
    5c6e:	4681                	li	a3,0
    5c70:	4581                	li	a1,0
    5c72:	51450513          	addi	a0,a0,1300 # 10001514 <__rodata_start__+0xfff641c>
    5c76:	073020ef          	jal	84e8 <_Z7printf_PKcz>
    5c7a:	05848513          	addi	a0,s1,88 # 10000058 <__rodata_start__+0xfff4f60>
    5c7e:	06b020ef          	jal	84e8 <_Z7printf_PKcz>
    5c82:	9002                	ebreak
    5c84:	00144783          	lbu	a5,1(s0)
    5c88:	4a89                	li	s5,2
    5c8a:	03578b63          	beq	a5,s5,5cc0 <_Z18vwredsum_testcase1v+0x1a6>
    5c8e:	498a0613          	addi	a2,s4,1176
    5c92:	efc98593          	addi	a1,s3,-260
    5c96:	33800693          	li	a3,824
    5c9a:	02090513          	addi	a0,s2,32
    5c9e:	04b020ef          	jal	84e8 <_Z7printf_PKcz>
    5ca2:	00144603          	lbu	a2,1(s0)
    5ca6:	10001537          	lui	a0,0x10001
    5caa:	86d6                	mv	a3,s5
    5cac:	4585                	li	a1,1
    5cae:	54850513          	addi	a0,a0,1352 # 10001548 <__rodata_start__+0xfff6450>
    5cb2:	037020ef          	jal	84e8 <_Z7printf_PKcz>
    5cb6:	05848513          	addi	a0,s1,88
    5cba:	02f020ef          	jal	84e8 <_Z7printf_PKcz>
    5cbe:	9002                	ebreak
    5cc0:	498a0613          	addi	a2,s4,1176
    5cc4:	efc98593          	addi	a1,s3,-260
    5cc8:	33b00693          	li	a3,827
    5ccc:	02090513          	addi	a0,s2,32
    5cd0:	019020ef          	jal	84e8 <_Z7printf_PKcz>
    5cd4:	10001537          	lui	a0,0x10001
    5cd8:	57c50513          	addi	a0,a0,1404 # 1000157c <__rodata_start__+0xfff6484>
    5cdc:	00d020ef          	jal	84e8 <_Z7printf_PKcz>
    5ce0:	4462                	lw	s0,24(sp)
    5ce2:	40f2                	lw	ra,28(sp)
    5ce4:	4942                	lw	s2,16(sp)
    5ce6:	49b2                	lw	s3,12(sp)
    5ce8:	4a22                	lw	s4,8(sp)
    5cea:	4a92                	lw	s5,4(sp)
    5cec:	05848513          	addi	a0,s1,88
    5cf0:	44d2                	lw	s1,20(sp)
    5cf2:	6105                	addi	sp,sp,32
    5cf4:	7f40206f          	j	84e8 <_Z7printf_PKcz>

00005cf8 <_Z17vredsum_testcase1v>:
    5cf8:	1101                	addi	sp,sp,-32
    5cfa:	ce06                	sw	ra,28(sp)
    5cfc:	cc22                	sw	s0,24(sp)
    5cfe:	ca26                	sw	s1,20(sp)
    5d00:	c84a                	sw	s2,16(sp)
    5d02:	c64e                	sw	s3,12(sp)
    5d04:	c452                	sw	s4,8(sp)
    5d06:	c256                	sw	s5,4(sp)
    5d08:	4781                	li	a5,0
    5d0a:	1001d6b7          	lui	a3,0x1001d
    5d0e:	10000613          	li	a2,256
    5d12:	04068713          	addi	a4,a3,64 # 1001d040 <waddr>
    5d16:	973e                	add	a4,a4,a5
    5d18:	00070023          	sb	zero,0(a4)
    5d1c:	0785                	addi	a5,a5,1
    5d1e:	04068413          	addi	s0,a3,64
    5d22:	fec798e3          	bne	a5,a2,5d12 <_Z17vredsum_testcase1v+0x1a>
    5d26:	4785                	li	a5,1
    5d28:	1047a00b          	vsetcsr	zero,a5,260
    5d2c:	50000793          	li	a5,1280
    5d30:	1047a00b          	vsetcsr	zero,a5,260
    5d34:	08000793          	li	a5,128
    5d38:	1057a00b          	vsetcsr	zero,a5,261
    5d3c:	57fd                	li	a5,-1
    5d3e:	1067a00b          	vsetcsr	zero,a5,262
    5d42:	1001d4b7          	lui	s1,0x1001d
    5d46:	e3048493          	addi	s1,s1,-464 # 1001ce30 <raddr4>
    5d4a:	2084806b          	vredsum	zero,s1,s0
    5d4e:	00044783          	lbu	a5,0(s0)
    5d52:	02000913          	li	s2,32
    5d56:	05278363          	beq	a5,s2,5d9c <_Z17vredsum_testcase1v+0xa4>
    5d5a:	10001637          	lui	a2,0x10001
    5d5e:	100015b7          	lui	a1,0x10001
    5d62:	10000537          	lui	a0,0x10000
    5d66:	35200693          	li	a3,850
    5d6a:	58c60613          	addi	a2,a2,1420 # 1000158c <__rodata_start__+0xfff6494>
    5d6e:	efc58593          	addi	a1,a1,-260 # 10000efc <__rodata_start__+0xfff5e04>
    5d72:	02050513          	addi	a0,a0,32 # 10000020 <__rodata_start__+0xfff4f28>
    5d76:	772020ef          	jal	84e8 <_Z7printf_PKcz>
    5d7a:	00044603          	lbu	a2,0(s0)
    5d7e:	10001537          	lui	a0,0x10001
    5d82:	86ca                	mv	a3,s2
    5d84:	4581                	li	a1,0
    5d86:	4ac50513          	addi	a0,a0,1196 # 100014ac <__rodata_start__+0xfff63b4>
    5d8a:	75e020ef          	jal	84e8 <_Z7printf_PKcz>
    5d8e:	10000537          	lui	a0,0x10000
    5d92:	05850513          	addi	a0,a0,88 # 10000058 <__rodata_start__+0xfff4f60>
    5d96:	752020ef          	jal	84e8 <_Z7printf_PKcz>
    5d9a:	9002                	ebreak
    5d9c:	00144783          	lbu	a5,1(s0)
    5da0:	c3b1                	beqz	a5,5de4 <_Z17vredsum_testcase1v+0xec>
    5da2:	10001637          	lui	a2,0x10001
    5da6:	100015b7          	lui	a1,0x10001
    5daa:	10000537          	lui	a0,0x10000
    5dae:	35600693          	li	a3,854
    5db2:	58c60613          	addi	a2,a2,1420 # 1000158c <__rodata_start__+0xfff6494>
    5db6:	efc58593          	addi	a1,a1,-260 # 10000efc <__rodata_start__+0xfff5e04>
    5dba:	02050513          	addi	a0,a0,32 # 10000020 <__rodata_start__+0xfff4f28>
    5dbe:	72a020ef          	jal	84e8 <_Z7printf_PKcz>
    5dc2:	00144603          	lbu	a2,1(s0)
    5dc6:	10001537          	lui	a0,0x10001
    5dca:	4681                	li	a3,0
    5dcc:	4585                	li	a1,1
    5dce:	4e050513          	addi	a0,a0,1248 # 100014e0 <__rodata_start__+0xfff63e8>
    5dd2:	716020ef          	jal	84e8 <_Z7printf_PKcz>
    5dd6:	10000537          	lui	a0,0x10000
    5dda:	05850513          	addi	a0,a0,88 # 10000058 <__rodata_start__+0xfff4f60>
    5dde:	70a020ef          	jal	84e8 <_Z7printf_PKcz>
    5de2:	9002                	ebreak
    5de4:	00244783          	lbu	a5,2(s0)
    5de8:	c3b1                	beqz	a5,5e2c <_Z17vredsum_testcase1v+0x134>
    5dea:	10001637          	lui	a2,0x10001
    5dee:	100015b7          	lui	a1,0x10001
    5df2:	10000537          	lui	a0,0x10000
    5df6:	35a00693          	li	a3,858
    5dfa:	58c60613          	addi	a2,a2,1420 # 1000158c <__rodata_start__+0xfff6494>
    5dfe:	efc58593          	addi	a1,a1,-260 # 10000efc <__rodata_start__+0xfff5e04>
    5e02:	02050513          	addi	a0,a0,32 # 10000020 <__rodata_start__+0xfff4f28>
    5e06:	6e2020ef          	jal	84e8 <_Z7printf_PKcz>
    5e0a:	00044603          	lbu	a2,0(s0)
    5e0e:	10001537          	lui	a0,0x10001
    5e12:	4681                	li	a3,0
    5e14:	4581                	li	a1,0
    5e16:	4ac50513          	addi	a0,a0,1196 # 100014ac <__rodata_start__+0xfff63b4>
    5e1a:	6ce020ef          	jal	84e8 <_Z7printf_PKcz>
    5e1e:	10000537          	lui	a0,0x10000
    5e22:	05850513          	addi	a0,a0,88 # 10000058 <__rodata_start__+0xfff4f60>
    5e26:	6c2020ef          	jal	84e8 <_Z7printf_PKcz>
    5e2a:	9002                	ebreak
    5e2c:	00344783          	lbu	a5,3(s0)
    5e30:	c3b1                	beqz	a5,5e74 <_Z17vredsum_testcase1v+0x17c>
    5e32:	10001637          	lui	a2,0x10001
    5e36:	100015b7          	lui	a1,0x10001
    5e3a:	10000537          	lui	a0,0x10000
    5e3e:	35e00693          	li	a3,862
    5e42:	58c60613          	addi	a2,a2,1420 # 1000158c <__rodata_start__+0xfff6494>
    5e46:	efc58593          	addi	a1,a1,-260 # 10000efc <__rodata_start__+0xfff5e04>
    5e4a:	02050513          	addi	a0,a0,32 # 10000020 <__rodata_start__+0xfff4f28>
    5e4e:	69a020ef          	jal	84e8 <_Z7printf_PKcz>
    5e52:	00144603          	lbu	a2,1(s0)
    5e56:	10001537          	lui	a0,0x10001
    5e5a:	4681                	li	a3,0
    5e5c:	4585                	li	a1,1
    5e5e:	4e050513          	addi	a0,a0,1248 # 100014e0 <__rodata_start__+0xfff63e8>
    5e62:	686020ef          	jal	84e8 <_Z7printf_PKcz>
    5e66:	10000537          	lui	a0,0x10000
    5e6a:	05850513          	addi	a0,a0,88 # 10000058 <__rodata_start__+0xfff4f60>
    5e6e:	67a020ef          	jal	84e8 <_Z7printf_PKcz>
    5e72:	9002                	ebreak
    5e74:	4781                	li	a5,0
    5e76:	10000713          	li	a4,256
    5e7a:	00f406b3          	add	a3,s0,a5
    5e7e:	00068023          	sb	zero,0(a3)
    5e82:	0785                	addi	a5,a5,1
    5e84:	fee79be3          	bne	a5,a4,5e7a <_Z17vredsum_testcase1v+0x182>
    5e88:	4785                	li	a5,1
    5e8a:	1047a00b          	vsetcsr	zero,a5,260
    5e8e:	50000793          	li	a5,1280
    5e92:	1047a00b          	vsetcsr	zero,a5,260
    5e96:	6785                	lui	a5,0x1
    5e98:	80078793          	addi	a5,a5,-2048 # 800 <_Z12test_fc_procv+0x278>
    5e9c:	1057a00b          	vsetcsr	zero,a5,261
    5ea0:	57fd                	li	a5,-1
    5ea2:	1067a00b          	vsetcsr	zero,a5,262
    5ea6:	2084806b          	vredsum	zero,s1,s0
    5eaa:	00044783          	lbu	a5,0(s0)
    5eae:	10001a37          	lui	s4,0x10001
    5eb2:	100019b7          	lui	s3,0x10001
    5eb6:	10000937          	lui	s2,0x10000
    5eba:	100004b7          	lui	s1,0x10000
    5ebe:	cb95                	beqz	a5,5ef2 <_Z17vredsum_testcase1v+0x1fa>
    5ec0:	58ca0613          	addi	a2,s4,1420 # 1000158c <__rodata_start__+0xfff6494>
    5ec4:	efc98593          	addi	a1,s3,-260 # 10000efc <__rodata_start__+0xfff5e04>
    5ec8:	37200693          	li	a3,882
    5ecc:	02090513          	addi	a0,s2,32 # 10000020 <__rodata_start__+0xfff4f28>
    5ed0:	618020ef          	jal	84e8 <_Z7printf_PKcz>
    5ed4:	00044603          	lbu	a2,0(s0)
    5ed8:	10001537          	lui	a0,0x10001
    5edc:	4681                	li	a3,0
    5ede:	4581                	li	a1,0
    5ee0:	5a050513          	addi	a0,a0,1440 # 100015a0 <__rodata_start__+0xfff64a8>
    5ee4:	604020ef          	jal	84e8 <_Z7printf_PKcz>
    5ee8:	05848513          	addi	a0,s1,88 # 10000058 <__rodata_start__+0xfff4f60>
    5eec:	5fc020ef          	jal	84e8 <_Z7printf_PKcz>
    5ef0:	9002                	ebreak
    5ef2:	00144783          	lbu	a5,1(s0)
    5ef6:	4a89                	li	s5,2
    5ef8:	03578b63          	beq	a5,s5,5f2e <_Z17vredsum_testcase1v+0x236>
    5efc:	58ca0613          	addi	a2,s4,1420
    5f00:	efc98593          	addi	a1,s3,-260
    5f04:	37600693          	li	a3,886
    5f08:	02090513          	addi	a0,s2,32
    5f0c:	5dc020ef          	jal	84e8 <_Z7printf_PKcz>
    5f10:	00144603          	lbu	a2,1(s0)
    5f14:	10001537          	lui	a0,0x10001
    5f18:	86d6                	mv	a3,s5
    5f1a:	4585                	li	a1,1
    5f1c:	5d050513          	addi	a0,a0,1488 # 100015d0 <__rodata_start__+0xfff64d8>
    5f20:	5c8020ef          	jal	84e8 <_Z7printf_PKcz>
    5f24:	05848513          	addi	a0,s1,88
    5f28:	5c0020ef          	jal	84e8 <_Z7printf_PKcz>
    5f2c:	9002                	ebreak
    5f2e:	00244783          	lbu	a5,2(s0)
    5f32:	cb95                	beqz	a5,5f66 <_Z17vredsum_testcase1v+0x26e>
    5f34:	58ca0613          	addi	a2,s4,1420
    5f38:	efc98593          	addi	a1,s3,-260
    5f3c:	37a00693          	li	a3,890
    5f40:	02090513          	addi	a0,s2,32
    5f44:	5a4020ef          	jal	84e8 <_Z7printf_PKcz>
    5f48:	00244603          	lbu	a2,2(s0)
    5f4c:	10001537          	lui	a0,0x10001
    5f50:	4681                	li	a3,0
    5f52:	4589                	li	a1,2
    5f54:	60050513          	addi	a0,a0,1536 # 10001600 <__rodata_start__+0xfff6508>
    5f58:	590020ef          	jal	84e8 <_Z7printf_PKcz>
    5f5c:	05848513          	addi	a0,s1,88
    5f60:	588020ef          	jal	84e8 <_Z7printf_PKcz>
    5f64:	9002                	ebreak
    5f66:	00344783          	lbu	a5,3(s0)
    5f6a:	cb95                	beqz	a5,5f9e <_Z17vredsum_testcase1v+0x2a6>
    5f6c:	58ca0613          	addi	a2,s4,1420
    5f70:	efc98593          	addi	a1,s3,-260
    5f74:	37e00693          	li	a3,894
    5f78:	02090513          	addi	a0,s2,32
    5f7c:	56c020ef          	jal	84e8 <_Z7printf_PKcz>
    5f80:	00344603          	lbu	a2,3(s0)
    5f84:	10001537          	lui	a0,0x10001
    5f88:	4681                	li	a3,0
    5f8a:	458d                	li	a1,3
    5f8c:	63050513          	addi	a0,a0,1584 # 10001630 <__rodata_start__+0xfff6538>
    5f90:	558020ef          	jal	84e8 <_Z7printf_PKcz>
    5f94:	05848513          	addi	a0,s1,88
    5f98:	550020ef          	jal	84e8 <_Z7printf_PKcz>
    5f9c:	9002                	ebreak
    5f9e:	58ca0613          	addi	a2,s4,1420
    5fa2:	efc98593          	addi	a1,s3,-260
    5fa6:	38100693          	li	a3,897
    5faa:	02090513          	addi	a0,s2,32
    5fae:	53a020ef          	jal	84e8 <_Z7printf_PKcz>
    5fb2:	10001537          	lui	a0,0x10001
    5fb6:	66050513          	addi	a0,a0,1632 # 10001660 <__rodata_start__+0xfff6568>
    5fba:	52e020ef          	jal	84e8 <_Z7printf_PKcz>
    5fbe:	4462                	lw	s0,24(sp)
    5fc0:	40f2                	lw	ra,28(sp)
    5fc2:	4942                	lw	s2,16(sp)
    5fc4:	49b2                	lw	s3,12(sp)
    5fc6:	4a22                	lw	s4,8(sp)
    5fc8:	4a92                	lw	s5,4(sp)
    5fca:	05848513          	addi	a0,s1,88
    5fce:	44d2                	lw	s1,20(sp)
    5fd0:	6105                	addi	sp,sp,32
    5fd2:	5160206f          	j	84e8 <_Z7printf_PKcz>

00005fd6 <_Z14vmac_testcase1v>:
    5fd6:	7139                	addi	sp,sp,-64
    5fd8:	da26                	sw	s1,52(sp)
    5fda:	de06                	sw	ra,60(sp)
    5fdc:	dc22                	sw	s0,56(sp)
    5fde:	d84a                	sw	s2,48(sp)
    5fe0:	d64e                	sw	s3,44(sp)
    5fe2:	d452                	sw	s4,40(sp)
    5fe4:	d256                	sw	s5,36(sp)
    5fe6:	d05a                	sw	s6,32(sp)
    5fe8:	ce5e                	sw	s7,28(sp)
    5fea:	cc62                	sw	s8,24(sp)
    5fec:	ca66                	sw	s9,20(sp)
    5fee:	c86a                	sw	s10,16(sp)
    5ff0:	c66e                	sw	s11,12(sp)
    5ff2:	4781                	li	a5,0
    5ff4:	1001d4b7          	lui	s1,0x1001d
    5ff8:	10000693          	li	a3,256
    5ffc:	04048713          	addi	a4,s1,64 # 1001d040 <waddr>
    6000:	973e                	add	a4,a4,a5
    6002:	00070023          	sb	zero,0(a4)
    6006:	0785                	addi	a5,a5,1
    6008:	04048c93          	addi	s9,s1,64
    600c:	fed798e3          	bne	a5,a3,5ffc <_Z14vmac_testcase1v+0x26>
    6010:	4785                	li	a5,1
    6012:	1047a00b          	vsetcsr	zero,a5,260
    6016:	50000793          	li	a5,1280
    601a:	1047a00b          	vsetcsr	zero,a5,260
    601e:	08000793          	li	a5,128
    6022:	1057a00b          	vsetcsr	zero,a5,261
    6026:	57fd                	li	a5,-1
    6028:	1067a00b          	vsetcsr	zero,a5,262
    602c:	103ca00b          	vsetcsr	zero,s9,259
    6030:	1001d437          	lui	s0,0x1001d
    6034:	d3040413          	addi	s0,s0,-720 # 1001cd30 <raddr1>
    6038:	10040c13          	addi	s8,s0,256
    603c:	20040413          	addi	s0,s0,512
    6040:	248c006b          	vmac	zero,s8,s0
    6044:	04048a13          	addi	s4,s1,64
    6048:	89e2                	mv	s3,s8
    604a:	8922                	mv	s2,s0
    604c:	8d22                	mv	s10,s0
    604e:	8de2                	mv	s11,s8
    6050:	04048493          	addi	s1,s1,64
    6054:	4a81                	li	s5,0
    6056:	100018b7          	lui	a7,0x10001
    605a:	10001337          	lui	t1,0x10001
    605e:	10000e37          	lui	t3,0x10000
    6062:	10001b37          	lui	s6,0x10001
    6066:	10000bb7          	lui	s7,0x10000
    606a:	4841                	li	a6,16
    606c:	000d0703          	lb	a4,0(s10)
    6070:	000d8783          	lb	a5,0(s11)
    6074:	02e787b3          	mul	a5,a5,a4
    6078:	00048703          	lb	a4,0(s1)
    607c:	8fb9                	xor	a5,a5,a4
    607e:	0ff7f793          	zext.b	a5,a5
    6082:	cba1                	beqz	a5,60d2 <_Z14vmac_testcase1v+0xfc>
    6084:	67088613          	addi	a2,a7,1648 # 10001670 <__rodata_start__+0xfff6578>
    6088:	efc30593          	addi	a1,t1,-260 # 10000efc <__rodata_start__+0xfff5e04>
    608c:	020e0513          	addi	a0,t3,32 # 10000020 <__rodata_start__+0xfff4f28>
    6090:	39800693          	li	a3,920
    6094:	454020ef          	jal	84e8 <_Z7printf_PKcz>
    6098:	000d0703          	lb	a4,0(s10)
    609c:	000d8783          	lb	a5,0(s11)
    60a0:	86d6                	mv	a3,s5
    60a2:	8656                	mv	a2,s5
    60a4:	02e787b3          	mul	a5,a5,a4
    60a8:	0004c703          	lbu	a4,0(s1)
    60ac:	85d6                	mv	a1,s5
    60ae:	680b0513          	addi	a0,s6,1664 # 10001680 <__rodata_start__+0xfff6588>
    60b2:	0ff7f793          	zext.b	a5,a5
    60b6:	432020ef          	jal	84e8 <_Z7printf_PKcz>
    60ba:	058b8513          	addi	a0,s7,88 # 10000058 <__rodata_start__+0xfff4f60>
    60be:	42a020ef          	jal	84e8 <_Z7printf_PKcz>
    60c2:	9002                	ebreak
    60c4:	4841                	li	a6,16
    60c6:	100018b7          	lui	a7,0x10001
    60ca:	10001337          	lui	t1,0x10001
    60ce:	10000e37          	lui	t3,0x10000
    60d2:	0a85                	addi	s5,s5,1
    60d4:	0485                	addi	s1,s1,1
    60d6:	0d85                	addi	s11,s11,1
    60d8:	0d05                	addi	s10,s10,1
    60da:	f90a99e3          	bne	s5,a6,606c <_Z14vmac_testcase1v+0x96>
    60de:	4781                	li	a5,0
    60e0:	10000713          	li	a4,256
    60e4:	00fc86b3          	add	a3,s9,a5
    60e8:	00068023          	sb	zero,0(a3)
    60ec:	0785                	addi	a5,a5,1
    60ee:	fee79be3          	bne	a5,a4,60e4 <_Z14vmac_testcase1v+0x10e>
    60f2:	4785                	li	a5,1
    60f4:	1047a00b          	vsetcsr	zero,a5,260
    60f8:	50000793          	li	a5,1280
    60fc:	1047a00b          	vsetcsr	zero,a5,260
    6100:	6785                	lui	a5,0x1
    6102:	80078793          	addi	a5,a5,-2048 # 800 <_Z12test_fc_procv+0x278>
    6106:	1057a00b          	vsetcsr	zero,a5,261
    610a:	57fd                	li	a5,-1
    610c:	1067a00b          	vsetcsr	zero,a5,262
    6110:	103ca00b          	vsetcsr	zero,s9,259
    6114:	248c006b          	vmac	zero,s8,s0
    6118:	4401                	li	s0,0
    611a:	10001bb7          	lui	s7,0x10001
    611e:	10001c37          	lui	s8,0x10001
    6122:	10000cb7          	lui	s9,0x10000
    6126:	100014b7          	lui	s1,0x10001
    612a:	10000ab7          	lui	s5,0x10000
    612e:	4b41                	li	s6,16
    6130:	00098783          	lb	a5,0(s3)
    6134:	00090683          	lb	a3,0(s2)
    6138:	000a4703          	lbu	a4,0(s4)
    613c:	02d787b3          	mul	a5,a5,a3
    6140:	0ff7f793          	zext.b	a5,a5
    6144:	0792                	slli	a5,a5,0x4
    6146:	04f70363          	beq	a4,a5,618c <_Z14vmac_testcase1v+0x1b6>
    614a:	670b8613          	addi	a2,s7,1648 # 10001670 <__rodata_start__+0xfff6578>
    614e:	efcc0593          	addi	a1,s8,-260 # 10000efc <__rodata_start__+0xfff5e04>
    6152:	3ae00693          	li	a3,942
    6156:	020c8513          	addi	a0,s9,32 # 10000020 <__rodata_start__+0xfff4f28>
    615a:	38e020ef          	jal	84e8 <_Z7printf_PKcz>
    615e:	00090703          	lb	a4,0(s2)
    6162:	00098783          	lb	a5,0(s3)
    6166:	86a2                	mv	a3,s0
    6168:	8622                	mv	a2,s0
    616a:	02e787b3          	mul	a5,a5,a4
    616e:	000a4703          	lbu	a4,0(s4)
    6172:	85a2                	mv	a1,s0
    6174:	6b448513          	addi	a0,s1,1716 # 100016b4 <__rodata_start__+0xfff65bc>
    6178:	0792                	slli	a5,a5,0x4
    617a:	0f07f793          	andi	a5,a5,240
    617e:	36a020ef          	jal	84e8 <_Z7printf_PKcz>
    6182:	058a8513          	addi	a0,s5,88 # 10000058 <__rodata_start__+0xfff4f60>
    6186:	362020ef          	jal	84e8 <_Z7printf_PKcz>
    618a:	9002                	ebreak
    618c:	0405                	addi	s0,s0,1
    618e:	0a05                	addi	s4,s4,1
    6190:	0985                	addi	s3,s3,1
    6192:	0905                	addi	s2,s2,1
    6194:	f9641ee3          	bne	s0,s6,6130 <_Z14vmac_testcase1v+0x15a>
    6198:	10001637          	lui	a2,0x10001
    619c:	100015b7          	lui	a1,0x10001
    61a0:	10000537          	lui	a0,0x10000
    61a4:	3b200693          	li	a3,946
    61a8:	67060613          	addi	a2,a2,1648 # 10001670 <__rodata_start__+0xfff6578>
    61ac:	efc58593          	addi	a1,a1,-260 # 10000efc <__rodata_start__+0xfff5e04>
    61b0:	02050513          	addi	a0,a0,32 # 10000020 <__rodata_start__+0xfff4f28>
    61b4:	334020ef          	jal	84e8 <_Z7printf_PKcz>
    61b8:	10001537          	lui	a0,0x10001
    61bc:	6e850513          	addi	a0,a0,1768 # 100016e8 <__rodata_start__+0xfff65f0>
    61c0:	328020ef          	jal	84e8 <_Z7printf_PKcz>
    61c4:	5462                	lw	s0,56(sp)
    61c6:	50f2                	lw	ra,60(sp)
    61c8:	54d2                	lw	s1,52(sp)
    61ca:	5942                	lw	s2,48(sp)
    61cc:	59b2                	lw	s3,44(sp)
    61ce:	5a22                	lw	s4,40(sp)
    61d0:	5a92                	lw	s5,36(sp)
    61d2:	5b02                	lw	s6,32(sp)
    61d4:	4bf2                	lw	s7,28(sp)
    61d6:	4c62                	lw	s8,24(sp)
    61d8:	4cd2                	lw	s9,20(sp)
    61da:	4d42                	lw	s10,16(sp)
    61dc:	4db2                	lw	s11,12(sp)
    61de:	10000537          	lui	a0,0x10000
    61e2:	05850513          	addi	a0,a0,88 # 10000058 <__rodata_start__+0xfff4f60>
    61e6:	6121                	addi	sp,sp,64
    61e8:	3000206f          	j	84e8 <_Z7printf_PKcz>

000061ec <_Z15vmadd_testcase1v>:
    61ec:	7139                	addi	sp,sp,-64
    61ee:	da26                	sw	s1,52(sp)
    61f0:	de06                	sw	ra,60(sp)
    61f2:	dc22                	sw	s0,56(sp)
    61f4:	d84a                	sw	s2,48(sp)
    61f6:	d64e                	sw	s3,44(sp)
    61f8:	d452                	sw	s4,40(sp)
    61fa:	d256                	sw	s5,36(sp)
    61fc:	d05a                	sw	s6,32(sp)
    61fe:	ce5e                	sw	s7,28(sp)
    6200:	cc62                	sw	s8,24(sp)
    6202:	ca66                	sw	s9,20(sp)
    6204:	c86a                	sw	s10,16(sp)
    6206:	c66e                	sw	s11,12(sp)
    6208:	4781                	li	a5,0
    620a:	1001d4b7          	lui	s1,0x1001d
    620e:	10000693          	li	a3,256
    6212:	04048713          	addi	a4,s1,64 # 1001d040 <waddr>
    6216:	973e                	add	a4,a4,a5
    6218:	00070023          	sb	zero,0(a4)
    621c:	0785                	addi	a5,a5,1
    621e:	04048913          	addi	s2,s1,64
    6222:	fed798e3          	bne	a5,a3,6212 <_Z15vmadd_testcase1v+0x26>
    6226:	70000793          	li	a5,1792
    622a:	1047a00b          	vsetcsr	zero,a5,260
    622e:	08000793          	li	a5,128
    6232:	1057a00b          	vsetcsr	zero,a5,261
    6236:	57fd                	li	a5,-1
    6238:	1067a00b          	vsetcsr	zero,a5,262
    623c:	1039200b          	vsetcsr	zero,s2,259
    6240:	1001d437          	lui	s0,0x1001d
    6244:	e3040413          	addi	s0,s0,-464 # 1001ce30 <raddr4>
    6248:	2684006b          	vmadd	zero,s0,s0
    624c:	04048993          	addi	s3,s1,64
    6250:	8a22                	mv	s4,s0
    6252:	8b22                	mv	s6,s0
    6254:	04048493          	addi	s1,s1,64
    6258:	4a81                	li	s5,0
    625a:	10001d37          	lui	s10,0x10001
    625e:	10001db7          	lui	s11,0x10001
    6262:	10000837          	lui	a6,0x10000
    6266:	10001bb7          	lui	s7,0x10001
    626a:	10000c37          	lui	s8,0x10000
    626e:	4cc1                	li	s9,16
    6270:	000b0703          	lb	a4,0(s6)
    6274:	00048783          	lb	a5,0(s1)
    6278:	02e70733          	mul	a4,a4,a4
    627c:	8fb9                	xor	a5,a5,a4
    627e:	0ff7f793          	zext.b	a5,a5
    6282:	c3a9                	beqz	a5,62c4 <_Z15vmadd_testcase1v+0xd8>
    6284:	02080513          	addi	a0,a6,32 # 10000020 <__rodata_start__+0xfff4f28>
    6288:	6f4d0613          	addi	a2,s10,1780 # 100016f4 <__rodata_start__+0xfff65fc>
    628c:	efcd8593          	addi	a1,s11,-260 # 10000efc <__rodata_start__+0xfff5e04>
    6290:	3c700693          	li	a3,967
    6294:	254020ef          	jal	84e8 <_Z7printf_PKcz>
    6298:	000b0783          	lb	a5,0(s6)
    629c:	0004c703          	lbu	a4,0(s1)
    62a0:	86d6                	mv	a3,s5
    62a2:	02f787b3          	mul	a5,a5,a5
    62a6:	8656                	mv	a2,s5
    62a8:	85d6                	mv	a1,s5
    62aa:	704b8513          	addi	a0,s7,1796 # 10001704 <__rodata_start__+0xfff660c>
    62ae:	0ff7f793          	zext.b	a5,a5
    62b2:	236020ef          	jal	84e8 <_Z7printf_PKcz>
    62b6:	058c0513          	addi	a0,s8,88 # 10000058 <__rodata_start__+0xfff4f60>
    62ba:	22e020ef          	jal	84e8 <_Z7printf_PKcz>
    62be:	9002                	ebreak
    62c0:	10000837          	lui	a6,0x10000
    62c4:	0a85                	addi	s5,s5,1
    62c6:	0485                	addi	s1,s1,1
    62c8:	0b05                	addi	s6,s6,1
    62ca:	fb9a93e3          	bne	s5,s9,6270 <_Z15vmadd_testcase1v+0x84>
    62ce:	4781                	li	a5,0
    62d0:	10000713          	li	a4,256
    62d4:	00f906b3          	add	a3,s2,a5
    62d8:	00068023          	sb	zero,0(a3)
    62dc:	0785                	addi	a5,a5,1
    62de:	fee79be3          	bne	a5,a4,62d4 <_Z15vmadd_testcase1v+0xe8>
    62e2:	70200793          	li	a5,1794
    62e6:	1047a00b          	vsetcsr	zero,a5,260
    62ea:	08000793          	li	a5,128
    62ee:	1057a00b          	vsetcsr	zero,a5,261
    62f2:	57fd                	li	a5,-1
    62f4:	1067a00b          	vsetcsr	zero,a5,262
    62f8:	1039200b          	vsetcsr	zero,s2,259
    62fc:	2684006b          	vmadd	zero,s0,s0
    6300:	8ba2                	mv	s7,s0
    6302:	8c4e                	mv	s8,s3
    6304:	4481                	li	s1,0
    6306:	10001d37          	lui	s10,0x10001
    630a:	10001db7          	lui	s11,0x10001
    630e:	10000837          	lui	a6,0x10000
    6312:	10001ab7          	lui	s5,0x10001
    6316:	10000b37          	lui	s6,0x10000
    631a:	4cc1                	li	s9,16
    631c:	000b8783          	lb	a5,0(s7)
    6320:	000c4703          	lbu	a4,0(s8)
    6324:	02f787b3          	mul	a5,a5,a5
    6328:	8785                	srai	a5,a5,0x1
    632a:	07f7f793          	andi	a5,a5,127
    632e:	04f70363          	beq	a4,a5,6374 <_Z15vmadd_testcase1v+0x188>
    6332:	02080513          	addi	a0,a6,32 # 10000020 <__rodata_start__+0xfff4f28>
    6336:	6f4d0613          	addi	a2,s10,1780 # 100016f4 <__rodata_start__+0xfff65fc>
    633a:	efcd8593          	addi	a1,s11,-260 # 10000efc <__rodata_start__+0xfff5e04>
    633e:	3dc00693          	li	a3,988
    6342:	1a6020ef          	jal	84e8 <_Z7printf_PKcz>
    6346:	000b8783          	lb	a5,0(s7)
    634a:	000c4703          	lbu	a4,0(s8)
    634e:	86a6                	mv	a3,s1
    6350:	02f787b3          	mul	a5,a5,a5
    6354:	8626                	mv	a2,s1
    6356:	85a6                	mv	a1,s1
    6358:	738a8513          	addi	a0,s5,1848 # 10001738 <__rodata_start__+0xfff6640>
    635c:	8785                	srai	a5,a5,0x1
    635e:	07f7f793          	andi	a5,a5,127
    6362:	186020ef          	jal	84e8 <_Z7printf_PKcz>
    6366:	058b0513          	addi	a0,s6,88 # 10000058 <__rodata_start__+0xfff4f60>
    636a:	17e020ef          	jal	84e8 <_Z7printf_PKcz>
    636e:	9002                	ebreak
    6370:	10000837          	lui	a6,0x10000
    6374:	0485                	addi	s1,s1,1
    6376:	0c05                	addi	s8,s8,1
    6378:	0b85                	addi	s7,s7,1
    637a:	fb9491e3          	bne	s1,s9,631c <_Z15vmadd_testcase1v+0x130>
    637e:	4781                	li	a5,0
    6380:	10000713          	li	a4,256
    6384:	00f906b3          	add	a3,s2,a5
    6388:	00068023          	sb	zero,0(a3)
    638c:	0785                	addi	a5,a5,1
    638e:	fee79be3          	bne	a5,a4,6384 <_Z15vmadd_testcase1v+0x198>
    6392:	70000793          	li	a5,1792
    6396:	1047a00b          	vsetcsr	zero,a5,260
    639a:	6785                	lui	a5,0x1
    639c:	80078793          	addi	a5,a5,-2048 # 800 <_Z12test_fc_procv+0x278>
    63a0:	1057a00b          	vsetcsr	zero,a5,261
    63a4:	57fd                	li	a5,-1
    63a6:	1067a00b          	vsetcsr	zero,a5,262
    63aa:	1039200b          	vsetcsr	zero,s2,259
    63ae:	2684006b          	vmadd	zero,s0,s0
    63b2:	8aa2                	mv	s5,s0
    63b4:	8b4e                	mv	s6,s3
    63b6:	4481                	li	s1,0
    63b8:	10001d37          	lui	s10,0x10001
    63bc:	10001db7          	lui	s11,0x10001
    63c0:	10000837          	lui	a6,0x10000
    63c4:	10001bb7          	lui	s7,0x10001
    63c8:	10000c37          	lui	s8,0x10000
    63cc:	10000c93          	li	s9,256
    63d0:	000a8703          	lb	a4,0(s5)
    63d4:	000b0783          	lb	a5,0(s6)
    63d8:	02e70733          	mul	a4,a4,a4
    63dc:	8fb9                	xor	a5,a5,a4
    63de:	0ff7f793          	zext.b	a5,a5
    63e2:	c3a9                	beqz	a5,6424 <_Z15vmadd_testcase1v+0x238>
    63e4:	02080513          	addi	a0,a6,32 # 10000020 <__rodata_start__+0xfff4f28>
    63e8:	6f4d0613          	addi	a2,s10,1780 # 100016f4 <__rodata_start__+0xfff65fc>
    63ec:	efcd8593          	addi	a1,s11,-260 # 10000efc <__rodata_start__+0xfff5e04>
    63f0:	3f100693          	li	a3,1009
    63f4:	0f4020ef          	jal	84e8 <_Z7printf_PKcz>
    63f8:	000a8783          	lb	a5,0(s5)
    63fc:	000b4703          	lbu	a4,0(s6)
    6400:	86a6                	mv	a3,s1
    6402:	02f787b3          	mul	a5,a5,a5
    6406:	8626                	mv	a2,s1
    6408:	85a6                	mv	a1,s1
    640a:	770b8513          	addi	a0,s7,1904 # 10001770 <__rodata_start__+0xfff6678>
    640e:	0ff7f793          	zext.b	a5,a5
    6412:	0d6020ef          	jal	84e8 <_Z7printf_PKcz>
    6416:	058c0513          	addi	a0,s8,88 # 10000058 <__rodata_start__+0xfff4f60>
    641a:	0ce020ef          	jal	84e8 <_Z7printf_PKcz>
    641e:	9002                	ebreak
    6420:	10000837          	lui	a6,0x10000
    6424:	0485                	addi	s1,s1,1
    6426:	0b05                	addi	s6,s6,1
    6428:	0a85                	addi	s5,s5,1
    642a:	fb9493e3          	bne	s1,s9,63d0 <_Z15vmadd_testcase1v+0x1e4>
    642e:	4781                	li	a5,0
    6430:	10000713          	li	a4,256
    6434:	00f906b3          	add	a3,s2,a5
    6438:	00068023          	sb	zero,0(a3)
    643c:	0785                	addi	a5,a5,1
    643e:	fee79be3          	bne	a5,a4,6434 <_Z15vmadd_testcase1v+0x248>
    6442:	70200793          	li	a5,1794
    6446:	1047a00b          	vsetcsr	zero,a5,260
    644a:	6785                	lui	a5,0x1
    644c:	80078793          	addi	a5,a5,-2048 # 800 <_Z12test_fc_procv+0x278>
    6450:	1057a00b          	vsetcsr	zero,a5,261
    6454:	57fd                	li	a5,-1
    6456:	1067a00b          	vsetcsr	zero,a5,262
    645a:	1039200b          	vsetcsr	zero,s2,259
    645e:	2684006b          	vmadd	zero,s0,s0
    6462:	4401                	li	s0,0
    6464:	10001b37          	lui	s6,0x10001
    6468:	10001bb7          	lui	s7,0x10001
    646c:	10000c37          	lui	s8,0x10000
    6470:	100014b7          	lui	s1,0x10001
    6474:	10000937          	lui	s2,0x10000
    6478:	10000a93          	li	s5,256
    647c:	000a0783          	lb	a5,0(s4)
    6480:	0009c703          	lbu	a4,0(s3)
    6484:	02f787b3          	mul	a5,a5,a5
    6488:	8785                	srai	a5,a5,0x1
    648a:	07f7f793          	andi	a5,a5,127
    648e:	04f70163          	beq	a4,a5,64d0 <_Z15vmadd_testcase1v+0x2e4>
    6492:	6f4b0613          	addi	a2,s6,1780 # 100016f4 <__rodata_start__+0xfff65fc>
    6496:	efcb8593          	addi	a1,s7,-260 # 10000efc <__rodata_start__+0xfff5e04>
    649a:	40600693          	li	a3,1030
    649e:	020c0513          	addi	a0,s8,32 # 10000020 <__rodata_start__+0xfff4f28>
    64a2:	046020ef          	jal	84e8 <_Z7printf_PKcz>
    64a6:	000a0783          	lb	a5,0(s4)
    64aa:	0009c703          	lbu	a4,0(s3)
    64ae:	86a2                	mv	a3,s0
    64b0:	02f787b3          	mul	a5,a5,a5
    64b4:	8622                	mv	a2,s0
    64b6:	85a2                	mv	a1,s0
    64b8:	73848513          	addi	a0,s1,1848 # 10001738 <__rodata_start__+0xfff6640>
    64bc:	8785                	srai	a5,a5,0x1
    64be:	0ff7f793          	zext.b	a5,a5
    64c2:	026020ef          	jal	84e8 <_Z7printf_PKcz>
    64c6:	05890513          	addi	a0,s2,88 # 10000058 <__rodata_start__+0xfff4f60>
    64ca:	01e020ef          	jal	84e8 <_Z7printf_PKcz>
    64ce:	9002                	ebreak
    64d0:	0405                	addi	s0,s0,1
    64d2:	0985                	addi	s3,s3,1
    64d4:	0a05                	addi	s4,s4,1
    64d6:	fb5413e3          	bne	s0,s5,647c <_Z15vmadd_testcase1v+0x290>
    64da:	10001637          	lui	a2,0x10001
    64de:	100015b7          	lui	a1,0x10001
    64e2:	10000537          	lui	a0,0x10000
    64e6:	40a00693          	li	a3,1034
    64ea:	6f460613          	addi	a2,a2,1780 # 100016f4 <__rodata_start__+0xfff65fc>
    64ee:	efc58593          	addi	a1,a1,-260 # 10000efc <__rodata_start__+0xfff5e04>
    64f2:	02050513          	addi	a0,a0,32 # 10000020 <__rodata_start__+0xfff4f28>
    64f6:	7f3010ef          	jal	84e8 <_Z7printf_PKcz>
    64fa:	10001537          	lui	a0,0x10001
    64fe:	7a050513          	addi	a0,a0,1952 # 100017a0 <__rodata_start__+0xfff66a8>
    6502:	7e7010ef          	jal	84e8 <_Z7printf_PKcz>
    6506:	5462                	lw	s0,56(sp)
    6508:	50f2                	lw	ra,60(sp)
    650a:	54d2                	lw	s1,52(sp)
    650c:	5942                	lw	s2,48(sp)
    650e:	59b2                	lw	s3,44(sp)
    6510:	5a22                	lw	s4,40(sp)
    6512:	5a92                	lw	s5,36(sp)
    6514:	5b02                	lw	s6,32(sp)
    6516:	4bf2                	lw	s7,28(sp)
    6518:	4c62                	lw	s8,24(sp)
    651a:	4cd2                	lw	s9,20(sp)
    651c:	4d42                	lw	s10,16(sp)
    651e:	4db2                	lw	s11,12(sp)
    6520:	10000537          	lui	a0,0x10000
    6524:	05850513          	addi	a0,a0,88 # 10000058 <__rodata_start__+0xfff4f60>
    6528:	6121                	addi	sp,sp,64
    652a:	7bf0106f          	j	84e8 <_Z7printf_PKcz>

0000652e <_Z15vmadd_testcase2v>:
    652e:	7139                	addi	sp,sp,-64
    6530:	dc22                	sw	s0,56(sp)
    6532:	de06                	sw	ra,60(sp)
    6534:	da26                	sw	s1,52(sp)
    6536:	d84a                	sw	s2,48(sp)
    6538:	d64e                	sw	s3,44(sp)
    653a:	d452                	sw	s4,40(sp)
    653c:	d256                	sw	s5,36(sp)
    653e:	d05a                	sw	s6,32(sp)
    6540:	ce5e                	sw	s7,28(sp)
    6542:	cc62                	sw	s8,24(sp)
    6544:	ca66                	sw	s9,20(sp)
    6546:	c86a                	sw	s10,16(sp)
    6548:	c66e                	sw	s11,12(sp)
    654a:	4781                	li	a5,0
    654c:	1001d437          	lui	s0,0x1001d
    6550:	10000693          	li	a3,256
    6554:	04040713          	addi	a4,s0,64 # 1001d040 <waddr>
    6558:	973e                	add	a4,a4,a5
    655a:	00070023          	sb	zero,0(a4)
    655e:	0785                	addi	a5,a5,1
    6560:	04040993          	addi	s3,s0,64
    6564:	fed798e3          	bne	a5,a3,6554 <_Z15vmadd_testcase2v+0x26>
    6568:	6785                	lui	a5,0x1
    656a:	f0078793          	addi	a5,a5,-256 # f00 <_Z22minimum_matmul_multi_1PaS_S_+0xca>
    656e:	1047a00b          	vsetcsr	zero,a5,260
    6572:	20000793          	li	a5,512
    6576:	1057a00b          	vsetcsr	zero,a5,261
    657a:	57fd                	li	a5,-1
    657c:	1067a00b          	vsetcsr	zero,a5,262
    6580:	1039a00b          	vsetcsr	zero,s3,259
    6584:	10098a13          	addi	s4,s3,256
    6588:	4cbd                	li	s9,15
    658a:	279a006b          	vmadd	zero,s4,s9
    658e:	04040913          	addi	s2,s0,64
    6592:	84d2                	mv	s1,s4
    6594:	8c52                	mv	s8,s4
    6596:	04040413          	addi	s0,s0,64
    659a:	4a81                	li	s5,0
    659c:	10001d37          	lui	s10,0x10001
    65a0:	10001db7          	lui	s11,0x10001
    65a4:	10000837          	lui	a6,0x10000
    65a8:	10001b37          	lui	s6,0x10001
    65ac:	10000bb7          	lui	s7,0x10000
    65b0:	000c0783          	lb	a5,0(s8)
    65b4:	00040703          	lb	a4,0(s0)
    65b8:	039787b3          	mul	a5,a5,s9
    65bc:	8fb9                	xor	a5,a5,a4
    65be:	0ff7f793          	zext.b	a5,a5
    65c2:	c3a1                	beqz	a5,6602 <_Z15vmadd_testcase2v+0xd4>
    65c4:	02080513          	addi	a0,a6,32 # 10000020 <__rodata_start__+0xfff4f28>
    65c8:	7acd0613          	addi	a2,s10,1964 # 100017ac <__rodata_start__+0xfff66b4>
    65cc:	efcd8593          	addi	a1,s11,-260 # 10000efc <__rodata_start__+0xfff5e04>
    65d0:	41f00693          	li	a3,1055
    65d4:	715010ef          	jal	84e8 <_Z7printf_PKcz>
    65d8:	000c0703          	lb	a4,0(s8)
    65dc:	00044683          	lbu	a3,0(s0)
    65e0:	8656                	mv	a2,s5
    65e2:	03970733          	mul	a4,a4,s9
    65e6:	85d6                	mv	a1,s5
    65e8:	7bcb0513          	addi	a0,s6,1980 # 100017bc <__rodata_start__+0xfff66c4>
    65ec:	0ff77713          	zext.b	a4,a4
    65f0:	6f9010ef          	jal	84e8 <_Z7printf_PKcz>
    65f4:	058b8513          	addi	a0,s7,88 # 10000058 <__rodata_start__+0xfff4f60>
    65f8:	6f1010ef          	jal	84e8 <_Z7printf_PKcz>
    65fc:	9002                	ebreak
    65fe:	10000837          	lui	a6,0x10000
    6602:	0a85                	addi	s5,s5,1
    6604:	04000793          	li	a5,64
    6608:	0405                	addi	s0,s0,1
    660a:	0c05                	addi	s8,s8,1
    660c:	fafa92e3          	bne	s5,a5,65b0 <_Z15vmadd_testcase2v+0x82>
    6610:	4781                	li	a5,0
    6612:	10000713          	li	a4,256
    6616:	00f986b3          	add	a3,s3,a5
    661a:	00068023          	sb	zero,0(a3)
    661e:	0785                	addi	a5,a5,1
    6620:	fee79be3          	bne	a5,a4,6616 <_Z15vmadd_testcase2v+0xe8>
    6624:	6785                	lui	a5,0x1
    6626:	f0078793          	addi	a5,a5,-256 # f00 <_Z22minimum_matmul_multi_1PaS_S_+0xca>
    662a:	1047a00b          	vsetcsr	zero,a5,260
    662e:	20800793          	li	a5,520
    6632:	1057a00b          	vsetcsr	zero,a5,261
    6636:	57fd                	li	a5,-1
    6638:	1067a00b          	vsetcsr	zero,a5,262
    663c:	1039a00b          	vsetcsr	zero,s3,259
    6640:	4abd                	li	s5,15
    6642:	275a006b          	vmadd	zero,s4,s5
    6646:	4401                	li	s0,0
    6648:	10001bb7          	lui	s7,0x10001
    664c:	10001c37          	lui	s8,0x10001
    6650:	10000cb7          	lui	s9,0x10000
    6654:	10001a37          	lui	s4,0x10001
    6658:	10000b37          	lui	s6,0x10000
    665c:	00048783          	lb	a5,0(s1)
    6660:	00090703          	lb	a4,0(s2)
    6664:	035787b3          	mul	a5,a5,s5
    6668:	8fb9                	xor	a5,a5,a4
    666a:	0ff7f793          	zext.b	a5,a5
    666e:	cf95                	beqz	a5,66aa <_Z15vmadd_testcase2v+0x17c>
    6670:	7acb8613          	addi	a2,s7,1964 # 100017ac <__rodata_start__+0xfff66b4>
    6674:	efcc0593          	addi	a1,s8,-260 # 10000efc <__rodata_start__+0xfff5e04>
    6678:	43400693          	li	a3,1076
    667c:	020c8513          	addi	a0,s9,32 # 10000020 <__rodata_start__+0xfff4f28>
    6680:	669010ef          	jal	84e8 <_Z7printf_PKcz>
    6684:	00048703          	lb	a4,0(s1)
    6688:	00094683          	lbu	a3,0(s2)
    668c:	8622                	mv	a2,s0
    668e:	03570733          	mul	a4,a4,s5
    6692:	85a2                	mv	a1,s0
    6694:	7e8a0513          	addi	a0,s4,2024 # 100017e8 <__rodata_start__+0xfff66f0>
    6698:	0ff77713          	zext.b	a4,a4
    669c:	64d010ef          	jal	84e8 <_Z7printf_PKcz>
    66a0:	058b0513          	addi	a0,s6,88 # 10000058 <__rodata_start__+0xfff4f60>
    66a4:	645010ef          	jal	84e8 <_Z7printf_PKcz>
    66a8:	9002                	ebreak
    66aa:	0405                	addi	s0,s0,1
    66ac:	04100793          	li	a5,65
    66b0:	0905                	addi	s2,s2,1
    66b2:	0485                	addi	s1,s1,1
    66b4:	faf414e3          	bne	s0,a5,665c <_Z15vmadd_testcase2v+0x12e>
    66b8:	0419c783          	lbu	a5,65(s3)
    66bc:	10001a37          	lui	s4,0x10001
    66c0:	10001937          	lui	s2,0x10001
    66c4:	100004b7          	lui	s1,0x10000
    66c8:	10000437          	lui	s0,0x10000
    66cc:	cb85                	beqz	a5,66fc <_Z15vmadd_testcase2v+0x1ce>
    66ce:	43900693          	li	a3,1081
    66d2:	7aca0613          	addi	a2,s4,1964 # 100017ac <__rodata_start__+0xfff66b4>
    66d6:	efc90593          	addi	a1,s2,-260 # 10000efc <__rodata_start__+0xfff5e04>
    66da:	02048513          	addi	a0,s1,32 # 10000020 <__rodata_start__+0xfff4f28>
    66de:	60b010ef          	jal	84e8 <_Z7printf_PKcz>
    66e2:	0419c583          	lbu	a1,65(s3)
    66e6:	10002537          	lui	a0,0x10002
    66ea:	81450513          	addi	a0,a0,-2028 # 10001814 <__rodata_start__+0xfff671c>
    66ee:	5fb010ef          	jal	84e8 <_Z7printf_PKcz>
    66f2:	05840513          	addi	a0,s0,88 # 10000058 <__rodata_start__+0xfff4f60>
    66f6:	5f3010ef          	jal	84e8 <_Z7printf_PKcz>
    66fa:	9002                	ebreak
    66fc:	7aca0613          	addi	a2,s4,1964
    6700:	efc90593          	addi	a1,s2,-260
    6704:	43c00693          	li	a3,1084
    6708:	02048513          	addi	a0,s1,32
    670c:	5dd010ef          	jal	84e8 <_Z7printf_PKcz>
    6710:	10001537          	lui	a0,0x10001
    6714:	7a050513          	addi	a0,a0,1952 # 100017a0 <__rodata_start__+0xfff66a8>
    6718:	5d1010ef          	jal	84e8 <_Z7printf_PKcz>
    671c:	05840513          	addi	a0,s0,88
    6720:	5462                	lw	s0,56(sp)
    6722:	50f2                	lw	ra,60(sp)
    6724:	54d2                	lw	s1,52(sp)
    6726:	5942                	lw	s2,48(sp)
    6728:	59b2                	lw	s3,44(sp)
    672a:	5a22                	lw	s4,40(sp)
    672c:	5a92                	lw	s5,36(sp)
    672e:	5b02                	lw	s6,32(sp)
    6730:	4bf2                	lw	s7,28(sp)
    6732:	4c62                	lw	s8,24(sp)
    6734:	4cd2                	lw	s9,20(sp)
    6736:	4d42                	lw	s10,16(sp)
    6738:	4db2                	lw	s11,12(sp)
    673a:	6121                	addi	sp,sp,64
    673c:	5ad0106f          	j	84e8 <_Z7printf_PKcz>

00006740 <_Z14vmul_testcase1v>:
    6740:	7139                	addi	sp,sp,-64
    6742:	dc22                	sw	s0,56(sp)
    6744:	de06                	sw	ra,60(sp)
    6746:	da26                	sw	s1,52(sp)
    6748:	d84a                	sw	s2,48(sp)
    674a:	d64e                	sw	s3,44(sp)
    674c:	d452                	sw	s4,40(sp)
    674e:	d256                	sw	s5,36(sp)
    6750:	d05a                	sw	s6,32(sp)
    6752:	ce5e                	sw	s7,28(sp)
    6754:	cc62                	sw	s8,24(sp)
    6756:	ca66                	sw	s9,20(sp)
    6758:	c86a                	sw	s10,16(sp)
    675a:	c66e                	sw	s11,12(sp)
    675c:	4781                	li	a5,0
    675e:	1001d437          	lui	s0,0x1001d
    6762:	10000693          	li	a3,256
    6766:	04040713          	addi	a4,s0,64 # 1001d040 <waddr>
    676a:	973e                	add	a4,a4,a5
    676c:	00070023          	sb	zero,0(a4)
    6770:	0785                	addi	a5,a5,1
    6772:	04040a13          	addi	s4,s0,64
    6776:	fed798e3          	bne	a5,a3,6766 <_Z14vmul_testcase1v+0x26>
    677a:	70000793          	li	a5,1792
    677e:	1047a00b          	vsetcsr	zero,a5,260
    6782:	08000793          	li	a5,128
    6786:	1057a00b          	vsetcsr	zero,a5,261
    678a:	57fd                	li	a5,-1
    678c:	1067a00b          	vsetcsr	zero,a5,262
    6790:	103a200b          	vsetcsr	zero,s4,259
    6794:	1001d4b7          	lui	s1,0x1001d
    6798:	d3048493          	addi	s1,s1,-720 # 1001cd30 <raddr1>
    679c:	10048a93          	addi	s5,s1,256
    67a0:	2954806b          	vmul	zero,s1,s5
    67a4:	04040993          	addi	s3,s0,64
    67a8:	4901                	li	s2,0
    67aa:	04040413          	addi	s0,s0,64
    67ae:	0fe00b13          	li	s6,254
    67b2:	10002bb7          	lui	s7,0x10002
    67b6:	10001c37          	lui	s8,0x10001
    67ba:	10000db7          	lui	s11,0x10000
    67be:	10002cb7          	lui	s9,0x10002
    67c2:	10000d37          	lui	s10,0x10000
    67c6:	00044783          	lbu	a5,0(s0)
    67ca:	03678c63          	beq	a5,s6,6802 <_Z14vmul_testcase1v+0xc2>
    67ce:	82cb8613          	addi	a2,s7,-2004 # 1000182c <__rodata_start__+0xfff6734>
    67d2:	efcc0593          	addi	a1,s8,-260 # 10000efc <__rodata_start__+0xfff5e04>
    67d6:	45200693          	li	a3,1106
    67da:	020d8513          	addi	a0,s11,32 # 10000020 <__rodata_start__+0xfff4f28>
    67de:	50b010ef          	jal	84e8 <_Z7printf_PKcz>
    67e2:	00044703          	lbu	a4,0(s0)
    67e6:	0fe00793          	li	a5,254
    67ea:	86ca                	mv	a3,s2
    67ec:	864a                	mv	a2,s2
    67ee:	85ca                	mv	a1,s2
    67f0:	83cc8513          	addi	a0,s9,-1988 # 1000183c <__rodata_start__+0xfff6744>
    67f4:	4f5010ef          	jal	84e8 <_Z7printf_PKcz>
    67f8:	058d0513          	addi	a0,s10,88 # 10000058 <__rodata_start__+0xfff4f60>
    67fc:	4ed010ef          	jal	84e8 <_Z7printf_PKcz>
    6800:	9002                	ebreak
    6802:	0905                	addi	s2,s2,1
    6804:	47c1                	li	a5,16
    6806:	0405                	addi	s0,s0,1
    6808:	faf91fe3          	bne	s2,a5,67c6 <_Z14vmul_testcase1v+0x86>
    680c:	4781                	li	a5,0
    680e:	10000713          	li	a4,256
    6812:	00fa06b3          	add	a3,s4,a5
    6816:	00068023          	sb	zero,0(a3)
    681a:	0785                	addi	a5,a5,1
    681c:	fee79be3          	bne	a5,a4,6812 <_Z14vmul_testcase1v+0xd2>
    6820:	70000793          	li	a5,1792
    6824:	1047a00b          	vsetcsr	zero,a5,260
    6828:	6785                	lui	a5,0x1
    682a:	80078793          	addi	a5,a5,-2048 # 800 <_Z12test_fc_procv+0x278>
    682e:	1057a00b          	vsetcsr	zero,a5,261
    6832:	57fd                	li	a5,-1
    6834:	1067a00b          	vsetcsr	zero,a5,262
    6838:	103a200b          	vsetcsr	zero,s4,259
    683c:	2954806b          	vmul	zero,s1,s5
    6840:	4401                	li	s0,0
    6842:	0fe00493          	li	s1,254
    6846:	10002937          	lui	s2,0x10002
    684a:	10001a37          	lui	s4,0x10001
    684e:	10000ab7          	lui	s5,0x10000
    6852:	10002b37          	lui	s6,0x10002
    6856:	10000bb7          	lui	s7,0x10000
    685a:	0009c783          	lbu	a5,0(s3)
    685e:	02978c63          	beq	a5,s1,6896 <_Z14vmul_testcase1v+0x156>
    6862:	82c90613          	addi	a2,s2,-2004 # 1000182c <__rodata_start__+0xfff6734>
    6866:	efca0593          	addi	a1,s4,-260 # 10000efc <__rodata_start__+0xfff5e04>
    686a:	46700693          	li	a3,1127
    686e:	020a8513          	addi	a0,s5,32 # 10000020 <__rodata_start__+0xfff4f28>
    6872:	477010ef          	jal	84e8 <_Z7printf_PKcz>
    6876:	0009c703          	lbu	a4,0(s3)
    687a:	0fe00793          	li	a5,254
    687e:	86a2                	mv	a3,s0
    6880:	8622                	mv	a2,s0
    6882:	85a2                	mv	a1,s0
    6884:	83cb0513          	addi	a0,s6,-1988 # 1000183c <__rodata_start__+0xfff6744>
    6888:	461010ef          	jal	84e8 <_Z7printf_PKcz>
    688c:	058b8513          	addi	a0,s7,88 # 10000058 <__rodata_start__+0xfff4f60>
    6890:	459010ef          	jal	84e8 <_Z7printf_PKcz>
    6894:	9002                	ebreak
    6896:	0405                	addi	s0,s0,1
    6898:	10000793          	li	a5,256
    689c:	0985                	addi	s3,s3,1
    689e:	faf41ee3          	bne	s0,a5,685a <_Z14vmul_testcase1v+0x11a>
    68a2:	10002637          	lui	a2,0x10002
    68a6:	100015b7          	lui	a1,0x10001
    68aa:	10000537          	lui	a0,0x10000
    68ae:	46b00693          	li	a3,1131
    68b2:	82c60613          	addi	a2,a2,-2004 # 1000182c <__rodata_start__+0xfff6734>
    68b6:	efc58593          	addi	a1,a1,-260 # 10000efc <__rodata_start__+0xfff5e04>
    68ba:	02050513          	addi	a0,a0,32 # 10000020 <__rodata_start__+0xfff4f28>
    68be:	42b010ef          	jal	84e8 <_Z7printf_PKcz>
    68c2:	10002537          	lui	a0,0x10002
    68c6:	87050513          	addi	a0,a0,-1936 # 10001870 <__rodata_start__+0xfff6778>
    68ca:	41f010ef          	jal	84e8 <_Z7printf_PKcz>
    68ce:	5462                	lw	s0,56(sp)
    68d0:	50f2                	lw	ra,60(sp)
    68d2:	54d2                	lw	s1,52(sp)
    68d4:	5942                	lw	s2,48(sp)
    68d6:	59b2                	lw	s3,44(sp)
    68d8:	5a22                	lw	s4,40(sp)
    68da:	5a92                	lw	s5,36(sp)
    68dc:	5b02                	lw	s6,32(sp)
    68de:	4bf2                	lw	s7,28(sp)
    68e0:	4c62                	lw	s8,24(sp)
    68e2:	4cd2                	lw	s9,20(sp)
    68e4:	4d42                	lw	s10,16(sp)
    68e6:	4db2                	lw	s11,12(sp)
    68e8:	10000537          	lui	a0,0x10000
    68ec:	05850513          	addi	a0,a0,88 # 10000058 <__rodata_start__+0xfff4f60>
    68f0:	6121                	addi	sp,sp,64
    68f2:	3f70106f          	j	84e8 <_Z7printf_PKcz>

000068f6 <_Z15vmulh_testcase1v>:
    68f6:	7139                	addi	sp,sp,-64
    68f8:	dc22                	sw	s0,56(sp)
    68fa:	de06                	sw	ra,60(sp)
    68fc:	da26                	sw	s1,52(sp)
    68fe:	d84a                	sw	s2,48(sp)
    6900:	d64e                	sw	s3,44(sp)
    6902:	d452                	sw	s4,40(sp)
    6904:	d256                	sw	s5,36(sp)
    6906:	d05a                	sw	s6,32(sp)
    6908:	ce5e                	sw	s7,28(sp)
    690a:	cc62                	sw	s8,24(sp)
    690c:	ca66                	sw	s9,20(sp)
    690e:	c86a                	sw	s10,16(sp)
    6910:	c66e                	sw	s11,12(sp)
    6912:	4781                	li	a5,0
    6914:	1001d437          	lui	s0,0x1001d
    6918:	10000693          	li	a3,256
    691c:	04040713          	addi	a4,s0,64 # 1001d040 <waddr>
    6920:	973e                	add	a4,a4,a5
    6922:	00070023          	sb	zero,0(a4)
    6926:	0785                	addi	a5,a5,1
    6928:	04040a13          	addi	s4,s0,64
    692c:	fed798e3          	bne	a5,a3,691c <_Z15vmulh_testcase1v+0x26>
    6930:	70000793          	li	a5,1792
    6934:	1047a00b          	vsetcsr	zero,a5,260
    6938:	08000793          	li	a5,128
    693c:	1057a00b          	vsetcsr	zero,a5,261
    6940:	57fd                	li	a5,-1
    6942:	1067a00b          	vsetcsr	zero,a5,262
    6946:	103a200b          	vsetcsr	zero,s4,259
    694a:	1001d4b7          	lui	s1,0x1001d
    694e:	d3048493          	addi	s1,s1,-720 # 1001cd30 <raddr1>
    6952:	10048a93          	addi	s5,s1,256
    6956:	2d54806b          	vmulh	zero,s1,s5
    695a:	04040993          	addi	s3,s0,64
    695e:	4901                	li	s2,0
    6960:	04040413          	addi	s0,s0,64
    6964:	4b05                	li	s6,1
    6966:	10002bb7          	lui	s7,0x10002
    696a:	10001c37          	lui	s8,0x10001
    696e:	10000db7          	lui	s11,0x10000
    6972:	10002cb7          	lui	s9,0x10002
    6976:	10000d37          	lui	s10,0x10000
    697a:	00044783          	lbu	a5,0(s0)
    697e:	03678b63          	beq	a5,s6,69b4 <_Z15vmulh_testcase1v+0xbe>
    6982:	87cb8613          	addi	a2,s7,-1924 # 1000187c <__rodata_start__+0xfff6784>
    6986:	efcc0593          	addi	a1,s8,-260 # 10000efc <__rodata_start__+0xfff5e04>
    698a:	48100693          	li	a3,1153
    698e:	020d8513          	addi	a0,s11,32 # 10000020 <__rodata_start__+0xfff4f28>
    6992:	357010ef          	jal	84e8 <_Z7printf_PKcz>
    6996:	00044703          	lbu	a4,0(s0)
    699a:	4785                	li	a5,1
    699c:	86ca                	mv	a3,s2
    699e:	864a                	mv	a2,s2
    69a0:	85ca                	mv	a1,s2
    69a2:	88cc8513          	addi	a0,s9,-1908 # 1000188c <__rodata_start__+0xfff6794>
    69a6:	343010ef          	jal	84e8 <_Z7printf_PKcz>
    69aa:	058d0513          	addi	a0,s10,88 # 10000058 <__rodata_start__+0xfff4f60>
    69ae:	33b010ef          	jal	84e8 <_Z7printf_PKcz>
    69b2:	9002                	ebreak
    69b4:	0905                	addi	s2,s2,1
    69b6:	47c1                	li	a5,16
    69b8:	0405                	addi	s0,s0,1
    69ba:	fcf910e3          	bne	s2,a5,697a <_Z15vmulh_testcase1v+0x84>
    69be:	4781                	li	a5,0
    69c0:	10000713          	li	a4,256
    69c4:	00fa06b3          	add	a3,s4,a5
    69c8:	00068023          	sb	zero,0(a3)
    69cc:	0785                	addi	a5,a5,1
    69ce:	fee79be3          	bne	a5,a4,69c4 <_Z15vmulh_testcase1v+0xce>
    69d2:	70000793          	li	a5,1792
    69d6:	1047a00b          	vsetcsr	zero,a5,260
    69da:	6785                	lui	a5,0x1
    69dc:	80078793          	addi	a5,a5,-2048 # 800 <_Z12test_fc_procv+0x278>
    69e0:	1057a00b          	vsetcsr	zero,a5,261
    69e4:	57fd                	li	a5,-1
    69e6:	1067a00b          	vsetcsr	zero,a5,262
    69ea:	103a200b          	vsetcsr	zero,s4,259
    69ee:	2d54806b          	vmulh	zero,s1,s5
    69f2:	4401                	li	s0,0
    69f4:	4485                	li	s1,1
    69f6:	10002937          	lui	s2,0x10002
    69fa:	10001a37          	lui	s4,0x10001
    69fe:	10000ab7          	lui	s5,0x10000
    6a02:	10002b37          	lui	s6,0x10002
    6a06:	10000bb7          	lui	s7,0x10000
    6a0a:	0009c783          	lbu	a5,0(s3)
    6a0e:	02978b63          	beq	a5,s1,6a44 <_Z15vmulh_testcase1v+0x14e>
    6a12:	87c90613          	addi	a2,s2,-1924 # 1000187c <__rodata_start__+0xfff6784>
    6a16:	efca0593          	addi	a1,s4,-260 # 10000efc <__rodata_start__+0xfff5e04>
    6a1a:	49600693          	li	a3,1174
    6a1e:	020a8513          	addi	a0,s5,32 # 10000020 <__rodata_start__+0xfff4f28>
    6a22:	2c7010ef          	jal	84e8 <_Z7printf_PKcz>
    6a26:	0009c703          	lbu	a4,0(s3)
    6a2a:	4785                	li	a5,1
    6a2c:	86a2                	mv	a3,s0
    6a2e:	8622                	mv	a2,s0
    6a30:	85a2                	mv	a1,s0
    6a32:	88cb0513          	addi	a0,s6,-1908 # 1000188c <__rodata_start__+0xfff6794>
    6a36:	2b3010ef          	jal	84e8 <_Z7printf_PKcz>
    6a3a:	058b8513          	addi	a0,s7,88 # 10000058 <__rodata_start__+0xfff4f60>
    6a3e:	2ab010ef          	jal	84e8 <_Z7printf_PKcz>
    6a42:	9002                	ebreak
    6a44:	0405                	addi	s0,s0,1
    6a46:	10000793          	li	a5,256
    6a4a:	0985                	addi	s3,s3,1
    6a4c:	faf41fe3          	bne	s0,a5,6a0a <_Z15vmulh_testcase1v+0x114>
    6a50:	10002637          	lui	a2,0x10002
    6a54:	100015b7          	lui	a1,0x10001
    6a58:	10000537          	lui	a0,0x10000
    6a5c:	49a00693          	li	a3,1178
    6a60:	87c60613          	addi	a2,a2,-1924 # 1000187c <__rodata_start__+0xfff6784>
    6a64:	efc58593          	addi	a1,a1,-260 # 10000efc <__rodata_start__+0xfff5e04>
    6a68:	02050513          	addi	a0,a0,32 # 10000020 <__rodata_start__+0xfff4f28>
    6a6c:	27d010ef          	jal	84e8 <_Z7printf_PKcz>
    6a70:	10002537          	lui	a0,0x10002
    6a74:	8c450513          	addi	a0,a0,-1852 # 100018c4 <__rodata_start__+0xfff67cc>
    6a78:	271010ef          	jal	84e8 <_Z7printf_PKcz>
    6a7c:	5462                	lw	s0,56(sp)
    6a7e:	50f2                	lw	ra,60(sp)
    6a80:	54d2                	lw	s1,52(sp)
    6a82:	5942                	lw	s2,48(sp)
    6a84:	59b2                	lw	s3,44(sp)
    6a86:	5a22                	lw	s4,40(sp)
    6a88:	5a92                	lw	s5,36(sp)
    6a8a:	5b02                	lw	s6,32(sp)
    6a8c:	4bf2                	lw	s7,28(sp)
    6a8e:	4c62                	lw	s8,24(sp)
    6a90:	4cd2                	lw	s9,20(sp)
    6a92:	4d42                	lw	s10,16(sp)
    6a94:	4db2                	lw	s11,12(sp)
    6a96:	10000537          	lui	a0,0x10000
    6a9a:	05850513          	addi	a0,a0,88 # 10000058 <__rodata_start__+0xfff4f60>
    6a9e:	6121                	addi	sp,sp,64
    6aa0:	2490106f          	j	84e8 <_Z7printf_PKcz>

00006aa4 <_Z13veu_benchmarkv>:
    6aa4:	1101                	addi	sp,sp,-32
    6aa6:	ca26                	sw	s1,20(sp)
    6aa8:	c84a                	sw	s2,16(sp)
    6aaa:	c64e                	sw	s3,12(sp)
    6aac:	10001937          	lui	s2,0x10001
    6ab0:	100029b7          	lui	s3,0x10002
    6ab4:	100004b7          	lui	s1,0x10000
    6ab8:	8d098613          	addi	a2,s3,-1840 # 100018d0 <__rodata_start__+0xfff67d8>
    6abc:	efc90593          	addi	a1,s2,-260 # 10000efc <__rodata_start__+0xfff5e04>
    6ac0:	49f00693          	li	a3,1183
    6ac4:	02048513          	addi	a0,s1,32 # 10000020 <__rodata_start__+0xfff4f28>
    6ac8:	ce06                	sw	ra,28(sp)
    6aca:	cc22                	sw	s0,24(sp)
    6acc:	c452                	sw	s4,8(sp)
    6ace:	c256                	sw	s5,4(sp)
    6ad0:	219010ef          	jal	84e8 <_Z7printf_PKcz>
    6ad4:	10002537          	lui	a0,0x10002
    6ad8:	8e050513          	addi	a0,a0,-1824 # 100018e0 <__rodata_start__+0xfff67e8>
    6adc:	10000437          	lui	s0,0x10000
    6ae0:	209010ef          	jal	84e8 <_Z7printf_PKcz>
    6ae4:	05840513          	addi	a0,s0,88 # 10000058 <__rodata_start__+0xfff4f60>
    6ae8:	201010ef          	jal	84e8 <_Z7printf_PKcz>
    6aec:	8d098613          	addi	a2,s3,-1840
    6af0:	4a100693          	li	a3,1185
    6af4:	efc90593          	addi	a1,s2,-260
    6af8:	02048513          	addi	a0,s1,32
    6afc:	1ed010ef          	jal	84e8 <_Z7printf_PKcz>
    6b00:	1001d5b7          	lui	a1,0x1001d
    6b04:	10002537          	lui	a0,0x10002
    6b08:	d3058a93          	addi	s5,a1,-720 # 1001cd30 <raddr1>
    6b0c:	8f850513          	addi	a0,a0,-1800 # 100018f8 <__rodata_start__+0xfff6800>
    6b10:	d3058593          	addi	a1,a1,-720
    6b14:	1d5010ef          	jal	84e8 <_Z7printf_PKcz>
    6b18:	05840513          	addi	a0,s0,88
    6b1c:	1cd010ef          	jal	84e8 <_Z7printf_PKcz>
    6b20:	8d098613          	addi	a2,s3,-1840
    6b24:	4a200693          	li	a3,1186
    6b28:	efc90593          	addi	a1,s2,-260
    6b2c:	02048513          	addi	a0,s1,32
    6b30:	1b9010ef          	jal	84e8 <_Z7printf_PKcz>
    6b34:	1001da37          	lui	s4,0x1001d
    6b38:	040a0593          	addi	a1,s4,64 # 1001d040 <waddr>
    6b3c:	10002537          	lui	a0,0x10002
    6b40:	10058593          	addi	a1,a1,256
    6b44:	90450513          	addi	a0,a0,-1788 # 10001904 <__rodata_start__+0xfff680c>
    6b48:	1a1010ef          	jal	84e8 <_Z7printf_PKcz>
    6b4c:	05840513          	addi	a0,s0,88
    6b50:	199010ef          	jal	84e8 <_Z7printf_PKcz>
    6b54:	8d098613          	addi	a2,s3,-1840
    6b58:	4a300693          	li	a3,1187
    6b5c:	efc90593          	addi	a1,s2,-260
    6b60:	02048513          	addi	a0,s1,32
    6b64:	185010ef          	jal	84e8 <_Z7printf_PKcz>
    6b68:	10002537          	lui	a0,0x10002
    6b6c:	200a8593          	addi	a1,s5,512
    6b70:	91050513          	addi	a0,a0,-1776 # 10001910 <__rodata_start__+0xfff6818>
    6b74:	175010ef          	jal	84e8 <_Z7printf_PKcz>
    6b78:	05840513          	addi	a0,s0,88
    6b7c:	16d010ef          	jal	84e8 <_Z7printf_PKcz>
    6b80:	8d098613          	addi	a2,s3,-1840
    6b84:	4a400693          	li	a3,1188
    6b88:	efc90593          	addi	a1,s2,-260
    6b8c:	02048513          	addi	a0,s1,32
    6b90:	159010ef          	jal	84e8 <_Z7printf_PKcz>
    6b94:	10002537          	lui	a0,0x10002
    6b98:	100a8593          	addi	a1,s5,256
    6b9c:	91c50513          	addi	a0,a0,-1764 # 1000191c <__rodata_start__+0xfff6824>
    6ba0:	149010ef          	jal	84e8 <_Z7printf_PKcz>
    6ba4:	05840513          	addi	a0,s0,88
    6ba8:	141010ef          	jal	84e8 <_Z7printf_PKcz>
    6bac:	8d098613          	addi	a2,s3,-1840
    6bb0:	4a500693          	li	a3,1189
    6bb4:	efc90593          	addi	a1,s2,-260
    6bb8:	02048513          	addi	a0,s1,32
    6bbc:	12d010ef          	jal	84e8 <_Z7printf_PKcz>
    6bc0:	10002537          	lui	a0,0x10002
    6bc4:	040a0593          	addi	a1,s4,64
    6bc8:	92850513          	addi	a0,a0,-1752 # 10001928 <__rodata_start__+0xfff6830>
    6bcc:	11d010ef          	jal	84e8 <_Z7printf_PKcz>
    6bd0:	05840513          	addi	a0,s0,88
    6bd4:	115010ef          	jal	84e8 <_Z7printf_PKcz>
    6bd8:	92cfd0ef          	jal	3d04 <_Z16vorcsr_testcase1v>
    6bdc:	a4cfd0ef          	jal	3e28 <_Z17vandcsr_testcase1v>
    6be0:	b6cfd0ef          	jal	3f4c <_Z17vsetcsr_testcase1v>
    6be4:	c8cfd0ef          	jal	4070 <_Z17vgetcsr_testcase1v>
    6be8:	dacfd0ef          	jal	4194 <_Z14vadd_testcase1v>
    6bec:	fa8fd0ef          	jal	4394 <_Z14vadd_testcase2v>
    6bf0:	8c3fd0ef          	jal	44b2 <_Z14vsub_testcase1v>
    6bf4:	abffd0ef          	jal	46b2 <_Z14vmin_testcase1v>
    6bf8:	ca1fd0ef          	jal	4898 <_Z15vminu_testcase1v>
    6bfc:	e83fd0ef          	jal	4a7e <_Z14vmax_testcase1v>
    6c00:	864fe0ef          	jal	4c64 <_Z15vmaxu_testcase1v>
    6c04:	a46fe0ef          	jal	4e4a <_Z14vand_testcase1v>
    6c08:	c32fe0ef          	jal	503a <_Z13vor_testcase1v>
    6c0c:	e1efe0ef          	jal	522a <_Z14vxor_testcase1v>
    6c10:	8e8ff0ef          	jal	5cf8 <_Z17vredsum_testcase1v>
    6c14:	bc2ff0ef          	jal	5fd6 <_Z14vmac_testcase1v>
    6c18:	3625                	jal	6740 <_Z14vmul_testcase1v>
    6c1a:	9b3fe0ef          	jal	55cc <_Z15vssrl_testcase1v>
    6c1e:	b79fe0ef          	jal	5796 <_Z15vssra_testcase1v>
    6c22:	d4dfe0ef          	jal	596e <_Z16vnclip_testcase1v>
    6c26:	ff4fe0ef          	jal	541a <_Z13vmv_testcase1v>
    6c2a:	8d098613          	addi	a2,s3,-1840
    6c2e:	efc90593          	addi	a1,s2,-260
    6c32:	4fb00693          	li	a3,1275
    6c36:	02048513          	addi	a0,s1,32
    6c3a:	0af010ef          	jal	84e8 <_Z7printf_PKcz>
    6c3e:	10002537          	lui	a0,0x10002
    6c42:	93450513          	addi	a0,a0,-1740 # 10001934 <__rodata_start__+0xfff683c>
    6c46:	0a3010ef          	jal	84e8 <_Z7printf_PKcz>
    6c4a:	05840513          	addi	a0,s0,88
    6c4e:	4462                	lw	s0,24(sp)
    6c50:	40f2                	lw	ra,28(sp)
    6c52:	44d2                	lw	s1,20(sp)
    6c54:	4942                	lw	s2,16(sp)
    6c56:	49b2                	lw	s3,12(sp)
    6c58:	4a22                	lw	s4,8(sp)
    6c5a:	4a92                	lw	s5,4(sp)
    6c5c:	6105                	addi	sp,sp,32
    6c5e:	08b0106f          	j	84e8 <_Z7printf_PKcz>

00006c62 <_Z12virt_to_pagej>:
    6c62:	effd07b7          	lui	a5,0xeffd0
    6c66:	953e                	add	a0,a0,a5
    6c68:	8129                	srli	a0,a0,0xa
    6c6a:	07c00793          	li	a5,124
    6c6e:	00a7eb63          	bltu	a5,a0,6c84 <_Z12virt_to_pagej+0x22>
    6c72:	47f1                	li	a5,28
    6c74:	02f50533          	mul	a0,a0,a5
    6c78:	1004f7b7          	lui	a5,0x1004f
    6c7c:	27078793          	addi	a5,a5,624 # 1004f270 <linker_stack_start+0x1f280>
    6c80:	953e                	add	a0,a0,a5
    6c82:	8082                	ret
    6c84:	4501                	li	a0,0
    6c86:	8082                	ret

00006c88 <_Z15init_page_buddyv>:
    6c88:	1001d7b7          	lui	a5,0x1001d
    6c8c:	24078793          	addi	a5,a5,576 # 1001d240 <page_buddy>
    6c90:	03078713          	addi	a4,a5,48
    6c94:	c39c                	sw	a5,0(a5)
    6c96:	c3dc                	sw	a5,4(a5)
    6c98:	07a1                	addi	a5,a5,8
    6c9a:	fee79de3          	bne	a5,a4,6c94 <_Z15init_page_buddyv+0xc>
    6c9e:	8082                	ret

00006ca0 <_Z13init_page_mapv>:
    6ca0:	1141                	addi	sp,sp,-16
    6ca2:	c606                	sw	ra,12(sp)
    6ca4:	37d5                	jal	6c88 <_Z15init_page_buddyv>
    6ca6:	1001d737          	lui	a4,0x1001d
    6caa:	1004f7b7          	lui	a5,0x1004f
    6cae:	24070713          	addi	a4,a4,576 # 1001d240 <page_buddy>
    6cb2:	4601                	li	a2,0
    6cb4:	27078793          	addi	a5,a5,624 # 1004f270 <linker_stack_start+0x1f280>
    6cb8:	10030837          	lui	a6,0x10030
    6cbc:	03f00893          	li	a7,63
    6cc0:	02870313          	addi	t1,a4,40
    6cc4:	10050537          	lui	a0,0x10050
    6cc8:	00a61693          	slli	a3,a2,0xa
    6ccc:	96c2                	add	a3,a3,a6
    6cce:	c394                	sw	a3,0(a5)
    6cd0:	01478693          	addi	a3,a5,20
    6cd4:	0007a223          	sw	zero,4(a5)
    6cd8:	0007a623          	sw	zero,12(a5)
    6cdc:	cbd4                	sw	a3,20(a5)
    6cde:	cf94                	sw	a3,24(a5)
    6ce0:	02c8c663          	blt	a7,a2,6d0c <_Z13init_page_mapv+0x6c>
    6ce4:	00c035b3          	snez	a1,a2
    6ce8:	40b005b3          	neg	a1,a1
    6cec:	0055e593          	ori	a1,a1,5
    6cf0:	c78c                	sw	a1,8(a5)
    6cf2:	574c                	lw	a1,44(a4)
    6cf4:	d754                	sw	a3,44(a4)
    6cf6:	0067aa23          	sw	t1,20(a5)
    6cfa:	cf8c                	sw	a1,24(a5)
    6cfc:	c194                	sw	a3,0(a1)
    6cfe:	07f1                	addi	a5,a5,28
    6d00:	0605                	addi	a2,a2,1
    6d02:	fca793e3          	bne	a5,a0,6cc8 <_Z13init_page_mapv+0x28>
    6d06:	40b2                	lw	ra,12(sp)
    6d08:	0141                	addi	sp,sp,16
    6d0a:	8082                	ret
    6d0c:	434c                	lw	a1,4(a4)
    6d0e:	0007a423          	sw	zero,8(a5)
    6d12:	c354                	sw	a3,4(a4)
    6d14:	cbd8                	sw	a4,20(a5)
    6d16:	b7d5                	j	6cfa <_Z13init_page_mapv+0x5a>

00006d18 <_Z19get_pages_from_listi>:
    6d18:	1001d7b7          	lui	a5,0x1001d
    6d1c:	00351713          	slli	a4,a0,0x3
    6d20:	24078613          	addi	a2,a5,576 # 1001d240 <page_buddy>
    6d24:	85aa                	mv	a1,a0
    6d26:	963a                	add	a2,a2,a4
    6d28:	86aa                	mv	a3,a0
    6d2a:	24078713          	addi	a4,a5,576
    6d2e:	4515                	li	a0,5
    6d30:	00d55463          	bge	a0,a3,6d38 <_Z19get_pages_from_listi+0x20>
    6d34:	4501                	li	a0,0
    6d36:	8082                	ret
    6d38:	421c                	lw	a5,0(a2)
    6d3a:	00f61563          	bne	a2,a5,6d44 <_Z19get_pages_from_listi+0x2c>
    6d3e:	0685                	addi	a3,a3,1
    6d40:	0621                	addi	a2,a2,8
    6d42:	b7fd                	j	6d30 <_Z19get_pages_from_listi+0x18>
    6d44:	4871                	li	a6,28
    6d46:	fec78513          	addi	a0,a5,-20
    6d4a:	00d817b3          	sll	a5,a6,a3
    6d4e:	97aa                	add	a5,a5,a0
    6d50:	ff87a883          	lw	a7,-8(a5)
    6d54:	00369793          	slli	a5,a3,0x3
    6d58:	97ba                	add	a5,a5,a4
    6d5a:	00c8a223          	sw	a2,4(a7) # 10001004 <__rodata_start__+0xfff5f0c>
    6d5e:	0117a023          	sw	a7,0(a5)
    6d62:	16fd                	addi	a3,a3,-1
    6d64:	17e1                	addi	a5,a5,-8
    6d66:	00b6d863          	bge	a3,a1,6d76 <_Z19get_pages_from_listi+0x5e>
    6d6a:	415c                	lw	a5,4(a0)
    6d6c:	c50c                	sw	a1,8(a0)
    6d6e:	0047e793          	ori	a5,a5,4
    6d72:	c15c                	sw	a5,4(a0)
    6d74:	8082                	ret
    6d76:	0047a883          	lw	a7,4(a5)
    6d7a:	00d81633          	sll	a2,a6,a3
    6d7e:	fe460713          	addi	a4,a2,-28
    6d82:	c514                	sw	a3,8(a0)
    6d84:	01152c23          	sw	a7,24(a0) # 10050018 <linker_stack_start+0x20028>
    6d88:	972a                	add	a4,a4,a0
    6d8a:	01450313          	addi	t1,a0,20
    6d8e:	0068a023          	sw	t1,0(a7)
    6d92:	01470893          	addi	a7,a4,20
    6d96:	0117a223          	sw	a7,4(a5)
    6d9a:	cb5c                	sw	a5,20(a4)
    6d9c:	16fd                	addi	a3,a3,-1
    6d9e:	9532                	add	a0,a0,a2
    6da0:	b7d1                	j	6d64 <_Z19get_pages_from_listi+0x4c>

00006da2 <_Z17put_pages_to_listP4pagei>:
    6da2:	415c                	lw	a5,4(a0)
    6da4:	0047f693          	andi	a3,a5,4
    6da8:	e699                	bnez	a3,6db6 <_Z17put_pages_to_listP4pagei+0x14>
    6daa:	10002537          	lui	a0,0x10002
    6dae:	94850513          	addi	a0,a0,-1720 # 10001948 <__rodata_start__+0xfff6850>
    6db2:	7360106f          	j	84e8 <_Z7printf_PKcz>
    6db6:	9bed                	andi	a5,a5,-5
    6db8:	1004f6b7          	lui	a3,0x1004f
    6dbc:	c15c                	sw	a5,4(a0)
    6dbe:	4315                	li	t1,5
    6dc0:	4e71                	li	t3,28
    6dc2:	5ef9                	li	t4,-2
    6dc4:	27068693          	addi	a3,a3,624 # 1004f270 <linker_stack_start+0x1f280>
    6dc8:	01450813          	addi	a6,a0,20
    6dcc:	02b35063          	bge	t1,a1,6dec <_Z17put_pages_to_listP4pagei+0x4a>
    6dd0:	1001d7b7          	lui	a5,0x1001d
    6dd4:	058e                	slli	a1,a1,0x3
    6dd6:	24078793          	addi	a5,a5,576 # 1001d240 <page_buddy>
    6dda:	97ae                	add	a5,a5,a1
    6ddc:	cd1c                	sw	a5,24(a0)
    6dde:	4394                	lw	a3,0(a5)
    6de0:	1761                	addi	a4,a4,-8
    6de2:	c314                	sw	a3,0(a4)
    6de4:	c2d8                	sw	a4,4(a3)
    6de6:	0107a023          	sw	a6,0(a5)
    6dea:	8082                	ret
    6dec:	00be17b3          	sll	a5,t3,a1
    6df0:	00f50733          	add	a4,a0,a5
    6df4:	03d787b3          	mul	a5,a5,t4
    6df8:	97ba                	add	a5,a5,a4
    6dfa:	43d0                	lw	a2,4(a5)
    6dfc:	8a11                	andi	a2,a2,4
    6dfe:	fa69                	bnez	a2,6dd0 <_Z17put_pages_to_listP4pagei+0x2e>
    6e00:	4790                	lw	a2,8(a5)
    6e02:	fcc597e3          	bne	a1,a2,6dd0 <_Z17put_pages_to_listP4pagei+0x2e>
    6e06:	fcd785e3          	beq	a5,a3,6dd0 <_Z17put_pages_to_listP4pagei+0x2e>
    6e0a:	567d                	li	a2,-1
    6e0c:	c510                	sw	a2,8(a0)
    6e0e:	01852883          	lw	a7,24(a0)
    6e12:	ff872603          	lw	a2,-8(a4)
    6e16:	0585                	addi	a1,a1,1
    6e18:	00c8a023          	sw	a2,0(a7)
    6e1c:	01162223          	sw	a7,4(a2)
    6e20:	ff850613          	addi	a2,a0,-8
    6e24:	cd10                	sw	a2,24(a0)
    6e26:	4790                	lw	a2,8(a5)
    6e28:	ff052c23          	sw	a6,-8(a0)
    6e2c:	853e                	mv	a0,a5
    6e2e:	0605                	addi	a2,a2,1
    6e30:	c790                	sw	a2,8(a5)
    6e32:	bf59                	j	6dc8 <_Z17put_pages_to_listP4pagei+0x26>

00006e34 <_Z12page_addressP4page>:
    6e34:	4108                	lw	a0,0(a0)
    6e36:	8082                	ret

00006e38 <_Z11alloc_pagesji>:
    6e38:	1141                	addi	sp,sp,-16
    6e3a:	852e                	mv	a0,a1
    6e3c:	c422                	sw	s0,8(sp)
    6e3e:	c606                	sw	ra,12(sp)
    6e40:	842e                	mv	s0,a1
    6e42:	3dd9                	jal	6d18 <_Z19get_pages_from_listi>
    6e44:	c909                	beqz	a0,6e56 <_Z11alloc_pagesji+0x1e>
    6e46:	4685                	li	a3,1
    6e48:	008696b3          	sll	a3,a3,s0
    6e4c:	00450793          	addi	a5,a0,4
    6e50:	4701                	li	a4,0
    6e52:	00d74663          	blt	a4,a3,6e5e <_Z11alloc_pagesji+0x26>
    6e56:	40b2                	lw	ra,12(sp)
    6e58:	4422                	lw	s0,8(sp)
    6e5a:	0141                	addi	sp,sp,16
    6e5c:	8082                	ret
    6e5e:	4390                	lw	a2,0(a5)
    6e60:	0705                	addi	a4,a4,1
    6e62:	00166613          	ori	a2,a2,1
    6e66:	c390                	sw	a2,0(a5)
    6e68:	07f1                	addi	a5,a5,28
    6e6a:	b7e5                	j	6e52 <_Z11alloc_pagesji+0x1a>

00006e6c <_Z10free_pagesP4pagei>:
    6e6c:	4685                	li	a3,1
    6e6e:	00b696b3          	sll	a3,a3,a1
    6e72:	00450793          	addi	a5,a0,4
    6e76:	4701                	li	a4,0
    6e78:	00d74363          	blt	a4,a3,6e7e <_Z10free_pagesP4pagei+0x12>
    6e7c:	b71d                	j	6da2 <_Z17put_pages_to_listP4pagei>
    6e7e:	4390                	lw	a2,0(a5)
    6e80:	0705                	addi	a4,a4,1
    6e82:	9a79                	andi	a2,a2,-2
    6e84:	c390                	sw	a2,0(a5)
    6e86:	07f1                	addi	a5,a5,28
    6e88:	bfc5                	j	6e78 <_Z10free_pagesP4pagei+0xc>

00006e8a <_Z14get_free_pagesji>:
    6e8a:	1141                	addi	sp,sp,-16
    6e8c:	c606                	sw	ra,12(sp)
    6e8e:	376d                	jal	6e38 <_Z11alloc_pagesji>
    6e90:	c509                	beqz	a0,6e9a <_Z14get_free_pagesji+0x10>
    6e92:	4108                	lw	a0,0(a0)
    6e94:	40b2                	lw	ra,12(sp)
    6e96:	0141                	addi	sp,sp,16
    6e98:	8082                	ret
    6e9a:	4501                	li	a0,0
    6e9c:	bfe5                	j	6e94 <_Z14get_free_pagesji+0xa>

00006e9e <_Z14put_free_pagesPvi>:
    6e9e:	1101                	addi	sp,sp,-32
    6ea0:	ce06                	sw	ra,28(sp)
    6ea2:	c62e                	sw	a1,12(sp)
    6ea4:	3b7d                	jal	6c62 <_Z12virt_to_pagej>
    6ea6:	45b2                	lw	a1,12(sp)
    6ea8:	40f2                	lw	ra,28(sp)
    6eaa:	6105                	addi	sp,sp,32
    6eac:	b7c1                	j	6e6c <_Z10free_pagesP4pagei>

00006eae <_Z15get_buddy_orderj>:
    6eae:	40000713          	li	a4,1024
    6eb2:	08a77863          	bgeu	a4,a0,6f42 <_Z15get_buddy_orderj+0x94>
    6eb6:	6685                	lui	a3,0x1
    6eb8:	87aa                	mv	a5,a0
    6eba:	80068713          	addi	a4,a3,-2048 # 800 <_Z12test_fc_procv+0x278>
    6ebe:	4505                	li	a0,1
    6ec0:	08f77363          	bgeu	a4,a5,6f46 <_Z15get_buddy_orderj+0x98>
    6ec4:	4509                	li	a0,2
    6ec6:	08f6f063          	bgeu	a3,a5,6f46 <_Z15get_buddy_orderj+0x98>
    6eca:	6709                	lui	a4,0x2
    6ecc:	450d                	li	a0,3
    6ece:	06f77c63          	bgeu	a4,a5,6f46 <_Z15get_buddy_orderj+0x98>
    6ed2:	6711                	lui	a4,0x4
    6ed4:	4511                	li	a0,4
    6ed6:	06f77863          	bgeu	a4,a5,6f46 <_Z15get_buddy_orderj+0x98>
    6eda:	6721                	lui	a4,0x8
    6edc:	4515                	li	a0,5
    6ede:	06f77463          	bgeu	a4,a5,6f46 <_Z15get_buddy_orderj+0x98>
    6ee2:	6741                	lui	a4,0x10
    6ee4:	4519                	li	a0,6
    6ee6:	06f77063          	bgeu	a4,a5,6f46 <_Z15get_buddy_orderj+0x98>
    6eea:	00020737          	lui	a4,0x20
    6eee:	451d                	li	a0,7
    6ef0:	04f77b63          	bgeu	a4,a5,6f46 <_Z15get_buddy_orderj+0x98>
    6ef4:	00040737          	lui	a4,0x40
    6ef8:	4521                	li	a0,8
    6efa:	04f77663          	bgeu	a4,a5,6f46 <_Z15get_buddy_orderj+0x98>
    6efe:	10002637          	lui	a2,0x10002
    6f02:	100025b7          	lui	a1,0x10002
    6f06:	10000537          	lui	a0,0x10000
    6f0a:	1141                	addi	sp,sp,-16
    6f0c:	0cf00693          	li	a3,207
    6f10:	96460613          	addi	a2,a2,-1692 # 10001964 <__rodata_start__+0xfff686c>
    6f14:	97458593          	addi	a1,a1,-1676 # 10001974 <__rodata_start__+0xfff687c>
    6f18:	02050513          	addi	a0,a0,32 # 10000020 <__rodata_start__+0xfff4f28>
    6f1c:	c606                	sw	ra,12(sp)
    6f1e:	5ca010ef          	jal	84e8 <_Z7printf_PKcz>
    6f22:	10002537          	lui	a0,0x10002
    6f26:	9b050513          	addi	a0,a0,-1616 # 100019b0 <__rodata_start__+0xfff68b8>
    6f2a:	5be010ef          	jal	84e8 <_Z7printf_PKcz>
    6f2e:	10000537          	lui	a0,0x10000
    6f32:	05850513          	addi	a0,a0,88 # 10000058 <__rodata_start__+0xfff4f60>
    6f36:	5b2010ef          	jal	84e8 <_Z7printf_PKcz>
    6f3a:	40b2                	lw	ra,12(sp)
    6f3c:	557d                	li	a0,-1
    6f3e:	0141                	addi	sp,sp,16
    6f40:	8082                	ret
    6f42:	4501                	li	a0,0
    6f44:	8082                	ret
    6f46:	8082                	ret

00006f48 <_Z6mallocj.part.0>:
    6f48:	1101                	addi	sp,sp,-32
    6f4a:	ca26                	sw	s1,20(sp)
    6f4c:	ce06                	sw	ra,28(sp)
    6f4e:	cc22                	sw	s0,24(sp)
    6f50:	c84a                	sw	s2,16(sp)
    6f52:	c64e                	sw	s3,12(sp)
    6f54:	c452                	sw	s4,8(sp)
    6f56:	c256                	sw	s5,4(sp)
    6f58:	64c1                	lui	s1,0x10
    6f5a:	12a4e163          	bltu	s1,a0,707c <_Z6mallocj.part.0+0x134>
    6f5e:	f51ff0ef          	jal	6eae <_Z15get_buddy_orderj>
    6f62:	85aa                	mv	a1,a0
    6f64:	84aa                	mv	s1,a0
    6f66:	4501                	li	a0,0
    6f68:	f23ff0ef          	jal	6e8a <_Z14get_free_pagesji>
    6f6c:	1001d7b7          	lui	a5,0x1001d
    6f70:	27078693          	addi	a3,a5,624 # 1001d270 <buddy_use>
    6f74:	842a                	mv	s0,a0
    6f76:	4701                	li	a4,0
    6f78:	27078793          	addi	a5,a5,624
    6f7c:	4629                	li	a2,10
    6f7e:	428c                	lw	a1,0(a3)
    6f80:	e9dd                	bnez	a1,7036 <_Z6mallocj.part.0+0xee>
    6f82:	10002ab7          	lui	s5,0x10002
    6f86:	10002a37          	lui	s4,0x10002
    6f8a:	100009b7          	lui	s3,0x10000
    6f8e:	070a                	slli	a4,a4,0x2
    6f90:	97ba                	add	a5,a5,a4
    6f92:	03600693          	li	a3,54
    6f96:	4705                	li	a4,1
    6f98:	9d4a8613          	addi	a2,s5,-1580 # 100019d4 <__rodata_start__+0xfff68dc>
    6f9c:	9dca0593          	addi	a1,s4,-1572 # 100019dc <__rodata_start__+0xfff68e4>
    6fa0:	02098513          	addi	a0,s3,32 # 10000020 <__rodata_start__+0xfff4f28>
    6fa4:	c398                	sw	a4,0(a5)
    6fa6:	d780                	sw	s0,40(a5)
    6fa8:	cba4                	sw	s1,80(a5)
    6faa:	53e010ef          	jal	84e8 <_Z7printf_PKcz>
    6fae:	10002537          	lui	a0,0x10002
    6fb2:	85a6                	mv	a1,s1
    6fb4:	a1c50513          	addi	a0,a0,-1508 # 10001a1c <__rodata_start__+0xfff6924>
    6fb8:	530010ef          	jal	84e8 <_Z7printf_PKcz>
    6fbc:	10000937          	lui	s2,0x10000
    6fc0:	05890513          	addi	a0,s2,88 # 10000058 <__rodata_start__+0xfff4f60>
    6fc4:	524010ef          	jal	84e8 <_Z7printf_PKcz>
    6fc8:	03700693          	li	a3,55
    6fcc:	9d4a8613          	addi	a2,s5,-1580
    6fd0:	9dca0593          	addi	a1,s4,-1572
    6fd4:	02098513          	addi	a0,s3,32
    6fd8:	510010ef          	jal	84e8 <_Z7printf_PKcz>
    6fdc:	40000593          	li	a1,1024
    6fe0:	10002537          	lui	a0,0x10002
    6fe4:	009595b3          	sll	a1,a1,s1
    6fe8:	a2c50513          	addi	a0,a0,-1492 # 10001a2c <__rodata_start__+0xfff6934>
    6fec:	4fc010ef          	jal	84e8 <_Z7printf_PKcz>
    6ff0:	05890513          	addi	a0,s2,88
    6ff4:	4f4010ef          	jal	84e8 <_Z7printf_PKcz>
    6ff8:	03800693          	li	a3,56
    6ffc:	9d4a8613          	addi	a2,s5,-1580
    7000:	9dca0593          	addi	a1,s4,-1572
    7004:	02098513          	addi	a0,s3,32
    7008:	4e0010ef          	jal	84e8 <_Z7printf_PKcz>
    700c:	10002537          	lui	a0,0x10002
    7010:	85a2                	mv	a1,s0
    7012:	a3c50513          	addi	a0,a0,-1476 # 10001a3c <__rodata_start__+0xfff6944>
    7016:	4d2010ef          	jal	84e8 <_Z7printf_PKcz>
    701a:	05890513          	addi	a0,s2,88
    701e:	4ca010ef          	jal	84e8 <_Z7printf_PKcz>
    7022:	40f2                	lw	ra,28(sp)
    7024:	8522                	mv	a0,s0
    7026:	4462                	lw	s0,24(sp)
    7028:	44d2                	lw	s1,20(sp)
    702a:	4942                	lw	s2,16(sp)
    702c:	49b2                	lw	s3,12(sp)
    702e:	4a22                	lw	s4,8(sp)
    7030:	4a92                	lw	s5,4(sp)
    7032:	6105                	addi	sp,sp,32
    7034:	8082                	ret
    7036:	0705                	addi	a4,a4,1 # 40001 <__rodata_start__+0x34f09>
    7038:	0691                	addi	a3,a3,4
    703a:	f4c712e3          	bne	a4,a2,6f7e <_Z6mallocj.part.0+0x36>
    703e:	10002637          	lui	a2,0x10002
    7042:	100025b7          	lui	a1,0x10002
    7046:	10000537          	lui	a0,0x10000
    704a:	03e00693          	li	a3,62
    704e:	9d460613          	addi	a2,a2,-1580 # 100019d4 <__rodata_start__+0xfff68dc>
    7052:	9dc58593          	addi	a1,a1,-1572 # 100019dc <__rodata_start__+0xfff68e4>
    7056:	02050513          	addi	a0,a0,32 # 10000020 <__rodata_start__+0xfff4f28>
    705a:	48e010ef          	jal	84e8 <_Z7printf_PKcz>
    705e:	10002537          	lui	a0,0x10002
    7062:	a4c50513          	addi	a0,a0,-1460 # 10001a4c <__rodata_start__+0xfff6954>
    7066:	482010ef          	jal	84e8 <_Z7printf_PKcz>
    706a:	10000537          	lui	a0,0x10000
    706e:	05850513          	addi	a0,a0,88 # 10000058 <__rodata_start__+0xfff4f60>
    7072:	476010ef          	jal	84e8 <_Z7printf_PKcz>
    7076:	9002                	ebreak
    7078:	4401                	li	s0,0
    707a:	b765                	j	7022 <_Z6mallocj.part.0+0xda>
    707c:	842a                	mv	s0,a0
    707e:	10002637          	lui	a2,0x10002
    7082:	100025b7          	lui	a1,0x10002
    7086:	10000537          	lui	a0,0x10000
    708a:	04400693          	li	a3,68
    708e:	9d460613          	addi	a2,a2,-1580 # 100019d4 <__rodata_start__+0xfff68dc>
    7092:	9dc58593          	addi	a1,a1,-1572 # 100019dc <__rodata_start__+0xfff68e4>
    7096:	02050513          	addi	a0,a0,32 # 10000020 <__rodata_start__+0xfff4f28>
    709a:	44e010ef          	jal	84e8 <_Z7printf_PKcz>
    709e:	10002537          	lui	a0,0x10002
    70a2:	8626                	mv	a2,s1
    70a4:	85a2                	mv	a1,s0
    70a6:	ab450513          	addi	a0,a0,-1356 # 10001ab4 <__rodata_start__+0xfff69bc>
    70aa:	43e010ef          	jal	84e8 <_Z7printf_PKcz>
    70ae:	bf75                	j	706a <_Z6mallocj.part.0+0x122>

000070b0 <_Z11malloc_initv>:
    70b0:	6cc0106f          	j	877c <_Z12kmalloc_initv>

000070b4 <_Z6mallocj>:
    70b4:	0ff00793          	li	a5,255
    70b8:	00a7e463          	bltu	a5,a0,70c0 <_Z6mallocj+0xc>
    70bc:	7580106f          	j	8814 <_Z7kmallocj>
    70c0:	b561                	j	6f48 <_Z6mallocj.part.0>

000070c2 <_Z4freePv>:
    70c2:	1141                	addi	sp,sp,-16
    70c4:	c422                	sw	s0,8(sp)
    70c6:	10002637          	lui	a2,0x10002
    70ca:	842a                	mv	s0,a0
    70cc:	100025b7          	lui	a1,0x10002
    70d0:	10000537          	lui	a0,0x10000
    70d4:	05200693          	li	a3,82
    70d8:	b1460613          	addi	a2,a2,-1260 # 10001b14 <__rodata_start__+0xfff6a1c>
    70dc:	9dc58593          	addi	a1,a1,-1572 # 100019dc <__rodata_start__+0xfff68e4>
    70e0:	02050513          	addi	a0,a0,32 # 10000020 <__rodata_start__+0xfff4f28>
    70e4:	c606                	sw	ra,12(sp)
    70e6:	402010ef          	jal	84e8 <_Z7printf_PKcz>
    70ea:	10002537          	lui	a0,0x10002
    70ee:	85a2                	mv	a1,s0
    70f0:	b1c50513          	addi	a0,a0,-1252 # 10001b1c <__rodata_start__+0xfff6a24>
    70f4:	3f4010ef          	jal	84e8 <_Z7printf_PKcz>
    70f8:	10000537          	lui	a0,0x10000
    70fc:	05850513          	addi	a0,a0,88 # 10000058 <__rodata_start__+0xfff4f60>
    7100:	3e8010ef          	jal	84e8 <_Z7printf_PKcz>
    7104:	1001d7b7          	lui	a5,0x1001d
    7108:	27078693          	addi	a3,a5,624 # 1001d270 <buddy_use>
    710c:	02868613          	addi	a2,a3,40
    7110:	4725                	li	a4,9
    7112:	27078793          	addi	a5,a5,624
    7116:	55fd                	li	a1,-1
    7118:	52c8                	lw	a0,36(a3)
    711a:	cd19                	beqz	a0,7138 <_Z4freePv+0x76>
    711c:	5248                	lw	a0,36(a2)
    711e:	00a41d63          	bne	s0,a0,7138 <_Z4freePv+0x76>
    7122:	070a                	slli	a4,a4,0x2
    7124:	97ba                	add	a5,a5,a4
    7126:	8522                	mv	a0,s0
    7128:	4422                	lw	s0,8(sp)
    712a:	40b2                	lw	ra,12(sp)
    712c:	4bac                	lw	a1,80(a5)
    712e:	0007a023          	sw	zero,0(a5)
    7132:	0141                	addi	sp,sp,16
    7134:	d6bff06f          	j	6e9e <_Z14put_free_pagesPvi>
    7138:	177d                	addi	a4,a4,-1
    713a:	16f1                	addi	a3,a3,-4
    713c:	1671                	addi	a2,a2,-4
    713e:	fcb71de3          	bne	a4,a1,7118 <_Z4freePv+0x56>
    7142:	8522                	mv	a0,s0
    7144:	4422                	lw	s0,8(sp)
    7146:	40b2                	lw	ra,12(sp)
    7148:	0141                	addi	sp,sp,16
    714a:	7a00106f          	j	88ea <_Z5kfreePv>

0000714e <_Z14malloc_initialv>:
    714e:	1141                	addi	sp,sp,-16
    7150:	c606                	sw	ra,12(sp)
    7152:	b4fff0ef          	jal	6ca0 <_Z13init_page_mapv>
    7156:	626010ef          	jal	877c <_Z12kmalloc_initv>
    715a:	57fd                	li	a5,-1
    715c:	00f51a63          	bne	a0,a5,7170 <_Z14malloc_initialv+0x22>
    7160:	40b2                	lw	ra,12(sp)
    7162:	10002537          	lui	a0,0x10002
    7166:	b2c50513          	addi	a0,a0,-1236 # 10001b2c <__rodata_start__+0xfff6a34>
    716a:	0141                	addi	sp,sp,16
    716c:	37c0106f          	j	84e8 <_Z7printf_PKcz>
    7170:	40b2                	lw	ra,12(sp)
    7172:	0141                	addi	sp,sp,16
    7174:	8082                	ret

00007176 <_Z11test_mallocv>:
    7176:	1141                	addi	sp,sp,-16
    7178:	c606                	sw	ra,12(sp)
    717a:	c422                	sw	s0,8(sp)
    717c:	c226                	sw	s1,4(sp)
    717e:	c04a                	sw	s2,0(sp)
    7180:	b21ff0ef          	jal	6ca0 <_Z13init_page_mapv>
    7184:	5f8010ef          	jal	877c <_Z12kmalloc_initv>
    7188:	57fd                	li	a5,-1
    718a:	00f51863          	bne	a0,a5,719a <_Z11test_mallocv+0x24>
    718e:	10002537          	lui	a0,0x10002
    7192:	b2c50513          	addi	a0,a0,-1236 # 10001b2c <__rodata_start__+0xfff6a34>
    7196:	352010ef          	jal	84e8 <_Z7printf_PKcz>
    719a:	07f00513          	li	a0,127
    719e:	676010ef          	jal	8814 <_Z7kmallocj>
    71a2:	10002937          	lui	s2,0x10002
    71a6:	85aa                	mv	a1,a0
    71a8:	84aa                	mv	s1,a0
    71aa:	b4490513          	addi	a0,s2,-1212 # 10001b44 <__rodata_start__+0xfff6a4c>
    71ae:	33a010ef          	jal	84e8 <_Z7printf_PKcz>
    71b2:	07c00513          	li	a0,124
    71b6:	65e010ef          	jal	8814 <_Z7kmallocj>
    71ba:	85aa                	mv	a1,a0
    71bc:	842a                	mv	s0,a0
    71be:	10002537          	lui	a0,0x10002
    71c2:	b6850513          	addi	a0,a0,-1176 # 10001b68 <__rodata_start__+0xfff6a70>
    71c6:	322010ef          	jal	84e8 <_Z7printf_PKcz>
    71ca:	8526                	mv	a0,s1
    71cc:	3ddd                	jal	70c2 <_Z4freePv>
    71ce:	8522                	mv	a0,s0
    71d0:	3dcd                	jal	70c2 <_Z4freePv>
    71d2:	07700513          	li	a0,119
    71d6:	63e010ef          	jal	8814 <_Z7kmallocj>
    71da:	85aa                	mv	a1,a0
    71dc:	84aa                	mv	s1,a0
    71de:	10002537          	lui	a0,0x10002
    71e2:	b8c50513          	addi	a0,a0,-1140 # 10001b8c <__rodata_start__+0xfff6a94>
    71e6:	302010ef          	jal	84e8 <_Z7printf_PKcz>
    71ea:	20000513          	li	a0,512
    71ee:	3ba9                	jal	6f48 <_Z6mallocj.part.0>
    71f0:	85aa                	mv	a1,a0
    71f2:	842a                	mv	s0,a0
    71f4:	10002537          	lui	a0,0x10002
    71f8:	bb050513          	addi	a0,a0,-1104 # 10001bb0 <__rodata_start__+0xfff6ab8>
    71fc:	2ec010ef          	jal	84e8 <_Z7printf_PKcz>
    7200:	8526                	mv	a0,s1
    7202:	35c1                	jal	70c2 <_Z4freePv>
    7204:	8522                	mv	a0,s0
    7206:	3d75                	jal	70c2 <_Z4freePv>
    7208:	6505                	lui	a0,0x1
    720a:	3b3d                	jal	6f48 <_Z6mallocj.part.0>
    720c:	842a                	mv	s0,a0
    720e:	85aa                	mv	a1,a0
    7210:	b4490513          	addi	a0,s2,-1212
    7214:	2d4010ef          	jal	84e8 <_Z7printf_PKcz>
    7218:	8522                	mv	a0,s0
    721a:	4422                	lw	s0,8(sp)
    721c:	40b2                	lw	ra,12(sp)
    721e:	4492                	lw	s1,4(sp)
    7220:	4902                	lw	s2,0(sp)
    7222:	0141                	addi	sp,sp,16
    7224:	bd79                	j	70c2 <_Z4freePv>

00007226 <_Z20test_malloc_boundaryv>:
    7226:	1101                	addi	sp,sp,-32
    7228:	ce06                	sw	ra,28(sp)
    722a:	cc22                	sw	s0,24(sp)
    722c:	ca26                	sw	s1,20(sp)
    722e:	c84a                	sw	s2,16(sp)
    7230:	c64e                	sw	s3,12(sp)
    7232:	c452                	sw	s4,8(sp)
    7234:	c256                	sw	s5,4(sp)
    7236:	a6bff0ef          	jal	6ca0 <_Z13init_page_mapv>
    723a:	542010ef          	jal	877c <_Z12kmalloc_initv>
    723e:	57fd                	li	a5,-1
    7240:	00f51863          	bne	a0,a5,7250 <_Z20test_malloc_boundaryv+0x2a>
    7244:	10002537          	lui	a0,0x10002
    7248:	b2c50513          	addi	a0,a0,-1236 # 10001b2c <__rodata_start__+0xfff6a34>
    724c:	29c010ef          	jal	84e8 <_Z7printf_PKcz>
    7250:	08000513          	li	a0,128
    7254:	5c0010ef          	jal	8814 <_Z7kmallocj>
    7258:	10002ab7          	lui	s5,0x10002
    725c:	85aa                	mv	a1,a0
    725e:	892a                	mv	s2,a0
    7260:	b44a8513          	addi	a0,s5,-1212 # 10001b44 <__rodata_start__+0xfff6a4c>
    7264:	284010ef          	jal	84e8 <_Z7printf_PKcz>
    7268:	08000513          	li	a0,128
    726c:	5a8010ef          	jal	8814 <_Z7kmallocj>
    7270:	10002a37          	lui	s4,0x10002
    7274:	85aa                	mv	a1,a0
    7276:	84aa                	mv	s1,a0
    7278:	b68a0513          	addi	a0,s4,-1176 # 10001b68 <__rodata_start__+0xfff6a70>
    727c:	26c010ef          	jal	84e8 <_Z7printf_PKcz>
    7280:	08000513          	li	a0,128
    7284:	590010ef          	jal	8814 <_Z7kmallocj>
    7288:	100029b7          	lui	s3,0x10002
    728c:	85aa                	mv	a1,a0
    728e:	842a                	mv	s0,a0
    7290:	b8c98513          	addi	a0,s3,-1140 # 10001b8c <__rodata_start__+0xfff6a94>
    7294:	254010ef          	jal	84e8 <_Z7printf_PKcz>
    7298:	854a                	mv	a0,s2
    729a:	3525                	jal	70c2 <_Z4freePv>
    729c:	8526                	mv	a0,s1
    729e:	3515                	jal	70c2 <_Z4freePv>
    72a0:	8522                	mv	a0,s0
    72a2:	3505                	jal	70c2 <_Z4freePv>
    72a4:	10000513          	li	a0,256
    72a8:	3145                	jal	6f48 <_Z6mallocj.part.0>
    72aa:	85aa                	mv	a1,a0
    72ac:	892a                	mv	s2,a0
    72ae:	b44a8513          	addi	a0,s5,-1212
    72b2:	236010ef          	jal	84e8 <_Z7printf_PKcz>
    72b6:	10000513          	li	a0,256
    72ba:	3179                	jal	6f48 <_Z6mallocj.part.0>
    72bc:	85aa                	mv	a1,a0
    72be:	84aa                	mv	s1,a0
    72c0:	b68a0513          	addi	a0,s4,-1176
    72c4:	224010ef          	jal	84e8 <_Z7printf_PKcz>
    72c8:	10000513          	li	a0,256
    72cc:	39b5                	jal	6f48 <_Z6mallocj.part.0>
    72ce:	85aa                	mv	a1,a0
    72d0:	842a                	mv	s0,a0
    72d2:	b8c98513          	addi	a0,s3,-1140
    72d6:	212010ef          	jal	84e8 <_Z7printf_PKcz>
    72da:	854a                	mv	a0,s2
    72dc:	33dd                	jal	70c2 <_Z4freePv>
    72de:	8526                	mv	a0,s1
    72e0:	33cd                	jal	70c2 <_Z4freePv>
    72e2:	8522                	mv	a0,s0
    72e4:	3bf9                	jal	70c2 <_Z4freePv>
    72e6:	20000513          	li	a0,512
    72ea:	39b9                	jal	6f48 <_Z6mallocj.part.0>
    72ec:	85aa                	mv	a1,a0
    72ee:	892a                	mv	s2,a0
    72f0:	b44a8513          	addi	a0,s5,-1212
    72f4:	1f4010ef          	jal	84e8 <_Z7printf_PKcz>
    72f8:	20000513          	li	a0,512
    72fc:	31b1                	jal	6f48 <_Z6mallocj.part.0>
    72fe:	85aa                	mv	a1,a0
    7300:	84aa                	mv	s1,a0
    7302:	b68a0513          	addi	a0,s4,-1176
    7306:	1e2010ef          	jal	84e8 <_Z7printf_PKcz>
    730a:	20000513          	li	a0,512
    730e:	392d                	jal	6f48 <_Z6mallocj.part.0>
    7310:	85aa                	mv	a1,a0
    7312:	842a                	mv	s0,a0
    7314:	b8c98513          	addi	a0,s3,-1140
    7318:	1d0010ef          	jal	84e8 <_Z7printf_PKcz>
    731c:	854a                	mv	a0,s2
    731e:	3355                	jal	70c2 <_Z4freePv>
    7320:	8526                	mv	a0,s1
    7322:	3345                	jal	70c2 <_Z4freePv>
    7324:	8522                	mv	a0,s0
    7326:	4462                	lw	s0,24(sp)
    7328:	40f2                	lw	ra,28(sp)
    732a:	44d2                	lw	s1,20(sp)
    732c:	4942                	lw	s2,16(sp)
    732e:	49b2                	lw	s3,12(sp)
    7330:	4a22                	lw	s4,8(sp)
    7332:	4a92                	lw	s5,4(sp)
    7334:	6105                	addi	sp,sp,32
    7336:	b371                	j	70c2 <_Z4freePv>

00007338 <_ZL11_out_buffercPvjj>:
    7338:	00d67563          	bgeu	a2,a3,7342 <_ZL11_out_buffercPvjj+0xa>
    733c:	95b2                	add	a1,a1,a2
    733e:	00a58023          	sb	a0,0(a1)
    7342:	8082                	ret

00007344 <_ZL9_out_nullcPvjj>:
    7344:	8082                	ret

00007346 <_ZL8_out_revPFvcPvjjEPcjjPKcjjj>:
    7346:	7179                	addi	sp,sp,-48
    7348:	d226                	sw	s1,36(sp)
    734a:	d04a                	sw	s2,32(sp)
    734c:	ce4e                	sw	s3,28(sp)
    734e:	cc52                	sw	s4,24(sp)
    7350:	ca56                	sw	s5,20(sp)
    7352:	c85a                	sw	s6,16(sp)
    7354:	c65e                	sw	s7,12(sp)
    7356:	c462                	sw	s8,8(sp)
    7358:	84be                	mv	s1,a5
    735a:	d606                	sw	ra,44(sp)
    735c:	d422                	sw	s0,40(sp)
    735e:	c266                	sw	s9,4(sp)
    7360:	0038f793          	andi	a5,a7,3
    7364:	8a2a                	mv	s4,a0
    7366:	8aae                	mv	s5,a1
    7368:	8932                	mv	s2,a2
    736a:	8b36                	mv	s6,a3
    736c:	8bba                	mv	s7,a4
    736e:	89c2                	mv	s3,a6
    7370:	8c46                	mv	s8,a7
    7372:	cbb9                	beqz	a5,73c8 <_ZL8_out_revPFvcPvjjEPcjjPKcjjj+0x82>
    7374:	8432                	mv	s0,a2
    7376:	9426                	add	s0,s0,s1
    7378:	8522                	mv	a0,s0
    737a:	40940633          	sub	a2,s0,s1
    737e:	e8a9                	bnez	s1,73d0 <_ZL8_out_revPFvcPvjjEPcjjPKcjjj+0x8a>
    7380:	002c7c13          	andi	s8,s8,2
    7384:	41240433          	sub	s0,s0,s2
    7388:	060c1463          	bnez	s8,73f0 <_ZL8_out_revPFvcPvjjEPcjjPKcjjj+0xaa>
    738c:	50b2                	lw	ra,44(sp)
    738e:	5422                	lw	s0,40(sp)
    7390:	5492                	lw	s1,36(sp)
    7392:	5902                	lw	s2,32(sp)
    7394:	49f2                	lw	s3,28(sp)
    7396:	4a62                	lw	s4,24(sp)
    7398:	4ad2                	lw	s5,20(sp)
    739a:	4b42                	lw	s6,16(sp)
    739c:	4bb2                	lw	s7,12(sp)
    739e:	4c22                	lw	s8,8(sp)
    73a0:	4c92                	lw	s9,4(sp)
    73a2:	6145                	addi	sp,sp,48
    73a4:	8082                	ret
    73a6:	86da                	mv	a3,s6
    73a8:	85d6                	mv	a1,s5
    73aa:	02000513          	li	a0,32
    73ae:	9a02                	jalr	s4
    73b0:	0405                	addi	s0,s0,1
    73b2:	01940633          	add	a2,s0,s9
    73b6:	ff3468e3          	bltu	s0,s3,73a6 <_ZL8_out_revPFvcPvjjEPcjjPKcjjj+0x60>
    73ba:	4401                	li	s0,0
    73bc:	0099e463          	bltu	s3,s1,73c4 <_ZL8_out_revPFvcPvjjEPcjjPKcjjj+0x7e>
    73c0:	40998433          	sub	s0,s3,s1
    73c4:	944a                	add	s0,s0,s2
    73c6:	bf45                	j	7376 <_ZL8_out_revPFvcPvjjEPcjjPKcjjj+0x30>
    73c8:	8426                	mv	s0,s1
    73ca:	40960cb3          	sub	s9,a2,s1
    73ce:	b7d5                	j	73b2 <_ZL8_out_revPFvcPvjjEPcjjPKcjjj+0x6c>
    73d0:	14fd                	addi	s1,s1,-1 # ffff <__rodata_start__+0x4f07>
    73d2:	009b87b3          	add	a5,s7,s1
    73d6:	0007c503          	lbu	a0,0(a5)
    73da:	86da                	mv	a3,s6
    73dc:	85d6                	mv	a1,s5
    73de:	9a02                	jalr	s4
    73e0:	bf61                	j	7378 <_ZL8_out_revPFvcPvjjEPcjjPKcjjj+0x32>
    73e2:	862a                	mv	a2,a0
    73e4:	86da                	mv	a3,s6
    73e6:	85d6                	mv	a1,s5
    73e8:	02000513          	li	a0,32
    73ec:	9a02                	jalr	s4
    73ee:	0405                	addi	s0,s0,1
    73f0:	00890533          	add	a0,s2,s0
    73f4:	ff3467e3          	bltu	s0,s3,73e2 <_ZL8_out_revPFvcPvjjEPcjjPKcjjj+0x9c>
    73f8:	bf51                	j	738c <_ZL8_out_revPFvcPvjjEPcjjPKcjjj+0x46>

000073fa <_ZL12_ntoa_formatPFvcPvjjEPcjjS2_jbjjjj>:
    73fa:	8346                	mv	t1,a7
    73fc:	48a2                	lw	a7,8(sp)
    73fe:	8e42                	mv	t3,a6
    7400:	4e82                	lw	t4,0(sp)
    7402:	0028ff13          	andi	t5,a7,2
    7406:	4812                	lw	a6,4(sp)
    7408:	040f1763          	bnez	t5,7456 <_ZL12_ntoa_formatPFvcPvjjEPcjjS2_jbjjjj+0x5c>
    740c:	0018ff13          	andi	t5,a7,1
    7410:	00080b63          	beqz	a6,7426 <_ZL12_ntoa_formatPFvcPvjjEPcjjS2_jbjjjj+0x2c>
    7414:	000f0963          	beqz	t5,7426 <_ZL12_ntoa_formatPFvcPvjjEPcjjS2_jbjjjj+0x2c>
    7418:	000e1663          	bnez	t3,7424 <_ZL12_ntoa_formatPFvcPvjjEPcjjS2_jbjjjj+0x2a>
    741c:	00c8ff93          	andi	t6,a7,12
    7420:	000f8363          	beqz	t6,7426 <_ZL12_ntoa_formatPFvcPvjjEPcjjS2_jbjjjj+0x2c>
    7424:	187d                	addi	a6,a6,-1 # 1002ffff <linker_stack_start+0xf>
    7426:	02000f93          	li	t6,32
    742a:	03000293          	li	t0,48
    742e:	a031                	j	743a <_ZL12_ntoa_formatPFvcPvjjEPcjjS2_jbjjjj+0x40>
    7430:	00f703b3          	add	t2,a4,a5
    7434:	00538023          	sb	t0,0(t2)
    7438:	0785                	addi	a5,a5,1
    743a:	01d7f463          	bgeu	a5,t4,7442 <_ZL12_ntoa_formatPFvcPvjjEPcjjS2_jbjjjj+0x48>
    743e:	fff799e3          	bne	a5,t6,7430 <_ZL12_ntoa_formatPFvcPvjjEPcjjS2_jbjjjj+0x36>
    7442:	000f0a63          	beqz	t5,7456 <_ZL12_ntoa_formatPFvcPvjjEPcjjS2_jbjjjj+0x5c>
    7446:	02000f13          	li	t5,32
    744a:	03000f93          	li	t6,48
    744e:	0107f463          	bgeu	a5,a6,7456 <_ZL12_ntoa_formatPFvcPvjjEPcjjS2_jbjjjj+0x5c>
    7452:	03e79c63          	bne	a5,t5,748a <_ZL12_ntoa_formatPFvcPvjjEPcjjS2_jbjjjj+0x90>
    7456:	0108ff13          	andi	t5,a7,16
    745a:	060f0c63          	beqz	t5,74d2 <_ZL12_ntoa_formatPFvcPvjjEPcjjS2_jbjjjj+0xd8>
    745e:	4008ff13          	andi	t5,a7,1024
    7462:	020f1b63          	bnez	t5,7498 <_ZL12_ntoa_formatPFvcPvjjEPcjjS2_jbjjjj+0x9e>
    7466:	cb8d                	beqz	a5,7498 <_ZL12_ntoa_formatPFvcPvjjEPcjjS2_jbjjjj+0x9e>
    7468:	01d78463          	beq	a5,t4,7470 <_ZL12_ntoa_formatPFvcPvjjEPcjjS2_jbjjjj+0x76>
    746c:	03079663          	bne	a5,a6,7498 <_ZL12_ntoa_formatPFvcPvjjEPcjjS2_jbjjjj+0x9e>
    7470:	fff78e93          	addi	t4,a5,-1
    7474:	020e8163          	beqz	t4,7496 <_ZL12_ntoa_formatPFvcPvjjEPcjjS2_jbjjjj+0x9c>
    7478:	4f41                	li	t5,16
    747a:	17f9                	addi	a5,a5,-2
    747c:	03e30163          	beq	t1,t5,749e <_ZL12_ntoa_formatPFvcPvjjEPcjjS2_jbjjjj+0xa4>
    7480:	4789                	li	a5,2
    7482:	08f30c63          	beq	t1,a5,751a <_ZL12_ntoa_formatPFvcPvjjEPcjjS2_jbjjjj+0x120>
    7486:	87f6                	mv	a5,t4
    7488:	a835                	j	74c4 <_ZL12_ntoa_formatPFvcPvjjEPcjjS2_jbjjjj+0xca>
    748a:	00f702b3          	add	t0,a4,a5
    748e:	01f28023          	sb	t6,0(t0)
    7492:	0785                	addi	a5,a5,1
    7494:	bf6d                	j	744e <_ZL12_ntoa_formatPFvcPvjjEPcjjS2_jbjjjj+0x54>
    7496:	4781                	li	a5,0
    7498:	4ec1                	li	t4,16
    749a:	07d31463          	bne	t1,t4,7502 <_ZL12_ntoa_formatPFvcPvjjEPcjjS2_jbjjjj+0x108>
    749e:	0208f313          	andi	t1,a7,32
    74a2:	02000e93          	li	t4,32
    74a6:	04031463          	bnez	t1,74ee <_ZL12_ntoa_formatPFvcPvjjEPcjjS2_jbjjjj+0xf4>
    74aa:	05d78463          	beq	a5,t4,74f2 <_ZL12_ntoa_formatPFvcPvjjEPcjjS2_jbjjjj+0xf8>
    74ae:	00f70333          	add	t1,a4,a5
    74b2:	07800e93          	li	t4,120
    74b6:	01d30023          	sb	t4,0(t1) # 10001000 <__rodata_start__+0xfff5f08>
    74ba:	0785                	addi	a5,a5,1
    74bc:	02000313          	li	t1,32
    74c0:	02678963          	beq	a5,t1,74f2 <_ZL12_ntoa_formatPFvcPvjjEPcjjS2_jbjjjj+0xf8>
    74c4:	00f70333          	add	t1,a4,a5
    74c8:	03000e93          	li	t4,48
    74cc:	01d30023          	sb	t4,0(t1)
    74d0:	0785                	addi	a5,a5,1
    74d2:	02000313          	li	t1,32
    74d6:	00678e63          	beq	a5,t1,74f2 <_ZL12_ntoa_formatPFvcPvjjEPcjjS2_jbjjjj+0xf8>
    74da:	040e0263          	beqz	t3,751e <_ZL12_ntoa_formatPFvcPvjjEPcjjS2_jbjjjj+0x124>
    74de:	00f70333          	add	t1,a4,a5
    74e2:	02d00e13          	li	t3,45
    74e6:	01c30023          	sb	t3,0(t1)
    74ea:	0785                	addi	a5,a5,1
    74ec:	a029                	j	74f6 <_ZL12_ntoa_formatPFvcPvjjEPcjjS2_jbjjjj+0xfc>
    74ee:	01d79563          	bne	a5,t4,74f8 <_ZL12_ntoa_formatPFvcPvjjEPcjjS2_jbjjjj+0xfe>
    74f2:	02000793          	li	a5,32
    74f6:	bd81                	j	7346 <_ZL8_out_revPFvcPvjjEPcjjPKcjjj>
    74f8:	00f70333          	add	t1,a4,a5
    74fc:	05800e93          	li	t4,88
    7500:	bf5d                	j	74b6 <_ZL12_ntoa_formatPFvcPvjjEPcjjS2_jbjjjj+0xbc>
    7502:	4e89                	li	t4,2
    7504:	fbd31ce3          	bne	t1,t4,74bc <_ZL12_ntoa_formatPFvcPvjjEPcjjS2_jbjjjj+0xc2>
    7508:	02000313          	li	t1,32
    750c:	fe6783e3          	beq	a5,t1,74f2 <_ZL12_ntoa_formatPFvcPvjjEPcjjS2_jbjjjj+0xf8>
    7510:	00f70333          	add	t1,a4,a5
    7514:	06200e93          	li	t4,98
    7518:	bf79                	j	74b6 <_ZL12_ntoa_formatPFvcPvjjEPcjjS2_jbjjjj+0xbc>
    751a:	87f6                	mv	a5,t4
    751c:	bfd5                	j	7510 <_ZL12_ntoa_formatPFvcPvjjEPcjjS2_jbjjjj+0x116>
    751e:	0048fe13          	andi	t3,a7,4
    7522:	000e0763          	beqz	t3,7530 <_ZL12_ntoa_formatPFvcPvjjEPcjjS2_jbjjjj+0x136>
    7526:	00f70333          	add	t1,a4,a5
    752a:	02b00e13          	li	t3,43
    752e:	bf65                	j	74e6 <_ZL12_ntoa_formatPFvcPvjjEPcjjS2_jbjjjj+0xec>
    7530:	0088fe13          	andi	t3,a7,8
    7534:	fc0e01e3          	beqz	t3,74f6 <_ZL12_ntoa_formatPFvcPvjjEPcjjS2_jbjjjj+0xfc>
    7538:	00f70e33          	add	t3,a4,a5
    753c:	006e0023          	sb	t1,0(t3) # 10000000 <__rodata_start__+0xfff4f08>
    7540:	b76d                	j	74ea <_ZL12_ntoa_formatPFvcPvjjEPcjjS2_jbjjjj+0xf0>

00007542 <_ZL10_ntoa_longPFvcPvjjEPcjjmbmjjj>:
    7542:	7139                	addi	sp,sp,-64
    7544:	de06                	sw	ra,60(sp)
    7546:	dc22                	sw	s0,56(sp)
    7548:	4e96                	lw	t4,68(sp)
    754a:	e319                	bnez	a4,7550 <_ZL10_ntoa_longPFvcPvjjEPcjjmbmjjj+0xe>
    754c:	fefefe93          	andi	t4,t4,-17
    7550:	400ef313          	andi	t1,t4,1024
    7554:	00030363          	beqz	t1,755a <_ZL10_ntoa_longPFvcPvjjEPcjjmbmjjj+0x18>
    7558:	cb21                	beqz	a4,75a8 <_ZL10_ntoa_longPFvcPvjjEPcjjmbmjjj+0x66>
    755a:	005ede13          	srli	t3,t4,0x5
    755e:	001e7e13          	andi	t3,t3,1
    7562:	06100313          	li	t1,97
    7566:	000e0463          	beqz	t3,756e <_ZL10_ntoa_longPFvcPvjjEPcjjmbmjjj+0x2c>
    756a:	04100313          	li	t1,65
    756e:	8f3a                	mv	t5,a4
    7570:	01010f93          	addi	t6,sp,16
    7574:	4701                	li	a4,0
    7576:	4425                	li	s0,9
    7578:	ff630e13          	addi	t3,t1,-10
    757c:	02000393          	li	t2,32
    7580:	030f72b3          	remu	t0,t5,a6
    7584:	0ff2f313          	zext.b	t1,t0
    7588:	02546f63          	bltu	s0,t0,75c6 <_ZL10_ntoa_longPFvcPvjjEPcjjmbmjjj+0x84>
    758c:	03030313          	addi	t1,t1,48
    7590:	0ff37313          	zext.b	t1,t1
    7594:	006f8023          	sb	t1,0(t6) # 104000 <__rodata_start__+0xf8f08>
    7598:	0705                	addi	a4,a4,1
    759a:	030f5333          	divu	t1,t5,a6
    759e:	010f6563          	bltu	t5,a6,75a8 <_ZL10_ntoa_longPFvcPvjjEPcjjmbmjjj+0x66>
    75a2:	0f85                	addi	t6,t6,1
    75a4:	00771f63          	bne	a4,t2,75c2 <_ZL10_ntoa_longPFvcPvjjEPcjjmbmjjj+0x80>
    75a8:	4306                	lw	t1,64(sp)
    75aa:	c046                	sw	a7,0(sp)
    75ac:	c476                	sw	t4,8(sp)
    75ae:	c21a                	sw	t1,4(sp)
    75b0:	88c2                	mv	a7,a6
    75b2:	883e                	mv	a6,a5
    75b4:	87ba                	mv	a5,a4
    75b6:	0818                	addi	a4,sp,16
    75b8:	3589                	jal	73fa <_ZL12_ntoa_formatPFvcPvjjEPcjjS2_jbjjjj>
    75ba:	50f2                	lw	ra,60(sp)
    75bc:	5462                	lw	s0,56(sp)
    75be:	6121                	addi	sp,sp,64
    75c0:	8082                	ret
    75c2:	8f1a                	mv	t5,t1
    75c4:	bf75                	j	7580 <_ZL10_ntoa_longPFvcPvjjEPcjjmbmjjj+0x3e>
    75c6:	9372                	add	t1,t1,t3
    75c8:	b7e1                	j	7590 <_ZL10_ntoa_longPFvcPvjjEPcjjmbmjjj+0x4e>

000075ca <_ZL15_ntoa_long_longPFvcPvjjEPcjjybyjjj>:
    75ca:	7175                	addi	sp,sp,-144
    75cc:	d8ca                	sw	s2,112(sp)
    75ce:	d4d2                	sw	s4,104(sp)
    75d0:	d2d6                	sw	s5,100(sp)
    75d2:	cce2                	sw	s8,88(sp)
    75d4:	cae6                	sw	s9,84(sp)
    75d6:	c8ea                	sw	s10,80(sp)
    75d8:	c6ee                	sw	s11,76(sp)
    75da:	8a36                	mv	s4,a3
    75dc:	de86                	sw	ra,124(sp)
    75de:	dca2                	sw	s0,120(sp)
    75e0:	daa6                	sw	s1,116(sp)
    75e2:	d6ce                	sw	s3,108(sp)
    75e4:	d0da                	sw	s6,96(sp)
    75e6:	cede                	sw	s7,92(sp)
    75e8:	ca2a                	sw	a0,20(sp)
    75ea:	cc2e                	sw	a1,24(sp)
    75ec:	ce32                	sw	a2,28(sp)
    75ee:	00f766b3          	or	a3,a4,a5
    75f2:	4c4a                	lw	s8,144(sp)
    75f4:	497a                	lw	s2,156(sp)
    75f6:	8dba                	mv	s11,a4
    75f8:	8d3e                	mv	s10,a5
    75fa:	8ac2                	mv	s5,a6
    75fc:	8cc6                	mv	s9,a7
    75fe:	e299                	bnez	a3,7604 <_ZL15_ntoa_long_longPFvcPvjjEPcjjybyjjj+0x3a>
    7600:	fef97913          	andi	s2,s2,-17
    7604:	40097793          	andi	a5,s2,1024
    7608:	c399                	beqz	a5,760e <_ZL15_ntoa_long_longPFvcPvjjEPcjjybyjjj+0x44>
    760a:	4481                	li	s1,0
    760c:	c2a5                	beqz	a3,766c <_ZL15_ntoa_long_longPFvcPvjjEPcjjybyjjj+0xa2>
    760e:	00595793          	srli	a5,s2,0x5
    7612:	8b85                	andi	a5,a5,1
    7614:	06100413          	li	s0,97
    7618:	c399                	beqz	a5,761e <_ZL15_ntoa_long_longPFvcPvjjEPcjjybyjjj+0x54>
    761a:	04100413          	li	s0,65
    761e:	02010993          	addi	s3,sp,32
    7622:	4481                	li	s1,0
    7624:	4ba5                	li	s7,9
    7626:	1459                	addi	s0,s0,-10
    7628:	02000b13          	li	s6,32
    762c:	8666                	mv	a2,s9
    762e:	86e2                	mv	a3,s8
    7630:	856e                	mv	a0,s11
    7632:	85ea                	mv	a1,s10
    7634:	68c010ef          	jal	8cc0 <__umoddi3>
    7638:	0ff57313          	zext.b	t1,a0
    763c:	066be863          	bltu	s7,t1,76ac <_ZL15_ntoa_long_longPFvcPvjjEPcjjybyjjj+0xe2>
    7640:	03030313          	addi	t1,t1,48
    7644:	0ff37313          	zext.b	t1,t1
    7648:	00698023          	sb	t1,0(s3)
    764c:	8666                	mv	a2,s9
    764e:	86e2                	mv	a3,s8
    7650:	856e                	mv	a0,s11
    7652:	85ea                	mv	a1,s10
    7654:	0485                	addi	s1,s1,1
    7656:	2c4010ef          	jal	891a <__udivdi3>
    765a:	018d6963          	bltu	s10,s8,766c <_ZL15_ntoa_long_longPFvcPvjjEPcjjybyjjj+0xa2>
    765e:	01ac1463          	bne	s8,s10,7666 <_ZL15_ntoa_long_longPFvcPvjjEPcjjybyjjj+0x9c>
    7662:	019de563          	bltu	s11,s9,766c <_ZL15_ntoa_long_longPFvcPvjjEPcjjybyjjj+0xa2>
    7666:	0985                	addi	s3,s3,1
    7668:	03649f63          	bne	s1,s6,76a6 <_ZL15_ntoa_long_longPFvcPvjjEPcjjybyjjj+0xdc>
    766c:	476a                	lw	a4,152(sp)
    766e:	4672                	lw	a2,28(sp)
    7670:	45e2                	lw	a1,24(sp)
    7672:	c23a                	sw	a4,4(sp)
    7674:	475a                	lw	a4,148(sp)
    7676:	4552                	lw	a0,20(sp)
    7678:	c44a                	sw	s2,8(sp)
    767a:	c03a                	sw	a4,0(sp)
    767c:	88e6                	mv	a7,s9
    767e:	8856                	mv	a6,s5
    7680:	87a6                	mv	a5,s1
    7682:	1018                	addi	a4,sp,32
    7684:	86d2                	mv	a3,s4
    7686:	3b95                	jal	73fa <_ZL12_ntoa_formatPFvcPvjjEPcjjS2_jbjjjj>
    7688:	50f6                	lw	ra,124(sp)
    768a:	5466                	lw	s0,120(sp)
    768c:	54d6                	lw	s1,116(sp)
    768e:	5946                	lw	s2,112(sp)
    7690:	59b6                	lw	s3,108(sp)
    7692:	5a26                	lw	s4,104(sp)
    7694:	5a96                	lw	s5,100(sp)
    7696:	5b06                	lw	s6,96(sp)
    7698:	4bf6                	lw	s7,92(sp)
    769a:	4c66                	lw	s8,88(sp)
    769c:	4cd6                	lw	s9,84(sp)
    769e:	4d46                	lw	s10,80(sp)
    76a0:	4db6                	lw	s11,76(sp)
    76a2:	6149                	addi	sp,sp,144
    76a4:	8082                	ret
    76a6:	8daa                	mv	s11,a0
    76a8:	8d2e                	mv	s10,a1
    76aa:	b749                	j	762c <_ZL15_ntoa_long_longPFvcPvjjEPcjjybyjjj+0x62>
    76ac:	9322                	add	t1,t1,s0
    76ae:	bf59                	j	7644 <_ZL15_ntoa_long_longPFvcPvjjEPcjjybyjjj+0x7a>

000076b0 <_ZL9_out_charcPvjj>:
    76b0:	c119                	beqz	a0,76b6 <_ZL9_out_charcPvjj+0x6>
    76b2:	24c0106f          	j	88fe <_Z9uart_putci>
    76b6:	8082                	ret

000076b8 <_ZL8_out_fctcPvjj>:
    76b8:	c501                	beqz	a0,76c0 <_ZL8_out_fctcPvjj+0x8>
    76ba:	419c                	lw	a5,0(a1)
    76bc:	41cc                	lw	a1,4(a1)
    76be:	8782                	jr	a5
    76c0:	8082                	ret

000076c2 <_ZL5_ftoaPFvcPvjjEPcjjdjjj>:
    76c2:	7131                	addi	sp,sp,-192
    76c4:	c42a                	sw	a0,8(sp)
    76c6:	c62e                	sw	a1,12(sp)
    76c8:	c832                	sw	a2,16(sp)
    76ca:	ca36                	sw	a3,20(sp)
    76cc:	863a                	mv	a2,a4
    76ce:	86be                	mv	a3,a5
    76d0:	853a                	mv	a0,a4
    76d2:	85be                	mv	a1,a5
    76d4:	d552                	sw	s4,168(sp)
    76d6:	d356                	sw	s5,164(sp)
    76d8:	d15a                	sw	s6,160(sp)
    76da:	cf5e                	sw	s7,156(sp)
    76dc:	cd62                	sw	s8,152(sp)
    76de:	df06                	sw	ra,188(sp)
    76e0:	dd22                	sw	s0,184(sp)
    76e2:	db26                	sw	s1,180(sp)
    76e4:	d94a                	sw	s2,176(sp)
    76e6:	d74e                	sw	s3,172(sp)
    76e8:	cb66                	sw	s9,148(sp)
    76ea:	c96a                	sw	s10,144(sp)
    76ec:	c76e                	sw	s11,140(sp)
    76ee:	4c0e                	lw	s8,192(sp)
    76f0:	8aba                	mv	s5,a4
    76f2:	8a3e                	mv	s4,a5
    76f4:	8b42                	mv	s6,a6
    76f6:	8bc6                	mv	s7,a7
    76f8:	00d020ef          	jal	9f04 <__eqdf2>
    76fc:	c91d                	beqz	a0,7732 <_ZL5_ftoaPFvcPvjjEPcjjdjjj+0x70>
    76fe:	10002737          	lui	a4,0x10002
    7702:	88e2                	mv	a7,s8
    7704:	885e                	mv	a6,s7
    7706:	478d                	li	a5,3
    7708:	be070713          	addi	a4,a4,-1056 # 10001be0 <__rodata_start__+0xfff6ae8>
    770c:	546a                	lw	s0,184(sp)
    770e:	46d2                	lw	a3,20(sp)
    7710:	4642                	lw	a2,16(sp)
    7712:	45b2                	lw	a1,12(sp)
    7714:	4522                	lw	a0,8(sp)
    7716:	50fa                	lw	ra,188(sp)
    7718:	54da                	lw	s1,180(sp)
    771a:	594a                	lw	s2,176(sp)
    771c:	59ba                	lw	s3,172(sp)
    771e:	5a2a                	lw	s4,168(sp)
    7720:	5a9a                	lw	s5,164(sp)
    7722:	5b0a                	lw	s6,160(sp)
    7724:	4bfa                	lw	s7,156(sp)
    7726:	4c6a                	lw	s8,152(sp)
    7728:	4cda                	lw	s9,148(sp)
    772a:	4d4a                	lw	s10,144(sp)
    772c:	4dba                	lw	s11,140(sp)
    772e:	6129                	addi	sp,sp,192
    7730:	b919                	j	7346 <_ZL8_out_revPFvcPvjjEPcjjPKcjjj>
    7732:	1001a7b7          	lui	a5,0x1001a
    7736:	7507a603          	lw	a2,1872(a5) # 1001a750 <_ZZ23minimum_conv_single_8x8PaS_S_S_aE4Bias+0x8>
    773a:	7547a683          	lw	a3,1876(a5)
    773e:	8556                	mv	a0,s5
    7740:	85d2                	mv	a1,s4
    7742:	0ed020ef          	jal	a02e <__ledf2>
    7746:	00055a63          	bgez	a0,775a <_ZL5_ftoaPFvcPvjjEPcjjdjjj+0x98>
    774a:	10002737          	lui	a4,0x10002
    774e:	88e2                	mv	a7,s8
    7750:	885e                	mv	a6,s7
    7752:	4791                	li	a5,4
    7754:	be470713          	addi	a4,a4,-1052 # 10001be4 <__rodata_start__+0xfff6aec>
    7758:	bf55                	j	770c <_ZL5_ftoaPFvcPvjjEPcjjdjjj+0x4a>
    775a:	1001a7b7          	lui	a5,0x1001a
    775e:	7587a603          	lw	a2,1880(a5) # 1001a758 <_ZZ23minimum_conv_single_8x8PaS_S_S_aE4Bias+0x10>
    7762:	75c7a683          	lw	a3,1884(a5)
    7766:	8556                	mv	a0,s5
    7768:	85d2                	mv	a1,s4
    776a:	007020ef          	jal	9f70 <__gedf2>
    776e:	02a05363          	blez	a0,7794 <_ZL5_ftoaPFvcPvjjEPcjjdjjj+0xd2>
    7772:	004c7793          	andi	a5,s8,4
    7776:	cb89                	beqz	a5,7788 <_ZL5_ftoaPFvcPvjjEPcjjdjjj+0xc6>
    7778:	10002737          	lui	a4,0x10002
    777c:	bd470713          	addi	a4,a4,-1068 # 10001bd4 <__rodata_start__+0xfff6adc>
    7780:	4791                	li	a5,4
    7782:	88e2                	mv	a7,s8
    7784:	885e                	mv	a6,s7
    7786:	b759                	j	770c <_ZL5_ftoaPFvcPvjjEPcjjdjjj+0x4a>
    7788:	10002737          	lui	a4,0x10002
    778c:	bdc70713          	addi	a4,a4,-1060 # 10001bdc <__rodata_start__+0xfff6ae4>
    7790:	478d                	li	a5,3
    7792:	bfc5                	j	7782 <_ZL5_ftoaPFvcPvjjEPcjjdjjj+0xc0>
    7794:	1001a7b7          	lui	a5,0x1001a
    7798:	7607a603          	lw	a2,1888(a5) # 1001a760 <_ZZ23minimum_conv_single_8x8PaS_S_S_aE4Bias+0x18>
    779c:	7647a683          	lw	a3,1892(a5)
    77a0:	8556                	mv	a0,s5
    77a2:	85d2                	mv	a1,s4
    77a4:	7cc020ef          	jal	9f70 <__gedf2>
    77a8:	02a04063          	bgtz	a0,77c8 <_ZL5_ftoaPFvcPvjjEPcjjdjjj+0x106>
    77ac:	1001a7b7          	lui	a5,0x1001a
    77b0:	cc56                	sw	s5,24(sp)
    77b2:	ce52                	sw	s4,28(sp)
    77b4:	7687a603          	lw	a2,1896(a5) # 1001a768 <_ZZ23minimum_conv_single_8x8PaS_S_S_aE4Bias+0x20>
    77b8:	76c7a683          	lw	a3,1900(a5)
    77bc:	4562                	lw	a0,24(sp)
    77be:	45f2                	lw	a1,28(sp)
    77c0:	06f020ef          	jal	a02e <__ledf2>
    77c4:	02055c63          	bgez	a0,77fc <_ZL5_ftoaPFvcPvjjEPcjjdjjj+0x13a>
    77c8:	d056                	sw	s5,32(sp)
    77ca:	d252                	sw	s4,36(sp)
    77cc:	546a                	lw	s0,184(sp)
    77ce:	c1e2                	sw	s8,192(sp)
    77d0:	5702                	lw	a4,32(sp)
    77d2:	5792                	lw	a5,36(sp)
    77d4:	46d2                	lw	a3,20(sp)
    77d6:	4642                	lw	a2,16(sp)
    77d8:	45b2                	lw	a1,12(sp)
    77da:	4522                	lw	a0,8(sp)
    77dc:	50fa                	lw	ra,188(sp)
    77de:	54da                	lw	s1,180(sp)
    77e0:	594a                	lw	s2,176(sp)
    77e2:	59ba                	lw	s3,172(sp)
    77e4:	5a2a                	lw	s4,168(sp)
    77e6:	5a9a                	lw	s5,164(sp)
    77e8:	4c6a                	lw	s8,152(sp)
    77ea:	4cda                	lw	s9,148(sp)
    77ec:	4d4a                	lw	s10,144(sp)
    77ee:	4dba                	lw	s11,140(sp)
    77f0:	88de                	mv	a7,s7
    77f2:	885a                	mv	a6,s6
    77f4:	4bfa                	lw	s7,156(sp)
    77f6:	5b0a                	lw	s6,160(sp)
    77f8:	6129                	addi	sp,sp,192
    77fa:	a461                	j	7a82 <_ZL5_etoaPFvcPvjjEPcjjdjjj>
    77fc:	d456                	sw	s5,40(sp)
    77fe:	d652                	sw	s4,44(sp)
    7800:	5522                	lw	a0,40(sp)
    7802:	55b2                	lw	a1,44(sp)
    7804:	4601                	li	a2,0
    7806:	4681                	li	a3,0
    7808:	027020ef          	jal	a02e <__ledf2>
    780c:	4d01                	li	s10,0
    780e:	00055d63          	bgez	a0,7828 <_ZL5_ftoaPFvcPvjjEPcjjdjjj+0x166>
    7812:	d856                	sw	s5,48(sp)
    7814:	da52                	sw	s4,52(sp)
    7816:	5642                	lw	a2,48(sp)
    7818:	56d2                	lw	a3,52(sp)
    781a:	4501                	li	a0,0
    781c:	4581                	li	a1,0
    781e:	627020ef          	jal	a644 <__subdf3>
    7822:	8aaa                	mv	s5,a0
    7824:	8a2e                	mv	s4,a1
    7826:	4d05                	li	s10,1
    7828:	400c7793          	andi	a5,s8,1024
    782c:	0e078863          	beqz	a5,791c <_ZL5_ftoaPFvcPvjjEPcjjdjjj+0x25a>
    7830:	4981                	li	s3,0
    7832:	46a5                	li	a3,9
    7834:	06010913          	addi	s2,sp,96
    7838:	03000613          	li	a2,48
    783c:	02000593          	li	a1,32
    7840:	0166fa63          	bgeu	a3,s6,7854 <_ZL5_ftoaPFvcPvjjEPcjjdjjj+0x192>
    7844:	01390533          	add	a0,s2,s3
    7848:	00c50023          	sb	a2,0(a0)
    784c:	0985                	addi	s3,s3,1
    784e:	1b7d                	addi	s6,s6,-1
    7850:	feb998e3          	bne	s3,a1,7840 <_ZL5_ftoaPFvcPvjjEPcjjdjjj+0x17e>
    7854:	dc56                	sw	s5,56(sp)
    7856:	de52                	sw	s4,60(sp)
    7858:	55f2                	lw	a1,60(sp)
    785a:	5562                	lw	a0,56(sp)
    785c:	69e030ef          	jal	aefa <__fixdfsi>
    7860:	1001a6b7          	lui	a3,0x1001a
    7864:	003b1613          	slli	a2,s6,0x3
    7868:	5b868693          	addi	a3,a3,1464 # 1001a5b8 <_ZZL5_ftoaPFvcPvjjEPcjjdjjjE5pow10>
    786c:	96b2                	add	a3,a3,a2
    786e:	429c                	lw	a5,0(a3)
    7870:	0046a803          	lw	a6,4(a3)
    7874:	8caa                	mv	s9,a0
    7876:	cc3e                	sw	a5,24(sp)
    7878:	ce42                	sw	a6,28(sp)
    787a:	73e030ef          	jal	afb8 <__floatsidf>
    787e:	c0d6                	sw	s5,64(sp)
    7880:	c2d2                	sw	s4,68(sp)
    7882:	862a                	mv	a2,a0
    7884:	86ae                	mv	a3,a1
    7886:	4506                	lw	a0,64(sp)
    7888:	4596                	lw	a1,68(sp)
    788a:	5bb020ef          	jal	a644 <__subdf3>
    788e:	4662                	lw	a2,24(sp)
    7890:	46f2                	lw	a3,28(sp)
    7892:	05d020ef          	jal	a0ee <__muldf3>
    7896:	8dae                	mv	s11,a1
    7898:	84aa                	mv	s1,a0
    789a:	6c6030ef          	jal	af60 <__fixunsdfsi>
    789e:	842a                	mv	s0,a0
    78a0:	78e030ef          	jal	b02e <__floatunsidf>
    78a4:	c4a6                	sw	s1,72(sp)
    78a6:	c6ee                	sw	s11,76(sp)
    78a8:	862a                	mv	a2,a0
    78aa:	86ae                	mv	a3,a1
    78ac:	4526                	lw	a0,72(sp)
    78ae:	45b6                	lw	a1,76(sp)
    78b0:	1001adb7          	lui	s11,0x1001a
    78b4:	591020ef          	jal	a644 <__subdf3>
    78b8:	770da603          	lw	a2,1904(s11) # 1001a770 <_ZZ23minimum_conv_single_8x8PaS_S_S_aE4Bias+0x28>
    78bc:	774da683          	lw	a3,1908(s11)
    78c0:	d02a                	sw	a0,32(sp)
    78c2:	84ae                	mv	s1,a1
    78c4:	6ac020ef          	jal	9f70 <__gedf2>
    78c8:	5e02                	lw	t3,32(sp)
    78ca:	04a05b63          	blez	a0,7920 <_ZL5_ftoaPFvcPvjjEPcjjdjjj+0x25e>
    78ce:	0405                	addi	s0,s0,1
    78d0:	8522                	mv	a0,s0
    78d2:	75c030ef          	jal	b02e <__floatunsidf>
    78d6:	862a                	mv	a2,a0
    78d8:	86ae                	mv	a3,a1
    78da:	4562                	lw	a0,24(sp)
    78dc:	45f2                	lw	a1,28(sp)
    78de:	750020ef          	jal	a02e <__ledf2>
    78e2:	00a04463          	bgtz	a0,78ea <_ZL5_ftoaPFvcPvjjEPcjjdjjj+0x228>
    78e6:	0c85                	addi	s9,s9,1
    78e8:	4401                	li	s0,0
    78ea:	040b0f63          	beqz	s6,7948 <_ZL5_ftoaPFvcPvjjEPcjjdjjj+0x286>
    78ee:	02000593          	li	a1,32
    78f2:	4629                	li	a2,10
    78f4:	4525                	li	a0,9
    78f6:	0cb99463          	bne	s3,a1,79be <_ZL5_ftoaPFvcPvjjEPcjjdjjj+0x2fc>
    78fa:	9b4e                	add	s6,s6,s3
    78fc:	02000593          	li	a1,32
    7900:	03000613          	li	a2,48
    7904:	06b98963          	beq	s3,a1,7976 <_ZL5_ftoaPFvcPvjjEPcjjdjjj+0x2b4>
    7908:	00198693          	addi	a3,s3,1
    790c:	0d698963          	beq	s3,s6,79de <_ZL5_ftoaPFvcPvjjEPcjjdjjj+0x31c>
    7910:	013907b3          	add	a5,s2,s3
    7914:	00c78023          	sb	a2,0(a5)
    7918:	89b6                	mv	s3,a3
    791a:	b7ed                	j	7904 <_ZL5_ftoaPFvcPvjjEPcjjdjjj+0x242>
    791c:	4b19                	li	s6,6
    791e:	bf09                	j	7830 <_ZL5_ftoaPFvcPvjjEPcjjdjjj+0x16e>
    7920:	1001a7b7          	lui	a5,0x1001a
    7924:	c8f2                	sw	t3,80(sp)
    7926:	caa6                	sw	s1,84(sp)
    7928:	7707a603          	lw	a2,1904(a5) # 1001a770 <_ZZ23minimum_conv_single_8x8PaS_S_S_aE4Bias+0x28>
    792c:	7747a683          	lw	a3,1908(a5)
    7930:	4546                	lw	a0,80(sp)
    7932:	45d6                	lw	a1,84(sp)
    7934:	6fa020ef          	jal	a02e <__ledf2>
    7938:	fa0549e3          	bltz	a0,78ea <_ZL5_ftoaPFvcPvjjEPcjjdjjj+0x228>
    793c:	c401                	beqz	s0,7944 <_ZL5_ftoaPFvcPvjjEPcjjdjjj+0x282>
    793e:	00147693          	andi	a3,s0,1
    7942:	d6c5                	beqz	a3,78ea <_ZL5_ftoaPFvcPvjjEPcjjdjjj+0x228>
    7944:	0405                	addi	s0,s0,1
    7946:	b755                	j	78ea <_ZL5_ftoaPFvcPvjjEPcjjdjjj+0x228>
    7948:	8566                	mv	a0,s9
    794a:	66e030ef          	jal	afb8 <__floatsidf>
    794e:	ccd6                	sw	s5,88(sp)
    7950:	ced2                	sw	s4,92(sp)
    7952:	862a                	mv	a2,a0
    7954:	86ae                	mv	a3,a1
    7956:	4566                	lw	a0,88(sp)
    7958:	45f6                	lw	a1,92(sp)
    795a:	4eb020ef          	jal	a644 <__subdf3>
    795e:	770da603          	lw	a2,1904(s11)
    7962:	774da683          	lw	a3,1908(s11)
    7966:	6c8020ef          	jal	a02e <__ledf2>
    796a:	00054663          	bltz	a0,7976 <_ZL5_ftoaPFvcPvjjEPcjjdjjj+0x2b4>
    796e:	001c8893          	addi	a7,s9,1
    7972:	ffe8fc93          	andi	s9,a7,-2
    7976:	02000593          	li	a1,32
    797a:	4629                	li	a2,10
    797c:	00b98f63          	beq	s3,a1,799a <_ZL5_ftoaPFvcPvjjEPcjjdjjj+0x2d8>
    7980:	02cce6b3          	rem	a3,s9,a2
    7984:	0985                	addi	s3,s3,1
    7986:	01390533          	add	a0,s2,s3
    798a:	02ccccb3          	div	s9,s9,a2
    798e:	03068693          	addi	a3,a3,48
    7992:	fed50fa3          	sb	a3,-1(a0)
    7996:	fe0c93e3          	bnez	s9,797c <_ZL5_ftoaPFvcPvjjEPcjjdjjj+0x2ba>
    799a:	003c7693          	andi	a3,s8,3
    799e:	4605                	li	a2,1
    79a0:	08c69a63          	bne	a3,a2,7a34 <_ZL5_ftoaPFvcPvjjEPcjjdjjj+0x372>
    79a4:	080b8863          	beqz	s7,7a34 <_ZL5_ftoaPFvcPvjjEPcjjdjjj+0x372>
    79a8:	000d1563          	bnez	s10,79b2 <_ZL5_ftoaPFvcPvjjEPcjjdjjj+0x2f0>
    79ac:	00cc7693          	andi	a3,s8,12
    79b0:	c291                	beqz	a3,79b4 <_ZL5_ftoaPFvcPvjjEPcjjdjjj+0x2f2>
    79b2:	1bfd                	addi	s7,s7,-1
    79b4:	02000693          	li	a3,32
    79b8:	03000613          	li	a2,48
    79bc:	a081                	j	79fc <_ZL5_ftoaPFvcPvjjEPcjjdjjj+0x33a>
    79be:	02c476b3          	remu	a3,s0,a2
    79c2:	0985                	addi	s3,s3,1
    79c4:	01390333          	add	t1,s2,s3
    79c8:	1b7d                	addi	s6,s6,-1
    79ca:	03068693          	addi	a3,a3,48
    79ce:	fed30fa3          	sb	a3,-1(t1)
    79d2:	02c456b3          	divu	a3,s0,a2
    79d6:	f28572e3          	bgeu	a0,s0,78fa <_ZL5_ftoaPFvcPvjjEPcjjdjjj+0x238>
    79da:	8436                	mv	s0,a3
    79dc:	bf29                	j	78f6 <_ZL5_ftoaPFvcPvjjEPcjjdjjj+0x234>
    79de:	02098793          	addi	a5,s3,32
    79e2:	1098                	addi	a4,sp,96
    79e4:	97ba                	add	a5,a5,a4
    79e6:	02e00613          	li	a2,46
    79ea:	fec78023          	sb	a2,-32(a5)
    79ee:	89b6                	mv	s3,a3
    79f0:	b759                	j	7976 <_ZL5_ftoaPFvcPvjjEPcjjdjjj+0x2b4>
    79f2:	013905b3          	add	a1,s2,s3
    79f6:	00c58023          	sb	a2,0(a1)
    79fa:	0985                	addi	s3,s3,1
    79fc:	0379fc63          	bgeu	s3,s7,7a34 <_ZL5_ftoaPFvcPvjjEPcjjdjjj+0x372>
    7a00:	fed999e3          	bne	s3,a3,79f2 <_ZL5_ftoaPFvcPvjjEPcjjdjjj+0x330>
    7a04:	46d2                	lw	a3,20(sp)
    7a06:	4642                	lw	a2,16(sp)
    7a08:	45b2                	lw	a1,12(sp)
    7a0a:	4522                	lw	a0,8(sp)
    7a0c:	88e2                	mv	a7,s8
    7a0e:	885e                	mv	a6,s7
    7a10:	87ce                	mv	a5,s3
    7a12:	874a                	mv	a4,s2
    7a14:	3a0d                	jal	7346 <_ZL8_out_revPFvcPvjjEPcjjPKcjjj>
    7a16:	50fa                	lw	ra,188(sp)
    7a18:	546a                	lw	s0,184(sp)
    7a1a:	54da                	lw	s1,180(sp)
    7a1c:	594a                	lw	s2,176(sp)
    7a1e:	59ba                	lw	s3,172(sp)
    7a20:	5a2a                	lw	s4,168(sp)
    7a22:	5a9a                	lw	s5,164(sp)
    7a24:	5b0a                	lw	s6,160(sp)
    7a26:	4bfa                	lw	s7,156(sp)
    7a28:	4c6a                	lw	s8,152(sp)
    7a2a:	4cda                	lw	s9,148(sp)
    7a2c:	4d4a                	lw	s10,144(sp)
    7a2e:	4dba                	lw	s11,140(sp)
    7a30:	6129                	addi	sp,sp,192
    7a32:	8082                	ret
    7a34:	02000693          	li	a3,32
    7a38:	fcd986e3          	beq	s3,a3,7a04 <_ZL5_ftoaPFvcPvjjEPcjjdjjj+0x342>
    7a3c:	000d0d63          	beqz	s10,7a56 <_ZL5_ftoaPFvcPvjjEPcjjdjjj+0x394>
    7a40:	00d987b3          	add	a5,s3,a3
    7a44:	1098                	addi	a4,sp,96
    7a46:	00e786b3          	add	a3,a5,a4
    7a4a:	02d00613          	li	a2,45
    7a4e:	fec68023          	sb	a2,-32(a3)
    7a52:	0985                	addi	s3,s3,1
    7a54:	bf45                	j	7a04 <_ZL5_ftoaPFvcPvjjEPcjjdjjj+0x342>
    7a56:	004c7613          	andi	a2,s8,4
    7a5a:	ca09                	beqz	a2,7a6c <_ZL5_ftoaPFvcPvjjEPcjjdjjj+0x3aa>
    7a5c:	02098793          	addi	a5,s3,32
    7a60:	1098                	addi	a4,sp,96
    7a62:	00e786b3          	add	a3,a5,a4
    7a66:	02b00613          	li	a2,43
    7a6a:	b7d5                	j	7a4e <_ZL5_ftoaPFvcPvjjEPcjjdjjj+0x38c>
    7a6c:	008c7613          	andi	a2,s8,8
    7a70:	da51                	beqz	a2,7a04 <_ZL5_ftoaPFvcPvjjEPcjjdjjj+0x342>
    7a72:	02098793          	addi	a5,s3,32
    7a76:	1098                	addi	a4,sp,96
    7a78:	00e78633          	add	a2,a5,a4
    7a7c:	fed60023          	sb	a3,-32(a2)
    7a80:	bfc9                	j	7a52 <_ZL5_ftoaPFvcPvjjEPcjjdjjj+0x390>

00007a82 <_ZL5_etoaPFvcPvjjEPcjjdjjj>:
    7a82:	712d                	addi	sp,sp,-288
    7a84:	dfde                	sw	s7,252(sp)
    7a86:	dde2                	sw	s8,248(sp)
    7a88:	8baa                	mv	s7,a0
    7a8a:	c82e                	sw	a1,16(sp)
    7a8c:	8c32                	mv	s8,a2
    7a8e:	ca36                	sw	a3,20(sp)
    7a90:	863a                	mv	a2,a4
    7a92:	86be                	mv	a3,a5
    7a94:	853a                	mv	a0,a4
    7a96:	85be                	mv	a1,a5
    7a98:	10912a23          	sw	s1,276(sp)
    7a9c:	11412423          	sw	s4,264(sp)
    7aa0:	11512223          	sw	s5,260(sp)
    7aa4:	11612023          	sw	s6,256(sp)
    7aa8:	d9ea                	sw	s10,240(sp)
    7aaa:	10112e23          	sw	ra,284(sp)
    7aae:	10812c23          	sw	s0,280(sp)
    7ab2:	11212823          	sw	s2,272(sp)
    7ab6:	11312623          	sw	s3,268(sp)
    7aba:	dbe6                	sw	s9,244(sp)
    7abc:	d7ee                	sw	s11,236(sp)
    7abe:	12012a03          	lw	s4,288(sp)
    7ac2:	84ba                	mv	s1,a4
    7ac4:	8b3e                	mv	s6,a5
    7ac6:	8ac2                	mv	s5,a6
    7ac8:	8d46                	mv	s10,a7
    7aca:	43a020ef          	jal	9f04 <__eqdf2>
    7ace:	e91d                	bnez	a0,7b04 <_ZL5_etoaPFvcPvjjEPcjjdjjj+0x82>
    7ad0:	1001a7b7          	lui	a5,0x1001a
    7ad4:	7587a603          	lw	a2,1880(a5) # 1001a758 <_ZZ23minimum_conv_single_8x8PaS_S_S_aE4Bias+0x10>
    7ad8:	75c7a683          	lw	a3,1884(a5)
    7adc:	8526                	mv	a0,s1
    7ade:	85da                	mv	a1,s6
    7ae0:	490020ef          	jal	9f70 <__gedf2>
    7ae4:	02a04063          	bgtz	a0,7b04 <_ZL5_etoaPFvcPvjjEPcjjdjjj+0x82>
    7ae8:	1001a7b7          	lui	a5,0x1001a
    7aec:	d026                	sw	s1,32(sp)
    7aee:	d25a                	sw	s6,36(sp)
    7af0:	7507a603          	lw	a2,1872(a5) # 1001a750 <_ZZ23minimum_conv_single_8x8PaS_S_S_aE4Bias+0x8>
    7af4:	7547a683          	lw	a3,1876(a5)
    7af8:	5502                	lw	a0,32(sp)
    7afa:	5592                	lw	a1,36(sp)
    7afc:	532020ef          	jal	a02e <__ledf2>
    7b00:	04055563          	bgez	a0,7b4a <_ZL5_etoaPFvcPvjjEPcjjdjjj+0xc8>
    7b04:	d426                	sw	s1,40(sp)
    7b06:	d65a                	sw	s6,44(sp)
    7b08:	11812403          	lw	s0,280(sp)
    7b0c:	13412023          	sw	s4,288(sp)
    7b10:	5722                	lw	a4,40(sp)
    7b12:	57b2                	lw	a5,44(sp)
    7b14:	46d2                	lw	a3,20(sp)
    7b16:	45c2                	lw	a1,16(sp)
    7b18:	11c12083          	lw	ra,284(sp)
    7b1c:	11412483          	lw	s1,276(sp)
    7b20:	11012903          	lw	s2,272(sp)
    7b24:	10c12983          	lw	s3,268(sp)
    7b28:	10812a03          	lw	s4,264(sp)
    7b2c:	10012b03          	lw	s6,256(sp)
    7b30:	5cde                	lw	s9,244(sp)
    7b32:	5dbe                	lw	s11,236(sp)
    7b34:	88ea                	mv	a7,s10
    7b36:	8856                	mv	a6,s5
    7b38:	5d4e                	lw	s10,240(sp)
    7b3a:	10412a83          	lw	s5,260(sp)
    7b3e:	8662                	mv	a2,s8
    7b40:	855e                	mv	a0,s7
    7b42:	5c6e                	lw	s8,248(sp)
    7b44:	5bfe                	lw	s7,252(sp)
    7b46:	6115                	addi	sp,sp,288
    7b48:	bead                	j	76c2 <_ZL5_ftoaPFvcPvjjEPcjjdjjj>
    7b4a:	d826                	sw	s1,48(sp)
    7b4c:	da5a                	sw	s6,52(sp)
    7b4e:	5542                	lw	a0,48(sp)
    7b50:	55d2                	lw	a1,52(sp)
    7b52:	4601                	li	a2,0
    7b54:	4681                	li	a3,0
    7b56:	4d8020ef          	jal	a02e <__ledf2>
    7b5a:	8ca6                	mv	s9,s1
    7b5c:	845a                	mv	s0,s6
    7b5e:	00055663          	bgez	a0,7b6a <_ZL5_etoaPFvcPvjjEPcjjdjjj+0xe8>
    7b62:	80000437          	lui	s0,0x80000
    7b66:	008b4433          	xor	s0,s6,s0
    7b6a:	400a7793          	andi	a5,s4,1024
    7b6e:	d03e                	sw	a5,32(sp)
    7b70:	e391                	bnez	a5,7b74 <_ZL5_etoaPFvcPvjjEPcjjdjjj+0xf2>
    7b72:	4a99                	li	s5,6
    7b74:	01445513          	srli	a0,s0,0x14
    7b78:	7ff57513          	andi	a0,a0,2047
    7b7c:	c0150513          	addi	a0,a0,-1023
    7b80:	438030ef          	jal	afb8 <__floatsidf>
    7b84:	1001a7b7          	lui	a5,0x1001a
    7b88:	7787a603          	lw	a2,1912(a5) # 1001a778 <_ZZ23minimum_conv_single_8x8PaS_S_S_aE4Bias+0x30>
    7b8c:	77c7a683          	lw	a3,1916(a5)
    7b90:	55e020ef          	jal	a0ee <__muldf3>
    7b94:	1001a7b7          	lui	a5,0x1001a
    7b98:	7807a603          	lw	a2,1920(a5) # 1001a780 <_ZZ23minimum_conv_single_8x8PaS_S_S_aE4Bias+0x38>
    7b9c:	7847a683          	lw	a3,1924(a5)
    7ba0:	4ae010ef          	jal	904e <__adddf3>
    7ba4:	1001a7b7          	lui	a5,0x1001a
    7ba8:	00c41713          	slli	a4,s0,0xc
    7bac:	8331                	srli	a4,a4,0xc
    7bae:	7887a603          	lw	a2,1928(a5) # 1001a788 <_ZZ23minimum_conv_single_8x8PaS_S_S_aE4Bias+0x40>
    7bb2:	78c7a683          	lw	a3,1932(a5)
    7bb6:	3ff007b7          	lui	a5,0x3ff00
    7bba:	8fd9                	or	a5,a5,a4
    7bbc:	de3e                	sw	a5,60(sp)
    7bbe:	dc26                	sw	s1,56(sp)
    7bc0:	89aa                	mv	s3,a0
    7bc2:	892e                	mv	s2,a1
    7bc4:	5562                	lw	a0,56(sp)
    7bc6:	55f2                	lw	a1,60(sp)
    7bc8:	27d020ef          	jal	a644 <__subdf3>
    7bcc:	1001a7b7          	lui	a5,0x1001a
    7bd0:	7907a603          	lw	a2,1936(a5) # 1001a790 <_ZZ23minimum_conv_single_8x8PaS_S_S_aE4Bias+0x48>
    7bd4:	7947a683          	lw	a3,1940(a5)
    7bd8:	516020ef          	jal	a0ee <__muldf3>
    7bdc:	c0ce                	sw	s3,64(sp)
    7bde:	c2ca                	sw	s2,68(sp)
    7be0:	862a                	mv	a2,a0
    7be2:	86ae                	mv	a3,a1
    7be4:	4506                	lw	a0,64(sp)
    7be6:	4596                	lw	a1,68(sp)
    7be8:	466010ef          	jal	904e <__adddf3>
    7bec:	30e030ef          	jal	aefa <__fixdfsi>
    7bf0:	892a                	mv	s2,a0
    7bf2:	3c6030ef          	jal	afb8 <__floatsidf>
    7bf6:	1001a7b7          	lui	a5,0x1001a
    7bfa:	7987a603          	lw	a2,1944(a5) # 1001a798 <_ZZ23minimum_conv_single_8x8PaS_S_S_aE4Bias+0x50>
    7bfe:	79c7a683          	lw	a3,1948(a5)
    7c02:	8daa                	mv	s11,a0
    7c04:	89ae                	mv	s3,a1
    7c06:	4e8020ef          	jal	a0ee <__muldf3>
    7c0a:	1001a7b7          	lui	a5,0x1001a
    7c0e:	7707a603          	lw	a2,1904(a5) # 1001a770 <_ZZ23minimum_conv_single_8x8PaS_S_S_aE4Bias+0x28>
    7c12:	7747a683          	lw	a3,1908(a5)
    7c16:	438010ef          	jal	904e <__adddf3>
    7c1a:	2e0030ef          	jal	aefa <__fixdfsi>
    7c1e:	1001a7b7          	lui	a5,0x1001a
    7c22:	c4ee                	sw	s11,72(sp)
    7c24:	7a07a603          	lw	a2,1952(a5) # 1001a7a0 <_ZZ23minimum_conv_single_8x8PaS_S_S_aE4Bias+0x58>
    7c28:	7a47a683          	lw	a3,1956(a5)
    7c2c:	c6ce                	sw	s3,76(sp)
    7c2e:	d02a                	sw	a0,32(sp)
    7c30:	4526                	lw	a0,72(sp)
    7c32:	45b6                	lw	a1,76(sp)
    7c34:	4ba020ef          	jal	a0ee <__muldf3>
    7c38:	8daa                	mv	s11,a0
    7c3a:	5502                	lw	a0,32(sp)
    7c3c:	89ae                	mv	s3,a1
    7c3e:	37a030ef          	jal	afb8 <__floatsidf>
    7c42:	1001a7b7          	lui	a5,0x1001a
    7c46:	7a87a603          	lw	a2,1960(a5) # 1001a7a8 <_ZZ23minimum_conv_single_8x8PaS_S_S_aE4Bias+0x60>
    7c4a:	7ac7a683          	lw	a3,1964(a5)
    7c4e:	4a0020ef          	jal	a0ee <__muldf3>
    7c52:	c8ee                	sw	s11,80(sp)
    7c54:	cace                	sw	s3,84(sp)
    7c56:	862a                	mv	a2,a0
    7c58:	86ae                	mv	a3,a1
    7c5a:	4546                	lw	a0,80(sp)
    7c5c:	45d6                	lw	a1,84(sp)
    7c5e:	1e7020ef          	jal	a644 <__subdf3>
    7c62:	ccaa                	sw	a0,88(sp)
    7c64:	ceae                	sw	a1,92(sp)
    7c66:	4666                	lw	a2,88(sp)
    7c68:	46f6                	lw	a3,92(sp)
    7c6a:	d82a                	sw	a0,48(sp)
    7c6c:	d42e                	sw	a1,40(sp)
    7c6e:	480020ef          	jal	a0ee <__muldf3>
    7c72:	5742                	lw	a4,48(sp)
    7c74:	57a2                	lw	a5,40(sp)
    7c76:	8daa                	mv	s11,a0
    7c78:	d0ba                	sw	a4,96(sp)
    7c7a:	d2be                	sw	a5,100(sp)
    7c7c:	d4ba                	sw	a4,104(sp)
    7c7e:	d6be                	sw	a5,108(sp)
    7c80:	89ae                	mv	s3,a1
    7c82:	5606                	lw	a2,96(sp)
    7c84:	5696                	lw	a3,100(sp)
    7c86:	5526                	lw	a0,104(sp)
    7c88:	55b6                	lw	a1,108(sp)
    7c8a:	c0ba                	sw	a4,64(sp)
    7c8c:	dc3e                	sw	a5,56(sp)
    7c8e:	3c0010ef          	jal	904e <__adddf3>
    7c92:	1001a6b7          	lui	a3,0x1001a
    7c96:	d8ee                	sw	s11,112(sp)
    7c98:	dace                	sw	s3,116(sp)
    7c9a:	7b06a603          	lw	a2,1968(a3) # 1001a7b0 <_ZZ23minimum_conv_single_8x8PaS_S_S_aE4Bias+0x68>
    7c9e:	d82a                	sw	a0,48(sp)
    7ca0:	7b46a683          	lw	a3,1972(a3)
    7ca4:	5546                	lw	a0,112(sp)
    7ca6:	d42e                	sw	a1,40(sp)
    7ca8:	55d6                	lw	a1,116(sp)
    7caa:	46b010ef          	jal	9914 <__divdf3>
    7cae:	1001a837          	lui	a6,0x1001a
    7cb2:	7b882603          	lw	a2,1976(a6) # 1001a7b8 <_ZZ23minimum_conv_single_8x8PaS_S_S_aE4Bias+0x70>
    7cb6:	7bc82683          	lw	a3,1980(a6)
    7cba:	394010ef          	jal	904e <__adddf3>
    7cbe:	dcee                	sw	s11,120(sp)
    7cc0:	dece                	sw	s3,124(sp)
    7cc2:	862a                	mv	a2,a0
    7cc4:	86ae                	mv	a3,a1
    7cc6:	5566                	lw	a0,120(sp)
    7cc8:	55f6                	lw	a1,124(sp)
    7cca:	44b010ef          	jal	9914 <__divdf3>
    7cce:	1001a6b7          	lui	a3,0x1001a
    7cd2:	7c06a603          	lw	a2,1984(a3) # 1001a7c0 <_ZZ23minimum_conv_single_8x8PaS_S_S_aE4Bias+0x78>
    7cd6:	7c46a683          	lw	a3,1988(a3)
    7cda:	374010ef          	jal	904e <__adddf3>
    7cde:	c16e                	sw	s11,128(sp)
    7ce0:	c34e                	sw	s3,132(sp)
    7ce2:	862a                	mv	a2,a0
    7ce4:	86ae                	mv	a3,a1
    7ce6:	450a                	lw	a0,128(sp)
    7ce8:	459a                	lw	a1,132(sp)
    7cea:	42b010ef          	jal	9914 <__divdf3>
    7cee:	4706                	lw	a4,64(sp)
    7cf0:	57e2                	lw	a5,56(sp)
    7cf2:	8daa                	mv	s11,a0
    7cf4:	c53a                	sw	a4,136(sp)
    7cf6:	c73e                	sw	a5,140(sp)
    7cf8:	1001a7b7          	lui	a5,0x1001a
    7cfc:	7c87a503          	lw	a0,1992(a5) # 1001a7c8 <_ZZ23minimum_conv_single_8x8PaS_S_S_aE4Bias+0x80>
    7d00:	462a                	lw	a2,136(sp)
    7d02:	46ba                	lw	a3,140(sp)
    7d04:	89ae                	mv	s3,a1
    7d06:	7cc7a583          	lw	a1,1996(a5)
    7d0a:	13b020ef          	jal	a644 <__subdf3>
    7d0e:	c96e                	sw	s11,144(sp)
    7d10:	cb4e                	sw	s3,148(sp)
    7d12:	862a                	mv	a2,a0
    7d14:	86ae                	mv	a3,a1
    7d16:	454a                	lw	a0,144(sp)
    7d18:	45da                	lw	a1,148(sp)
    7d1a:	334010ef          	jal	904e <__adddf3>
    7d1e:	5342                	lw	t1,48(sp)
    7d20:	58a2                	lw	a7,40(sp)
    7d22:	862a                	mv	a2,a0
    7d24:	cd1a                	sw	t1,152(sp)
    7d26:	cf46                	sw	a7,156(sp)
    7d28:	86ae                	mv	a3,a1
    7d2a:	456a                	lw	a0,152(sp)
    7d2c:	45fa                	lw	a1,156(sp)
    7d2e:	3e7010ef          	jal	9914 <__divdf3>
    7d32:	1001a7b7          	lui	a5,0x1001a
    7d36:	7d07a603          	lw	a2,2000(a5) # 1001a7d0 <_ZZ23minimum_conv_single_8x8PaS_S_S_aE4Bias+0x88>
    7d3a:	7d47a683          	lw	a3,2004(a5)
    7d3e:	310010ef          	jal	904e <__adddf3>
    7d42:	5782                	lw	a5,32(sp)
    7d44:	d102                	sw	zero,160(sp)
    7d46:	560a                	lw	a2,160(sp)
    7d48:	3ff78793          	addi	a5,a5,1023
    7d4c:	01479713          	slli	a4,a5,0x14
    7d50:	d33a                	sw	a4,164(sp)
    7d52:	569a                	lw	a3,164(sp)
    7d54:	39a020ef          	jal	a0ee <__muldf3>
    7d58:	d526                	sw	s1,168(sp)
    7d5a:	d722                	sw	s0,172(sp)
    7d5c:	562a                	lw	a2,168(sp)
    7d5e:	56ba                	lw	a3,172(sp)
    7d60:	8daa                	mv	s11,a0
    7d62:	89ae                	mv	s3,a1
    7d64:	20c020ef          	jal	9f70 <__gedf2>
    7d68:	1001a837          	lui	a6,0x1001a
    7d6c:	16a04263          	bgtz	a0,7ed0 <_ZL5_etoaPFvcPvjjEPcjjdjjj+0x44e>
    7d70:	cc6e                	sw	s11,24(sp)
    7d72:	ce4e                	sw	s3,28(sp)
    7d74:	0c600793          	li	a5,198
    7d78:	06390993          	addi	s3,s2,99
    7d7c:	0137b9b3          	sltu	s3,a5,s3
    7d80:	014a1793          	slli	a5,s4,0x14
    7d84:	0991                	addi	s3,s3,4
    7d86:	0407d963          	bgez	a5,7dd8 <_ZL5_etoaPFvcPvjjEPcjjdjjj+0x356>
    7d8a:	1001a7b7          	lui	a5,0x1001a
    7d8e:	dd26                	sw	s1,184(sp)
    7d90:	df22                	sw	s0,188(sp)
    7d92:	7d87a603          	lw	a2,2008(a5) # 1001a7d8 <_ZZ23minimum_conv_single_8x8PaS_S_S_aE4Bias+0x90>
    7d96:	7dc7a683          	lw	a3,2012(a5)
    7d9a:	556a                	lw	a0,184(sp)
    7d9c:	55fa                	lw	a1,188(sp)
    7d9e:	1d2020ef          	jal	9f70 <__gedf2>
    7da2:	14054563          	bltz	a0,7eec <_ZL5_etoaPFvcPvjjEPcjjdjjj+0x46a>
    7da6:	1001a7b7          	lui	a5,0x1001a
    7daa:	c1a6                	sw	s1,192(sp)
    7dac:	c3a2                	sw	s0,196(sp)
    7dae:	7e07a603          	lw	a2,2016(a5) # 1001a7e0 <_ZZ23minimum_conv_single_8x8PaS_S_S_aE4Bias+0x98>
    7db2:	7e47a683          	lw	a3,2020(a5)
    7db6:	450e                	lw	a0,192(sp)
    7db8:	459e                	lw	a1,196(sp)
    7dba:	274020ef          	jal	a02e <__ledf2>
    7dbe:	12055763          	bgez	a0,7eec <_ZL5_etoaPFvcPvjjEPcjjdjjj+0x46a>
    7dc2:	4781                	li	a5,0
    7dc4:	01595563          	bge	s2,s5,7dce <_ZL5_etoaPFvcPvjjEPcjjdjjj+0x34c>
    7dc8:	412a87b3          	sub	a5,s5,s2
    7dcc:	17fd                	addi	a5,a5,-1
    7dce:	8abe                	mv	s5,a5
    7dd0:	400a6a13          	ori	s4,s4,1024
    7dd4:	4981                	li	s3,0
    7dd6:	4901                	li	s2,0
    7dd8:	4881                	li	a7,0
    7dda:	01a9f463          	bgeu	s3,s10,7de2 <_ZL5_etoaPFvcPvjjEPcjjdjjj+0x360>
    7dde:	413d08b3          	sub	a7,s10,s3
    7de2:	002a7d93          	andi	s11,s4,2
    7de6:	000d8863          	beqz	s11,7df6 <_ZL5_etoaPFvcPvjjEPcjjdjjj+0x374>
    7dea:	0019b793          	seqz	a5,s3
    7dee:	40f007b3          	neg	a5,a5
    7df2:	00f8f8b3          	and	a7,a7,a5
    7df6:	00090e63          	beqz	s2,7e12 <_ZL5_etoaPFvcPvjjEPcjjdjjj+0x390>
    7dfa:	c7a2                	sw	s0,204(sp)
    7dfc:	c5a6                	sw	s1,200(sp)
    7dfe:	4662                	lw	a2,24(sp)
    7e00:	46f2                	lw	a3,28(sp)
    7e02:	452e                	lw	a0,200(sp)
    7e04:	45be                	lw	a1,204(sp)
    7e06:	d046                	sw	a7,32(sp)
    7e08:	30d010ef          	jal	9914 <__divdf3>
    7e0c:	5882                	lw	a7,32(sp)
    7e0e:	8caa                	mv	s9,a0
    7e10:	842e                	mv	s0,a1
    7e12:	c9a6                	sw	s1,208(sp)
    7e14:	cbda                	sw	s6,212(sp)
    7e16:	454e                	lw	a0,208(sp)
    7e18:	45de                	lw	a1,212(sp)
    7e1a:	4601                	li	a2,0
    7e1c:	4681                	li	a3,0
    7e1e:	cc46                	sw	a7,24(sp)
    7e20:	20e020ef          	jal	a02e <__ledf2>
    7e24:	48e2                	lw	a7,24(sp)
    7e26:	00055563          	bgez	a0,7e30 <_ZL5_etoaPFvcPvjjEPcjjdjjj+0x3ae>
    7e2a:	800007b7          	lui	a5,0x80000
    7e2e:	8c3d                	xor	s0,s0,a5
    7e30:	77fd                	lui	a5,0xfffff
    7e32:	7ff78793          	addi	a5,a5,2047 # fffff7ff <linker_stack_start+0xeffcf80f>
    7e36:	00fa77b3          	and	a5,s4,a5
    7e3a:	cde6                	sw	s9,216(sp)
    7e3c:	cfa2                	sw	s0,220(sp)
    7e3e:	c03e                	sw	a5,0(sp)
    7e40:	476e                	lw	a4,216(sp)
    7e42:	47fe                	lw	a5,220(sp)
    7e44:	46d2                	lw	a3,20(sp)
    7e46:	45c2                	lw	a1,16(sp)
    7e48:	8662                	mv	a2,s8
    7e4a:	8856                	mv	a6,s5
    7e4c:	855e                	mv	a0,s7
    7e4e:	875ff0ef          	jal	76c2 <_ZL5_ftoaPFvcPvjjEPcjjdjjj>
    7e52:	862a                	mv	a2,a0
    7e54:	04098663          	beqz	s3,7ea0 <_ZL5_etoaPFvcPvjjEPcjjdjjj+0x41e>
    7e58:	46d2                	lw	a3,20(sp)
    7e5a:	45c2                	lw	a1,16(sp)
    7e5c:	fffa4a13          	not	s4,s4
    7e60:	020a7a13          	andi	s4,s4,32
    7e64:	cc2a                	sw	a0,24(sp)
    7e66:	045a0513          	addi	a0,s4,69
    7e6a:	9b82                	jalr	s7
    7e6c:	41f95713          	srai	a4,s2,0x1f
    7e70:	4662                	lw	a2,24(sp)
    7e72:	012746b3          	xor	a3,a4,s2
    7e76:	40e68733          	sub	a4,a3,a4
    7e7a:	45c2                	lw	a1,16(sp)
    7e7c:	46d2                	lw	a3,20(sp)
    7e7e:	4795                	li	a5,5
    7e80:	19fd                	addi	s3,s3,-1
    7e82:	c23e                	sw	a5,4(sp)
    7e84:	0605                	addi	a2,a2,1
    7e86:	c04e                	sw	s3,0(sp)
    7e88:	4881                	li	a7,0
    7e8a:	4829                	li	a6,10
    7e8c:	01f95793          	srli	a5,s2,0x1f
    7e90:	855e                	mv	a0,s7
    7e92:	eb0ff0ef          	jal	7542 <_ZL10_ntoa_longPFvcPvjjEPcjjmbmjjj>
    7e96:	862a                	mv	a2,a0
    7e98:	41850433          	sub	s0,a0,s8
    7e9c:	060d9763          	bnez	s11,7f0a <_ZL5_etoaPFvcPvjjEPcjjdjjj+0x488>
    7ea0:	11c12083          	lw	ra,284(sp)
    7ea4:	11812403          	lw	s0,280(sp)
    7ea8:	11412483          	lw	s1,276(sp)
    7eac:	11012903          	lw	s2,272(sp)
    7eb0:	10c12983          	lw	s3,268(sp)
    7eb4:	10812a03          	lw	s4,264(sp)
    7eb8:	10412a83          	lw	s5,260(sp)
    7ebc:	10012b03          	lw	s6,256(sp)
    7ec0:	5bfe                	lw	s7,252(sp)
    7ec2:	5c6e                	lw	s8,248(sp)
    7ec4:	5cde                	lw	s9,244(sp)
    7ec6:	5d4e                	lw	s10,240(sp)
    7ec8:	5dbe                	lw	s11,236(sp)
    7eca:	8532                	mv	a0,a2
    7ecc:	6115                	addi	sp,sp,288
    7ece:	8082                	ret
    7ed0:	d96e                	sw	s11,176(sp)
    7ed2:	db4e                	sw	s3,180(sp)
    7ed4:	7b882603          	lw	a2,1976(a6) # 1001a7b8 <_ZZ23minimum_conv_single_8x8PaS_S_S_aE4Bias+0x70>
    7ed8:	7bc82683          	lw	a3,1980(a6)
    7edc:	554a                	lw	a0,176(sp)
    7ede:	55da                	lw	a1,180(sp)
    7ee0:	197d                	addi	s2,s2,-1
    7ee2:	233010ef          	jal	9914 <__divdf3>
    7ee6:	cc2a                	sw	a0,24(sp)
    7ee8:	ce2e                	sw	a1,28(sp)
    7eea:	b569                	j	7d74 <_ZL5_etoaPFvcPvjjEPcjjdjjj+0x2f2>
    7eec:	ee0a86e3          	beqz	s5,7dd8 <_ZL5_etoaPFvcPvjjEPcjjdjjj+0x356>
    7ef0:	400a7793          	andi	a5,s4,1024
    7ef4:	00f037b3          	snez	a5,a5
    7ef8:	40fa8ab3          	sub	s5,s5,a5
    7efc:	bdf1                	j	7dd8 <_ZL5_etoaPFvcPvjjEPcjjdjjj+0x356>
    7efe:	46d2                	lw	a3,20(sp)
    7f00:	45c2                	lw	a1,16(sp)
    7f02:	02000513          	li	a0,32
    7f06:	0405                	addi	s0,s0,1 # 80000001 <linker_stack_start+0x6ffd0011>
    7f08:	9b82                	jalr	s7
    7f0a:	008c0633          	add	a2,s8,s0
    7f0e:	ffa468e3          	bltu	s0,s10,7efe <_ZL5_etoaPFvcPvjjEPcjjdjjj+0x47c>
    7f12:	b779                	j	7ea0 <_ZL5_etoaPFvcPvjjEPcjjdjjj+0x41e>

00007f14 <_ZL10_vsnprintfPFvcPvjjEPcjPKcS_>:
    7f14:	711d                	addi	sp,sp,-96
    7f16:	caa6                	sw	s1,84(sp)
    7f18:	c8ca                	sw	s2,80(sp)
    7f1a:	c6ce                	sw	s3,76(sp)
    7f1c:	c2d6                	sw	s5,68(sp)
    7f1e:	ce86                	sw	ra,92(sp)
    7f20:	cca2                	sw	s0,88(sp)
    7f22:	c4d2                	sw	s4,72(sp)
    7f24:	c0da                	sw	s6,64(sp)
    7f26:	de5e                	sw	s7,60(sp)
    7f28:	dc62                	sw	s8,56(sp)
    7f2a:	da66                	sw	s9,52(sp)
    7f2c:	d86a                	sw	s10,48(sp)
    7f2e:	d66e                	sw	s11,44(sp)
    7f30:	ca2e                	sw	a1,20(sp)
    7f32:	89b2                	mv	s3,a2
    7f34:	84b6                	mv	s1,a3
    7f36:	8aba                	mv	s5,a4
    7f38:	892a                	mv	s2,a0
    7f3a:	e581                	bnez	a1,7f42 <_ZL10_vsnprintfPFvcPvjjEPcjPKcS_+0x2e>
    7f3c:	691d                	lui	s2,0x7
    7f3e:	34490913          	addi	s2,s2,836 # 7344 <_ZL9_out_nullcPvjj>
    7f42:	4d81                	li	s11,0
    7f44:	4ca9                	li	s9,10
    7f46:	a39d                	j	84ac <_ZL10_vsnprintfPFvcPvjjEPcjPKcS_+0x598>
    7f48:	02500793          	li	a5,37
    7f4c:	0485                	addi	s1,s1,1
    7f4e:	00f50a63          	beq	a0,a5,7f62 <_ZL10_vsnprintfPFvcPvjjEPcjPKcS_+0x4e>
    7f52:	45d2                	lw	a1,20(sp)
    7f54:	866e                	mv	a2,s11
    7f56:	001d8413          	addi	s0,s11,1
    7f5a:	86ce                	mv	a3,s3
    7f5c:	9902                	jalr	s2
    7f5e:	8da2                	mv	s11,s0
    7f60:	a3b1                	j	84ac <_ZL10_vsnprintfPFvcPvjjEPcjPKcS_+0x598>
    7f62:	4301                	li	t1,0
    7f64:	02b00713          	li	a4,43
    7f68:	02000613          	li	a2,32
    7f6c:	02300593          	li	a1,35
    7f70:	a0ad                	j	7fda <_ZL10_vsnprintfPFvcPvjjEPcjPKcS_+0xc6>
    7f72:	02d00513          	li	a0,45
    7f76:	0aa78063          	beq	a5,a0,8016 <_ZL10_vsnprintfPFvcPvjjEPcjPKcS_+0x102>
    7f7a:	03000513          	li	a0,48
    7f7e:	04a78b63          	beq	a5,a0,7fd4 <_ZL10_vsnprintfPFvcPvjjEPcjPKcS_+0xc0>
    7f82:	fd078713          	addi	a4,a5,-48
    7f86:	4625                	li	a2,9
    7f88:	0ff77713          	zext.b	a4,a4
    7f8c:	4a01                	li	s4,0
    7f8e:	85b2                	mv	a1,a2
    7f90:	06e66163          	bltu	a2,a4,7ff2 <_ZL10_vsnprintfPFvcPvjjEPcjPKcS_+0xde>
    7f94:	0004c703          	lbu	a4,0(s1)
    7f98:	00148693          	addi	a3,s1,1
    7f9c:	fd070793          	addi	a5,a4,-48
    7fa0:	0ff7f793          	zext.b	a5,a5
    7fa4:	08f5f563          	bgeu	a1,a5,802e <_ZL10_vsnprintfPFvcPvjjEPcjPKcS_+0x11a>
    7fa8:	0004c703          	lbu	a4,0(s1)
    7fac:	02e00793          	li	a5,46
    7fb0:	12f71c63          	bne	a4,a5,80e8 <_ZL10_vsnprintfPFvcPvjjEPcjPKcS_+0x1d4>
    7fb4:	0014c603          	lbu	a2,1(s1)
    7fb8:	4725                	li	a4,9
    7fba:	00148793          	addi	a5,s1,1
    7fbe:	fd060693          	addi	a3,a2,-48
    7fc2:	0ff6f693          	zext.b	a3,a3
    7fc6:	40036313          	ori	t1,t1,1024
    7fca:	0ed76f63          	bltu	a4,a3,80c8 <_ZL10_vsnprintfPFvcPvjjEPcjPKcS_+0x1b4>
    7fce:	4b01                	li	s6,0
    7fd0:	4529                	li	a0,10
    7fd2:	a8ad                	j	804c <_ZL10_vsnprintfPFvcPvjjEPcjPKcS_+0x138>
    7fd4:	00136313          	ori	t1,t1,1
    7fd8:	84b6                	mv	s1,a3
    7fda:	0004c783          	lbu	a5,0(s1)
    7fde:	00148693          	addi	a3,s1,1
    7fe2:	02e78d63          	beq	a5,a4,801c <_ZL10_vsnprintfPFvcPvjjEPcjPKcS_+0x108>
    7fe6:	f8f766e3          	bltu	a4,a5,7f72 <_ZL10_vsnprintfPFvcPvjjEPcjPKcS_+0x5e>
    7fea:	02c78c63          	beq	a5,a2,8022 <_ZL10_vsnprintfPFvcPvjjEPcjPKcS_+0x10e>
    7fee:	02b78d63          	beq	a5,a1,8028 <_ZL10_vsnprintfPFvcPvjjEPcjPKcS_+0x114>
    7ff2:	02a00713          	li	a4,42
    7ff6:	4a01                	li	s4,0
    7ff8:	fae798e3          	bne	a5,a4,7fa8 <_ZL10_vsnprintfPFvcPvjjEPcjPKcS_+0x94>
    7ffc:	000aaa03          	lw	s4,0(s5)
    8000:	004a8793          	addi	a5,s5,4
    8004:	000a5663          	bgez	s4,8010 <_ZL10_vsnprintfPFvcPvjjEPcjPKcS_+0xfc>
    8008:	00236313          	ori	t1,t1,2
    800c:	41400a33          	neg	s4,s4
    8010:	8abe                	mv	s5,a5
    8012:	84b6                	mv	s1,a3
    8014:	bf51                	j	7fa8 <_ZL10_vsnprintfPFvcPvjjEPcjPKcS_+0x94>
    8016:	00236313          	ori	t1,t1,2
    801a:	bf7d                	j	7fd8 <_ZL10_vsnprintfPFvcPvjjEPcjPKcS_+0xc4>
    801c:	00436313          	ori	t1,t1,4
    8020:	bf65                	j	7fd8 <_ZL10_vsnprintfPFvcPvjjEPcjPKcS_+0xc4>
    8022:	00836313          	ori	t1,t1,8
    8026:	bf4d                	j	7fd8 <_ZL10_vsnprintfPFvcPvjjEPcjPKcS_+0xc4>
    8028:	01036313          	ori	t1,t1,16
    802c:	b775                	j	7fd8 <_ZL10_vsnprintfPFvcPvjjEPcjPKcS_+0xc4>
    802e:	039a08b3          	mul	a7,s4,s9
    8032:	84b6                	mv	s1,a3
    8034:	fd088893          	addi	a7,a7,-48
    8038:	01170a33          	add	s4,a4,a7
    803c:	bfa1                	j	7f94 <_ZL10_vsnprintfPFvcPvjjEPcjPKcS_+0x80>
    803e:	02ab0e33          	mul	t3,s6,a0
    8042:	87ae                	mv	a5,a1
    8044:	fd0e0e13          	addi	t3,t3,-48
    8048:	01c60b33          	add	s6,a2,t3
    804c:	0007c603          	lbu	a2,0(a5)
    8050:	00178593          	addi	a1,a5,1
    8054:	fd060693          	addi	a3,a2,-48
    8058:	0ff6f693          	zext.b	a3,a3
    805c:	fed771e3          	bgeu	a4,a3,803e <_ZL10_vsnprintfPFvcPvjjEPcjPKcS_+0x12a>
    8060:	0007c703          	lbu	a4,0(a5)
    8064:	06c00693          	li	a3,108
    8068:	00178493          	addi	s1,a5,1
    806c:	08d70c63          	beq	a4,a3,8104 <_ZL10_vsnprintfPFvcPvjjEPcjPKcS_+0x1f0>
    8070:	06e6ef63          	bltu	a3,a4,80ee <_ZL10_vsnprintfPFvcPvjjEPcjPKcS_+0x1da>
    8074:	06800693          	li	a3,104
    8078:	08d70f63          	beq	a4,a3,8116 <_ZL10_vsnprintfPFvcPvjjEPcjPKcS_+0x202>
    807c:	06a00693          	li	a3,106
    8080:	0ad70563          	beq	a4,a3,812a <_ZL10_vsnprintfPFvcPvjjEPcjPKcS_+0x216>
    8084:	84be                	mv	s1,a5
    8086:	0004c503          	lbu	a0,0(s1)
    808a:	06700793          	li	a5,103
    808e:	0485                	addi	s1,s1,1
    8090:	0aa7ef63          	bltu	a5,a0,814e <_ZL10_vsnprintfPFvcPvjjEPcjPKcS_+0x23a>
    8094:	05700793          	li	a5,87
    8098:	08a7ec63          	bltu	a5,a0,8130 <_ZL10_vsnprintfPFvcPvjjEPcjPKcS_+0x21c>
    809c:	04500793          	li	a5,69
    80a0:	02f50163          	beq	a0,a5,80c2 <_ZL10_vsnprintfPFvcPvjjEPcjPKcS_+0x1ae>
    80a4:	eaa7f7e3          	bgeu	a5,a0,7f52 <_ZL10_vsnprintfPFvcPvjjEPcjPKcS_+0x3e>
    80a8:	04600793          	li	a5,70
    80ac:	1cf50563          	beq	a0,a5,8276 <_ZL10_vsnprintfPFvcPvjjEPcjPKcS_+0x362>
    80b0:	04700793          	li	a5,71
    80b4:	e8f51fe3          	bne	a0,a5,7f52 <_ZL10_vsnprintfPFvcPvjjEPcjPKcS_+0x3e>
    80b8:	6785                	lui	a5,0x1
    80ba:	80078793          	addi	a5,a5,-2048 # 800 <_Z12test_fc_procv+0x278>
    80be:	00f36333          	or	t1,t1,a5
    80c2:	02036313          	ori	t1,t1,32
    80c6:	a2c5                	j	82a6 <_ZL10_vsnprintfPFvcPvjjEPcjPKcS_+0x392>
    80c8:	02a00713          	li	a4,42
    80cc:	4b01                	li	s6,0
    80ce:	f8e619e3          	bne	a2,a4,8060 <_ZL10_vsnprintfPFvcPvjjEPcjPKcS_+0x14c>
    80d2:	000aab03          	lw	s6,0(s5)
    80d6:	0a91                	addi	s5,s5,4
    80d8:	fffb4793          	not	a5,s6
    80dc:	87fd                	srai	a5,a5,0x1f
    80de:	00fb7b33          	and	s6,s6,a5
    80e2:	00248793          	addi	a5,s1,2
    80e6:	bfad                	j	8060 <_ZL10_vsnprintfPFvcPvjjEPcjPKcS_+0x14c>
    80e8:	87a6                	mv	a5,s1
    80ea:	4b01                	li	s6,0
    80ec:	bf95                	j	8060 <_ZL10_vsnprintfPFvcPvjjEPcjPKcS_+0x14c>
    80ee:	07400693          	li	a3,116
    80f2:	00d70663          	beq	a4,a3,80fe <_ZL10_vsnprintfPFvcPvjjEPcjPKcS_+0x1ea>
    80f6:	07a00693          	li	a3,122
    80fa:	f8d715e3          	bne	a4,a3,8084 <_ZL10_vsnprintfPFvcPvjjEPcjPKcS_+0x170>
    80fe:	10036313          	ori	t1,t1,256
    8102:	b751                	j	8086 <_ZL10_vsnprintfPFvcPvjjEPcjPKcS_+0x172>
    8104:	0017c683          	lbu	a3,1(a5)
    8108:	fee69be3          	bne	a3,a4,80fe <_ZL10_vsnprintfPFvcPvjjEPcjPKcS_+0x1ea>
    810c:	30036313          	ori	t1,t1,768
    8110:	00278493          	addi	s1,a5,2
    8114:	bf8d                	j	8086 <_ZL10_vsnprintfPFvcPvjjEPcjPKcS_+0x172>
    8116:	0017c683          	lbu	a3,1(a5)
    811a:	00e68563          	beq	a3,a4,8124 <_ZL10_vsnprintfPFvcPvjjEPcjPKcS_+0x210>
    811e:	08036313          	ori	t1,t1,128
    8122:	b795                	j	8086 <_ZL10_vsnprintfPFvcPvjjEPcjPKcS_+0x172>
    8124:	0c036313          	ori	t1,t1,192
    8128:	b7e5                	j	8110 <_ZL10_vsnprintfPFvcPvjjEPcjPKcS_+0x1fc>
    812a:	20036313          	ori	t1,t1,512
    812e:	bfa1                	j	8086 <_ZL10_vsnprintfPFvcPvjjEPcjPKcS_+0x172>
    8130:	fa850793          	addi	a5,a0,-88
    8134:	0ff7f793          	zext.b	a5,a5
    8138:	473d                	li	a4,15
    813a:	e0f76ce3          	bltu	a4,a5,7f52 <_ZL10_vsnprintfPFvcPvjjEPcjPKcS_+0x3e>
    813e:	1001a737          	lui	a4,0x1001a
    8142:	078a                	slli	a5,a5,0x2
    8144:	57870713          	addi	a4,a4,1400 # 1001a578 <_ZZ18matmul_multi8_testvE4A_sa_2+0x804>
    8148:	97ba                	add	a5,a5,a4
    814a:	439c                	lw	a5,0(a5)
    814c:	8782                	jr	a5
    814e:	f9750793          	addi	a5,a0,-105
    8152:	0ff7f793          	zext.b	a5,a5
    8156:	473d                	li	a4,15
    8158:	def76de3          	bltu	a4,a5,7f52 <_ZL10_vsnprintfPFvcPvjjEPcjPKcS_+0x3e>
    815c:	4705                	li	a4,1
    815e:	66a5                	lui	a3,0x9
    8160:	00f71733          	sll	a4,a4,a5
    8164:	04168693          	addi	a3,a3,65 # 9041 <__umoddi3+0x381>
    8168:	8f75                	and	a4,a4,a3
    816a:	e31d                	bnez	a4,8190 <_ZL10_vsnprintfPFvcPvjjEPcjPKcS_+0x27c>
    816c:	4729                	li	a4,10
    816e:	1ee78263          	beq	a5,a4,8352 <_ZL10_vsnprintfPFvcPvjjEPcjPKcS_+0x43e>
    8172:	471d                	li	a4,7
    8174:	dce79fe3          	bne	a5,a4,7f52 <_ZL10_vsnprintfPFvcPvjjEPcjPKcS_+0x3e>
    8178:	02136313          	ori	t1,t1,33
    817c:	47a1                	li	a5,8
    817e:	000aa703          	lw	a4,0(s5)
    8182:	004a8413          	addi	s0,s5,4
    8186:	c21a                	sw	t1,4(sp)
    8188:	c03e                	sw	a5,0(sp)
    818a:	88da                	mv	a7,s6
    818c:	4841                	li	a6,16
    818e:	a0e1                	j	8256 <_ZL10_vsnprintfPFvcPvjjEPcjPKcS_+0x342>
    8190:	06f00793          	li	a5,111
    8194:	28f51f63          	bne	a0,a5,8432 <_ZL10_vsnprintfPFvcPvjjEPcjPKcS_+0x51e>
    8198:	4821                	li	a6,8
    819a:	a00d                	j	81bc <_ZL10_vsnprintfPFvcPvjjEPcjPKcS_+0x2a8>
    819c:	05800793          	li	a5,88
    81a0:	02f50763          	beq	a0,a5,81ce <_ZL10_vsnprintfPFvcPvjjEPcjPKcS_+0x2ba>
    81a4:	06200793          	li	a5,98
    81a8:	4809                	li	a6,2
    81aa:	00f50963          	beq	a0,a5,81bc <_ZL10_vsnprintfPFvcPvjjEPcjPKcS_+0x2a8>
    81ae:	fef37313          	andi	t1,t1,-17
    81b2:	06400793          	li	a5,100
    81b6:	4829                	li	a6,10
    81b8:	28f50663          	beq	a0,a5,8444 <_ZL10_vsnprintfPFvcPvjjEPcjPKcS_+0x530>
    81bc:	ff337313          	andi	t1,t1,-13
    81c0:	a451                	j	8444 <_ZL10_vsnprintfPFvcPvjjEPcjPKcS_+0x530>
    81c2:	07800793          	li	a5,120
    81c6:	fef514e3          	bne	a0,a5,81ae <_ZL10_vsnprintfPFvcPvjjEPcjPKcS_+0x29a>
    81ca:	4841                	li	a6,16
    81cc:	bfc5                	j	81bc <_ZL10_vsnprintfPFvcPvjjEPcjPKcS_+0x2a8>
    81ce:	02036313          	ori	t1,t1,32
    81d2:	bfe5                	j	81ca <_ZL10_vsnprintfPFvcPvjjEPcjPKcS_+0x2b6>
    81d4:	10037793          	andi	a5,t1,256
    81d8:	004a8413          	addi	s0,s5,4
    81dc:	c785                	beqz	a5,8204 <_ZL10_vsnprintfPFvcPvjjEPcjPKcS_+0x2f0>
    81de:	000aa783          	lw	a5,0(s5)
    81e2:	41f7d713          	srai	a4,a5,0x1f
    81e6:	00f746b3          	xor	a3,a4,a5
    81ea:	c21a                	sw	t1,4(sp)
    81ec:	c052                	sw	s4,0(sp)
    81ee:	88da                	mv	a7,s6
    81f0:	83fd                	srli	a5,a5,0x1f
    81f2:	40e68733          	sub	a4,a3,a4
    81f6:	45d2                	lw	a1,20(sp)
    81f8:	86ce                	mv	a3,s3
    81fa:	866e                	mv	a2,s11
    81fc:	854a                	mv	a0,s2
    81fe:	b44ff0ef          	jal	7542 <_ZL10_ntoa_longPFvcPvjjEPcjjmbmjjj>
    8202:	a45d                	j	84a8 <_ZL10_vsnprintfPFvcPvjjEPcjPKcS_+0x594>
    8204:	04037713          	andi	a4,t1,64
    8208:	000aa783          	lw	a5,0(s5)
    820c:	c701                	beqz	a4,8214 <_ZL10_vsnprintfPFvcPvjjEPcjPKcS_+0x300>
    820e:	0ff7f793          	zext.b	a5,a5
    8212:	bfc1                	j	81e2 <_ZL10_vsnprintfPFvcPvjjEPcjPKcS_+0x2ce>
    8214:	08037713          	andi	a4,t1,128
    8218:	d769                	beqz	a4,81e2 <_ZL10_vsnprintfPFvcPvjjEPcjPKcS_+0x2ce>
    821a:	07c2                	slli	a5,a5,0x10
    821c:	87c1                	srai	a5,a5,0x10
    821e:	b7d1                	j	81e2 <_ZL10_vsnprintfPFvcPvjjEPcjPKcS_+0x2ce>
    8220:	c38d                	beqz	a5,8242 <_ZL10_vsnprintfPFvcPvjjEPcjPKcS_+0x32e>
    8222:	0a9d                	addi	s5,s5,7
    8224:	ff8afa93          	andi	s5,s5,-8
    8228:	000aa703          	lw	a4,0(s5)
    822c:	004aa783          	lw	a5,4(s5)
    8230:	88c2                	mv	a7,a6
    8232:	008a8413          	addi	s0,s5,8
    8236:	c61a                	sw	t1,12(sp)
    8238:	c452                	sw	s4,8(sp)
    823a:	c25a                	sw	s6,4(sp)
    823c:	c002                	sw	zero,0(sp)
    823e:	4801                	li	a6,0
    8240:	acb1                	j	849c <_ZL10_vsnprintfPFvcPvjjEPcjPKcS_+0x588>
    8242:	10037793          	andi	a5,t1,256
    8246:	004a8413          	addi	s0,s5,4
    824a:	cb81                	beqz	a5,825a <_ZL10_vsnprintfPFvcPvjjEPcjPKcS_+0x346>
    824c:	000aa703          	lw	a4,0(s5)
    8250:	c21a                	sw	t1,4(sp)
    8252:	c052                	sw	s4,0(sp)
    8254:	88da                	mv	a7,s6
    8256:	4781                	li	a5,0
    8258:	bf79                	j	81f6 <_ZL10_vsnprintfPFvcPvjjEPcjPKcS_+0x2e2>
    825a:	04037793          	andi	a5,t1,64
    825e:	000aa703          	lw	a4,0(s5)
    8262:	c781                	beqz	a5,826a <_ZL10_vsnprintfPFvcPvjjEPcjPKcS_+0x356>
    8264:	0ff77713          	zext.b	a4,a4
    8268:	b7e5                	j	8250 <_ZL10_vsnprintfPFvcPvjjEPcjPKcS_+0x33c>
    826a:	08037793          	andi	a5,t1,128
    826e:	d3ed                	beqz	a5,8250 <_ZL10_vsnprintfPFvcPvjjEPcjPKcS_+0x33c>
    8270:	0742                	slli	a4,a4,0x10
    8272:	8341                	srli	a4,a4,0x10
    8274:	bff1                	j	8250 <_ZL10_vsnprintfPFvcPvjjEPcjPKcS_+0x33c>
    8276:	02036313          	ori	t1,t1,32
    827a:	007a8793          	addi	a5,s5,7
    827e:	9be1                	andi	a5,a5,-8
    8280:	4398                	lw	a4,0(a5)
    8282:	00878a93          	addi	s5,a5,8
    8286:	45d2                	lw	a1,20(sp)
    8288:	43dc                	lw	a5,4(a5)
    828a:	88d2                	mv	a7,s4
    828c:	c01a                	sw	t1,0(sp)
    828e:	885a                	mv	a6,s6
    8290:	86ce                	mv	a3,s3
    8292:	866e                	mv	a2,s11
    8294:	854a                	mv	a0,s2
    8296:	c2cff0ef          	jal	76c2 <_ZL5_ftoaPFvcPvjjEPcjjdjjj>
    829a:	8daa                	mv	s11,a0
    829c:	ac01                	j	84ac <_ZL10_vsnprintfPFvcPvjjEPcjPKcS_+0x598>
    829e:	06700793          	li	a5,103
    82a2:	02f50363          	beq	a0,a5,82c8 <_ZL10_vsnprintfPFvcPvjjEPcjPKcS_+0x3b4>
    82a6:	007a8793          	addi	a5,s5,7
    82aa:	9be1                	andi	a5,a5,-8
    82ac:	4398                	lw	a4,0(a5)
    82ae:	00878a93          	addi	s5,a5,8
    82b2:	45d2                	lw	a1,20(sp)
    82b4:	43dc                	lw	a5,4(a5)
    82b6:	88d2                	mv	a7,s4
    82b8:	c01a                	sw	t1,0(sp)
    82ba:	885a                	mv	a6,s6
    82bc:	86ce                	mv	a3,s3
    82be:	866e                	mv	a2,s11
    82c0:	854a                	mv	a0,s2
    82c2:	fc0ff0ef          	jal	7a82 <_ZL5_etoaPFvcPvjjEPcjjdjjj>
    82c6:	bfd1                	j	829a <_ZL10_vsnprintfPFvcPvjjEPcjPKcS_+0x386>
    82c8:	6785                	lui	a5,0x1
    82ca:	80078793          	addi	a5,a5,-2048 # 800 <_Z12test_fc_procv+0x278>
    82ce:	00f36333          	or	t1,t1,a5
    82d2:	bfd1                	j	82a6 <_ZL10_vsnprintfPFvcPvjjEPcjPKcS_+0x392>
    82d4:	00237413          	andi	s0,t1,2
    82d8:	4b85                	li	s7,1
    82da:	e815                	bnez	s0,830e <_ZL10_vsnprintfPFvcPvjjEPcjPKcS_+0x3fa>
    82dc:	4d01                	li	s10,0
    82de:	a031                	j	82ea <_ZL10_vsnprintfPFvcPvjjEPcjPKcS_+0x3d6>
    82e0:	45d2                	lw	a1,20(sp)
    82e2:	86ce                	mv	a3,s3
    82e4:	02000513          	li	a0,32
    82e8:	9902                	jalr	s2
    82ea:	01ad8633          	add	a2,s11,s10
    82ee:	0d05                	addi	s10,s10,1
    82f0:	ff4d68e3          	bltu	s10,s4,82e0 <_ZL10_vsnprintfPFvcPvjjEPcjPKcS_+0x3cc>
    82f4:	014036b3          	snez	a3,s4
    82f8:	4789                	li	a5,2
    82fa:	000a0463          	beqz	s4,8302 <_ZL10_vsnprintfPFvcPvjjEPcjPKcS_+0x3ee>
    82fe:	001a0793          	addi	a5,s4,1
    8302:	8bbe                	mv	s7,a5
    8304:	4701                	li	a4,0
    8306:	c299                	beqz	a3,830c <_ZL10_vsnprintfPFvcPvjjEPcjPKcS_+0x3f8>
    8308:	fffa0713          	addi	a4,s4,-1
    830c:	9dba                	add	s11,s11,a4
    830e:	45d2                	lw	a1,20(sp)
    8310:	000ac503          	lbu	a0,0(s5)
    8314:	86ce                	mv	a3,s3
    8316:	866e                	mv	a2,s11
    8318:	004a8d13          	addi	s10,s5,4
    831c:	001d8b13          	addi	s6,s11,1
    8320:	9902                	jalr	s2
    8322:	c40d                	beqz	s0,834c <_ZL10_vsnprintfPFvcPvjjEPcjPKcS_+0x438>
    8324:	845e                	mv	s0,s7
    8326:	865a                	mv	a2,s6
    8328:	a811                	j	833c <_ZL10_vsnprintfPFvcPvjjEPcjPKcS_+0x428>
    832a:	45d2                	lw	a1,20(sp)
    832c:	86ce                	mv	a3,s3
    832e:	02000513          	li	a0,32
    8332:	00160a93          	addi	s5,a2,1
    8336:	9902                	jalr	s2
    8338:	0405                	addi	s0,s0,1
    833a:	8656                	mv	a2,s5
    833c:	ff4467e3          	bltu	s0,s4,832a <_ZL10_vsnprintfPFvcPvjjEPcjPKcS_+0x416>
    8340:	4681                	li	a3,0
    8342:	017a6463          	bltu	s4,s7,834a <_ZL10_vsnprintfPFvcPvjjEPcjPKcS_+0x436>
    8346:	417a06b3          	sub	a3,s4,s7
    834a:	9b36                	add	s6,s6,a3
    834c:	8aea                	mv	s5,s10
    834e:	8dda                	mv	s11,s6
    8350:	aab1                	j	84ac <_ZL10_vsnprintfPFvcPvjjEPcjPKcS_+0x598>
    8352:	000aac03          	lw	s8,0(s5)
    8356:	004a8d13          	addi	s10,s5,4
    835a:	57fd                	li	a5,-1
    835c:	000b0363          	beqz	s6,8362 <_ZL10_vsnprintfPFvcPvjjEPcjPKcS_+0x44e>
    8360:	87da                	mv	a5,s6
    8362:	00fc0733          	add	a4,s8,a5
    8366:	87e2                	mv	a5,s8
    8368:	0007c683          	lbu	a3,0(a5)
    836c:	c689                	beqz	a3,8376 <_ZL10_vsnprintfPFvcPvjjEPcjPKcS_+0x462>
    836e:	00f70463          	beq	a4,a5,8376 <_ZL10_vsnprintfPFvcPvjjEPcjPKcS_+0x462>
    8372:	0785                	addi	a5,a5,1
    8374:	bfd5                	j	8368 <_ZL10_vsnprintfPFvcPvjjEPcjPKcS_+0x454>
    8376:	40037a93          	andi	s5,t1,1024
    837a:	41878bb3          	sub	s7,a5,s8
    837e:	000a8563          	beqz	s5,8388 <_ZL10_vsnprintfPFvcPvjjEPcjPKcS_+0x474>
    8382:	017b7363          	bgeu	s6,s7,8388 <_ZL10_vsnprintfPFvcPvjjEPcjPKcS_+0x474>
    8386:	8bda                	mv	s7,s6
    8388:	00237413          	andi	s0,t1,2
    838c:	ec1d                	bnez	s0,83ca <_ZL10_vsnprintfPFvcPvjjEPcjPKcS_+0x4b6>
    838e:	866e                	mv	a2,s11
    8390:	41bb8333          	sub	t1,s7,s11
    8394:	a829                	j	83ae <_ZL10_vsnprintfPFvcPvjjEPcjPKcS_+0x49a>
    8396:	45d2                	lw	a1,20(sp)
    8398:	00160713          	addi	a4,a2,1
    839c:	ce1a                	sw	t1,28(sp)
    839e:	cc3a                	sw	a4,24(sp)
    83a0:	86ce                	mv	a3,s3
    83a2:	02000513          	li	a0,32
    83a6:	9902                	jalr	s2
    83a8:	4762                	lw	a4,24(sp)
    83aa:	4372                	lw	t1,28(sp)
    83ac:	863a                	mv	a2,a4
    83ae:	00c30733          	add	a4,t1,a2
    83b2:	ff4762e3          	bltu	a4,s4,8396 <_ZL10_vsnprintfPFvcPvjjEPcjPKcS_+0x482>
    83b6:	4701                	li	a4,0
    83b8:	017a6463          	bltu	s4,s7,83c0 <_ZL10_vsnprintfPFvcPvjjEPcjPKcS_+0x4ac>
    83bc:	417a0733          	sub	a4,s4,s7
    83c0:	001b8793          	addi	a5,s7,1
    83c4:	00e78bb3          	add	s7,a5,a4
    83c8:	9dba                	add	s11,s11,a4
    83ca:	876e                	mv	a4,s11
    83cc:	41b706b3          	sub	a3,a4,s11
    83d0:	96e2                	add	a3,a3,s8
    83d2:	0006c503          	lbu	a0,0(a3)
    83d6:	c115                	beqz	a0,83fa <_ZL10_vsnprintfPFvcPvjjEPcjPKcS_+0x4e6>
    83d8:	000a8763          	beqz	s5,83e6 <_ZL10_vsnprintfPFvcPvjjEPcjPKcS_+0x4d2>
    83dc:	fffb0693          	addi	a3,s6,-1
    83e0:	000b0d63          	beqz	s6,83fa <_ZL10_vsnprintfPFvcPvjjEPcjPKcS_+0x4e6>
    83e4:	8b36                	mv	s6,a3
    83e6:	45d2                	lw	a1,20(sp)
    83e8:	00170313          	addi	t1,a4,1
    83ec:	cc1a                	sw	t1,24(sp)
    83ee:	863a                	mv	a2,a4
    83f0:	86ce                	mv	a3,s3
    83f2:	9902                	jalr	s2
    83f4:	4362                	lw	t1,24(sp)
    83f6:	871a                	mv	a4,t1
    83f8:	bfd1                	j	83cc <_ZL10_vsnprintfPFvcPvjjEPcjPKcS_+0x4b8>
    83fa:	c80d                	beqz	s0,842c <_ZL10_vsnprintfPFvcPvjjEPcjPKcS_+0x518>
    83fc:	863a                	mv	a2,a4
    83fe:	40eb8433          	sub	s0,s7,a4
    8402:	a819                	j	8418 <_ZL10_vsnprintfPFvcPvjjEPcjPKcS_+0x504>
    8404:	45d2                	lw	a1,20(sp)
    8406:	cc3a                	sw	a4,24(sp)
    8408:	86ce                	mv	a3,s3
    840a:	02000513          	li	a0,32
    840e:	00160a93          	addi	s5,a2,1
    8412:	9902                	jalr	s2
    8414:	4762                	lw	a4,24(sp)
    8416:	8656                	mv	a2,s5
    8418:	008606b3          	add	a3,a2,s0
    841c:	ff46e4e3          	bltu	a3,s4,8404 <_ZL10_vsnprintfPFvcPvjjEPcjPKcS_+0x4f0>
    8420:	4681                	li	a3,0
    8422:	017a6463          	bltu	s4,s7,842a <_ZL10_vsnprintfPFvcPvjjEPcjPKcS_+0x516>
    8426:	417a06b3          	sub	a3,s4,s7
    842a:	9736                	add	a4,a4,a3
    842c:	8aea                	mv	s5,s10
    842e:	8dba                	mv	s11,a4
    8430:	a8b5                	j	84ac <_ZL10_vsnprintfPFvcPvjjEPcjPKcS_+0x598>
    8432:	d8a7e8e3          	bltu	a5,a0,81c2 <_ZL10_vsnprintfPFvcPvjjEPcjPKcS_+0x2ae>
    8436:	06900793          	li	a5,105
    843a:	fef37313          	andi	t1,t1,-17
    843e:	4829                	li	a6,10
    8440:	d6f519e3          	bne	a0,a5,81b2 <_ZL10_vsnprintfPFvcPvjjEPcjPKcS_+0x29e>
    8444:	40037793          	andi	a5,t1,1024
    8448:	c399                	beqz	a5,844e <_ZL10_vsnprintfPFvcPvjjEPcjPKcS_+0x53a>
    844a:	ffe37313          	andi	t1,t1,-2
    844e:	06900713          	li	a4,105
    8452:	20037793          	andi	a5,t1,512
    8456:	00e50663          	beq	a0,a4,8462 <_ZL10_vsnprintfPFvcPvjjEPcjPKcS_+0x54e>
    845a:	06400713          	li	a4,100
    845e:	dce511e3          	bne	a0,a4,8220 <_ZL10_vsnprintfPFvcPvjjEPcjPKcS_+0x30c>
    8462:	d60789e3          	beqz	a5,81d4 <_ZL10_vsnprintfPFvcPvjjEPcjPKcS_+0x2c0>
    8466:	0a9d                	addi	s5,s5,7
    8468:	ff8afa93          	andi	s5,s5,-8
    846c:	004aa583          	lw	a1,4(s5)
    8470:	000aa683          	lw	a3,0(s5)
    8474:	88c2                	mv	a7,a6
    8476:	41f5d613          	srai	a2,a1,0x1f
    847a:	8eb1                	xor	a3,a3,a2
    847c:	00b647b3          	xor	a5,a2,a1
    8480:	40c68733          	sub	a4,a3,a2
    8484:	00e6b6b3          	sltu	a3,a3,a4
    8488:	8f91                	sub	a5,a5,a2
    848a:	008a8413          	addi	s0,s5,8
    848e:	c61a                	sw	t1,12(sp)
    8490:	c452                	sw	s4,8(sp)
    8492:	c25a                	sw	s6,4(sp)
    8494:	c002                	sw	zero,0(sp)
    8496:	01f5d813          	srli	a6,a1,0x1f
    849a:	8f95                	sub	a5,a5,a3
    849c:	45d2                	lw	a1,20(sp)
    849e:	86ce                	mv	a3,s3
    84a0:	866e                	mv	a2,s11
    84a2:	854a                	mv	a0,s2
    84a4:	926ff0ef          	jal	75ca <_ZL15_ntoa_long_longPFvcPvjjEPcjjybyjjj>
    84a8:	8daa                	mv	s11,a0
    84aa:	8aa2                	mv	s5,s0
    84ac:	0004c503          	lbu	a0,0(s1)
    84b0:	a8051ce3          	bnez	a0,7f48 <_ZL10_vsnprintfPFvcPvjjEPcjPKcS_+0x34>
    84b4:	866e                	mv	a2,s11
    84b6:	013de463          	bltu	s11,s3,84be <_ZL10_vsnprintfPFvcPvjjEPcjPKcS_+0x5aa>
    84ba:	fff98613          	addi	a2,s3,-1
    84be:	45d2                	lw	a1,20(sp)
    84c0:	86ce                	mv	a3,s3
    84c2:	4501                	li	a0,0
    84c4:	9902                	jalr	s2
    84c6:	40f6                	lw	ra,92(sp)
    84c8:	4466                	lw	s0,88(sp)
    84ca:	44d6                	lw	s1,84(sp)
    84cc:	4946                	lw	s2,80(sp)
    84ce:	49b6                	lw	s3,76(sp)
    84d0:	4a26                	lw	s4,72(sp)
    84d2:	4a96                	lw	s5,68(sp)
    84d4:	4b06                	lw	s6,64(sp)
    84d6:	5bf2                	lw	s7,60(sp)
    84d8:	5c62                	lw	s8,56(sp)
    84da:	5cd2                	lw	s9,52(sp)
    84dc:	5d42                	lw	s10,48(sp)
    84de:	856e                	mv	a0,s11
    84e0:	5db2                	lw	s11,44(sp)
    84e2:	6125                	addi	sp,sp,96
    84e4:	8082                	ret

000084e6 <_Z8_putcharc>:
    84e6:	a921                	j	88fe <_Z9uart_putci>

000084e8 <_Z7printf_PKcz>:
    84e8:	7139                	addi	sp,sp,-64
    84ea:	d636                	sw	a3,44(sp)
    84ec:	86aa                	mv	a3,a0
    84ee:	651d                	lui	a0,0x7
    84f0:	d22e                	sw	a1,36(sp)
    84f2:	d432                	sw	a2,40(sp)
    84f4:	d83a                	sw	a4,48(sp)
    84f6:	002c                	addi	a1,sp,8
    84f8:	1058                	addi	a4,sp,36
    84fa:	567d                	li	a2,-1
    84fc:	6b050513          	addi	a0,a0,1712 # 76b0 <_ZL9_out_charcPvjj>
    8500:	ce06                	sw	ra,28(sp)
    8502:	da3e                	sw	a5,52(sp)
    8504:	dc42                	sw	a6,56(sp)
    8506:	de46                	sw	a7,60(sp)
    8508:	c63a                	sw	a4,12(sp)
    850a:	3429                	jal	7f14 <_ZL10_vsnprintfPFvcPvjjEPcjPKcS_>
    850c:	40f2                	lw	ra,28(sp)
    850e:	6121                	addi	sp,sp,64
    8510:	8082                	ret

00008512 <_Z8sprintf_PcPKcz>:
    8512:	7139                	addi	sp,sp,-64
    8514:	d636                	sw	a3,44(sp)
    8516:	86ae                	mv	a3,a1
    8518:	85aa                	mv	a1,a0
    851a:	651d                	lui	a0,0x7
    851c:	d432                	sw	a2,40(sp)
    851e:	d83a                	sw	a4,48(sp)
    8520:	567d                	li	a2,-1
    8522:	1038                	addi	a4,sp,40
    8524:	33850513          	addi	a0,a0,824 # 7338 <_ZL11_out_buffercPvjj>
    8528:	ce06                	sw	ra,28(sp)
    852a:	da3e                	sw	a5,52(sp)
    852c:	dc42                	sw	a6,56(sp)
    852e:	de46                	sw	a7,60(sp)
    8530:	c63a                	sw	a4,12(sp)
    8532:	32cd                	jal	7f14 <_ZL10_vsnprintfPFvcPvjjEPcjPKcS_>
    8534:	40f2                	lw	ra,28(sp)
    8536:	6121                	addi	sp,sp,64
    8538:	8082                	ret

0000853a <_Z9snprintf_PcjPKcz>:
    853a:	7139                	addi	sp,sp,-64
    853c:	d636                	sw	a3,44(sp)
    853e:	86b2                	mv	a3,a2
    8540:	862e                	mv	a2,a1
    8542:	85aa                	mv	a1,a0
    8544:	651d                	lui	a0,0x7
    8546:	d83a                	sw	a4,48(sp)
    8548:	33850513          	addi	a0,a0,824 # 7338 <_ZL11_out_buffercPvjj>
    854c:	1078                	addi	a4,sp,44
    854e:	ce06                	sw	ra,28(sp)
    8550:	da3e                	sw	a5,52(sp)
    8552:	dc42                	sw	a6,56(sp)
    8554:	de46                	sw	a7,60(sp)
    8556:	c63a                	sw	a4,12(sp)
    8558:	3a75                	jal	7f14 <_ZL10_vsnprintfPFvcPvjjEPcjPKcS_>
    855a:	40f2                	lw	ra,28(sp)
    855c:	6121                	addi	sp,sp,64
    855e:	8082                	ret

00008560 <_Z8vprintf_PKcPv>:
    8560:	1101                	addi	sp,sp,-32
    8562:	86aa                	mv	a3,a0
    8564:	651d                	lui	a0,0x7
    8566:	872e                	mv	a4,a1
    8568:	567d                	li	a2,-1
    856a:	006c                	addi	a1,sp,12
    856c:	6b050513          	addi	a0,a0,1712 # 76b0 <_ZL9_out_charcPvjj>
    8570:	ce06                	sw	ra,28(sp)
    8572:	324d                	jal	7f14 <_ZL10_vsnprintfPFvcPvjjEPcjPKcS_>
    8574:	40f2                	lw	ra,28(sp)
    8576:	6105                	addi	sp,sp,32
    8578:	8082                	ret

0000857a <_Z10vsnprintf_PcjPKcPv>:
    857a:	8736                	mv	a4,a3
    857c:	86b2                	mv	a3,a2
    857e:	862e                	mv	a2,a1
    8580:	85aa                	mv	a1,a0
    8582:	651d                	lui	a0,0x7
    8584:	33850513          	addi	a0,a0,824 # 7338 <_ZL11_out_buffercPvjj>
    8588:	b271                	j	7f14 <_ZL10_vsnprintfPFvcPvjjEPcjPKcS_>

0000858a <_Z9fctprintfPFvcPvES_PKcz>:
    858a:	7139                	addi	sp,sp,-64
    858c:	c42a                	sw	a0,8(sp)
    858e:	651d                	lui	a0,0x7
    8590:	d636                	sw	a3,44(sp)
    8592:	d83a                	sw	a4,48(sp)
    8594:	c62e                	sw	a1,12(sp)
    8596:	1078                	addi	a4,sp,44
    8598:	86b2                	mv	a3,a2
    859a:	002c                	addi	a1,sp,8
    859c:	567d                	li	a2,-1
    859e:	6b850513          	addi	a0,a0,1720 # 76b8 <_ZL8_out_fctcPvjj>
    85a2:	ce06                	sw	ra,28(sp)
    85a4:	da3e                	sw	a5,52(sp)
    85a6:	dc42                	sw	a6,56(sp)
    85a8:	de46                	sw	a7,60(sp)
    85aa:	c23a                	sw	a4,4(sp)
    85ac:	32a5                	jal	7f14 <_ZL10_vsnprintfPFvcPvjjEPcjPKcS_>
    85ae:	40f2                	lw	ra,28(sp)
    85b0:	6121                	addi	sp,sp,64
    85b2:	8082                	ret

000085b4 <_Z12test_printf_v>:
    85b4:	10002537          	lui	a0,0x10002
    85b8:	1141                	addi	sp,sp,-16
    85ba:	bec50513          	addi	a0,a0,-1044 # 10001bec <__rodata_start__+0xfff6af4>
    85be:	c606                	sw	ra,12(sp)
    85c0:	3725                	jal	84e8 <_Z7printf_PKcz>
    85c2:	f0000793          	li	a5,-256
    85c6:	100025b7          	lui	a1,0x10002
    85ca:	10002537          	lui	a0,0x10002
    85ce:	873e                	mv	a4,a5
    85d0:	86be                	mv	a3,a5
    85d2:	04800613          	li	a2,72
    85d6:	4801                	li	a6,0
    85d8:	c0058593          	addi	a1,a1,-1024 # 10001c00 <__rodata_start__+0xfff6b08>
    85dc:	c1050513          	addi	a0,a0,-1008 # 10001c10 <__rodata_start__+0xfff6b18>
    85e0:	3721                	jal	84e8 <_Z7printf_PKcz>
    85e2:	1001a7b7          	lui	a5,0x1001a
    85e6:	7e87a703          	lw	a4,2024(a5) # 1001a7e8 <_ZZ23minimum_conv_single_8x8PaS_S_S_aE4Bias+0xa0>
    85ea:	7ec7a783          	lw	a5,2028(a5)
    85ee:	40b2                	lw	ra,12(sp)
    85f0:	10002537          	lui	a0,0x10002
    85f4:	863a                	mv	a2,a4
    85f6:	86be                	mv	a3,a5
    85f8:	c7c50513          	addi	a0,a0,-900 # 10001c7c <__rodata_start__+0xfff6b84>
    85fc:	0141                	addi	sp,sp,16
    85fe:	b5ed                	j	84e8 <_Z7printf_PKcz>

00008600 <_Z16find_right_orderj>:
    8600:	20000713          	li	a4,512
    8604:	87aa                	mv	a5,a0
    8606:	02a77563          	bgeu	a4,a0,8630 <_Z16find_right_orderj+0x30>
    860a:	40000713          	li	a4,1024
    860e:	4505                	li	a0,1
    8610:	02f77163          	bgeu	a4,a5,8632 <_Z16find_right_orderj+0x32>
    8614:	6705                	lui	a4,0x1
    8616:	80070713          	addi	a4,a4,-2048 # 800 <_Z12test_fc_procv+0x278>
    861a:	4509                	li	a0,2
    861c:	00f77b63          	bgeu	a4,a5,8632 <_Z16find_right_orderj+0x32>
    8620:	6705                	lui	a4,0x1
    8622:	00f737b3          	sltu	a5,a4,a5
    8626:	40f007b3          	neg	a5,a5
    862a:	0037e513          	ori	a0,a5,3
    862e:	8082                	ret
    8630:	4501                	li	a0,0
    8632:	8082                	ret

00008634 <_Z22kmem_cache_line_objectPvji>:
    8634:	40000793          	li	a5,1024
    8638:	00c79633          	sll	a2,a5,a2
    863c:	00b50733          	add	a4,a0,a1
    8640:	4781                	li	a5,0
    8642:	86aa                	mv	a3,a0
    8644:	952e                	add	a0,a0,a1
    8646:	00c5e863          	bltu	a1,a2,8656 <_Z22kmem_cache_line_objectPvji+0x22>
    864a:	8d91                	sub	a1,a1,a2
    864c:	0015b593          	seqz	a1,a1
    8650:	00b78533          	add	a0,a5,a1
    8654:	8082                	ret
    8656:	c298                	sw	a4,0(a3)
    8658:	0785                	addi	a5,a5,1
    865a:	972e                	add	a4,a4,a1
    865c:	8e0d                	sub	a2,a2,a1
    865e:	b7d5                	j	8642 <_Z22kmem_cache_line_objectPvji+0xe>

00008660 <_Z17kmem_cache_createP10kmem_cachejj>:
    8660:	1101                	addi	sp,sp,-32
    8662:	cc22                	sw	s0,24(sp)
    8664:	842a                	mv	s0,a0
    8666:	852e                	mv	a0,a1
    8668:	c84a                	sw	s2,16(sp)
    866a:	c64e                	sw	s3,12(sp)
    866c:	ce06                	sw	ra,28(sp)
    866e:	ca26                	sw	s1,20(sp)
    8670:	892e                	mv	s2,a1
    8672:	89b2                	mv	s3,a2
    8674:	3771                	jal	8600 <_Z16find_right_orderj>
    8676:	57fd                	li	a5,-1
    8678:	00f51b63          	bne	a0,a5,868e <_Z17kmem_cache_createP10kmem_cachejj+0x2e>
    867c:	4401                	li	s0,0
    867e:	40f2                	lw	ra,28(sp)
    8680:	8522                	mv	a0,s0
    8682:	4462                	lw	s0,24(sp)
    8684:	44d2                	lw	s1,20(sp)
    8686:	4942                	lw	s2,16(sp)
    8688:	49b2                	lw	s3,12(sp)
    868a:	6105                	addi	sp,sp,32
    868c:	8082                	ret
    868e:	85aa                	mv	a1,a0
    8690:	84aa                	mv	s1,a0
    8692:	4501                	li	a0,0
    8694:	fa4fe0ef          	jal	6e38 <_Z11alloc_pagesji>
    8698:	c808                	sw	a0,16(s0)
    869a:	d16d                	beqz	a0,867c <_Z17kmem_cache_createP10kmem_cachejj+0x1c>
    869c:	f98fe0ef          	jal	6e34 <_Z12page_addressP4page>
    86a0:	cc08                	sw	a0,24(s0)
    86a2:	8626                	mv	a2,s1
    86a4:	85ca                	mv	a1,s2
    86a6:	3779                	jal	8634 <_Z22kmem_cache_line_objectPvji>
    86a8:	4818                	lw	a4,16(s0)
    86aa:	47f1                	li	a5,28
    86ac:	009797b3          	sll	a5,a5,s1
    86b0:	1791                	addi	a5,a5,-28
    86b2:	97ba                	add	a5,a5,a4
    86b4:	c048                	sw	a0,4(s0)
    86b6:	01242023          	sw	s2,0(s0)
    86ba:	c404                	sw	s1,8(s0)
    86bc:	01342623          	sw	s3,12(s0)
    86c0:	c85c                	sw	a5,20(s0)
    86c2:	0007aa23          	sw	zero,20(a5)
    86c6:	bf65                	j	867e <_Z17kmem_cache_createP10kmem_cachejj+0x1e>

000086c8 <_Z18kmem_cache_destroyP10kmem_cache>:
    86c8:	1141                	addi	sp,sp,-16
    86ca:	c04a                	sw	s2,0(sp)
    86cc:	00852903          	lw	s2,8(a0)
    86d0:	c422                	sw	s0,8(sp)
    86d2:	4908                	lw	a0,16(a0)
    86d4:	4471                	li	s0,28
    86d6:	01241433          	sll	s0,s0,s2
    86da:	c606                	sw	ra,12(sp)
    86dc:	c226                	sw	s1,4(sp)
    86de:	1411                	addi	s0,s0,-28
    86e0:	008507b3          	add	a5,a0,s0
    86e4:	4bc4                	lw	s1,20(a5)
    86e6:	85ca                	mv	a1,s2
    86e8:	f84fe0ef          	jal	6e6c <_Z10free_pagesP4pagei>
    86ec:	c481                	beqz	s1,86f4 <_Z18kmem_cache_destroyP10kmem_cache+0x2c>
    86ee:	fec48513          	addi	a0,s1,-20
    86f2:	b7fd                	j	86e0 <_Z18kmem_cache_destroyP10kmem_cache+0x18>
    86f4:	40b2                	lw	ra,12(sp)
    86f6:	4422                	lw	s0,8(sp)
    86f8:	4492                	lw	s1,4(sp)
    86fa:	4902                	lw	s2,0(sp)
    86fc:	0141                	addi	sp,sp,16
    86fe:	8082                	ret

00008700 <_Z15kmem_cache_freeP10kmem_cachePv>:
    8700:	4d1c                	lw	a5,24(a0)
    8702:	c19c                	sw	a5,0(a1)
    8704:	415c                	lw	a5,4(a0)
    8706:	cd0c                	sw	a1,24(a0)
    8708:	0785                	addi	a5,a5,1
    870a:	c15c                	sw	a5,4(a0)
    870c:	8082                	ret

0000870e <_Z16kmem_cache_allocP10kmem_cachej>:
    870e:	1141                	addi	sp,sp,-16
    8710:	c606                	sw	ra,12(sp)
    8712:	c422                	sw	s0,8(sp)
    8714:	c226                	sw	s1,4(sp)
    8716:	c04a                	sw	s2,0(sp)
    8718:	e909                	bnez	a0,872a <_Z16kmem_cache_allocP10kmem_cachej+0x1c>
    871a:	4481                	li	s1,0
    871c:	40b2                	lw	ra,12(sp)
    871e:	4422                	lw	s0,8(sp)
    8720:	4902                	lw	s2,0(sp)
    8722:	8526                	mv	a0,s1
    8724:	4492                	lw	s1,4(sp)
    8726:	0141                	addi	sp,sp,16
    8728:	8082                	ret
    872a:	842a                	mv	s0,a0
    872c:	4148                	lw	a0,4(a0)
    872e:	ed0d                	bnez	a0,8768 <_Z16kmem_cache_allocP10kmem_cachej+0x5a>
    8730:	00842903          	lw	s2,8(s0)
    8734:	85ca                	mv	a1,s2
    8736:	f02fe0ef          	jal	6e38 <_Z11alloc_pagesji>
    873a:	84aa                	mv	s1,a0
    873c:	dd79                	beqz	a0,871a <_Z16kmem_cache_allocP10kmem_cachej+0xc>
    873e:	ef6fe0ef          	jal	6e34 <_Z12page_addressP4page>
    8742:	485c                	lw	a5,20(s0)
    8744:	cc08                	sw	a0,24(s0)
    8746:	01448713          	addi	a4,s1,20
    874a:	cbd8                	sw	a4,20(a5)
    874c:	47f1                	li	a5,28
    874e:	012797b3          	sll	a5,a5,s2
    8752:	1791                	addi	a5,a5,-28
    8754:	94be                	add	s1,s1,a5
    8756:	c844                	sw	s1,20(s0)
    8758:	0004aa23          	sw	zero,20(s1)
    875c:	400c                	lw	a1,0(s0)
    875e:	4c08                	lw	a0,24(s0)
    8760:	864a                	mv	a2,s2
    8762:	3dc9                	jal	8634 <_Z22kmem_cache_line_objectPvji>
    8764:	405c                	lw	a5,4(s0)
    8766:	953e                	add	a0,a0,a5
    8768:	4c04                	lw	s1,24(s0)
    876a:	157d                	addi	a0,a0,-1
    876c:	c048                	sw	a0,4(s0)
    876e:	409c                	lw	a5,0(s1)
    8770:	8526                	mv	a0,s1
    8772:	cc1c                	sw	a5,24(s0)
    8774:	ceefe0ef          	jal	6c62 <_Z12virt_to_pagej>
    8778:	c900                	sw	s0,16(a0)
    877a:	b74d                	j	871c <_Z16kmem_cache_allocP10kmem_cachej+0xe>

0000877c <_Z12kmalloc_initv>:
    877c:	7139                	addi	sp,sp,-64
    877e:	dc22                	sw	s0,56(sp)
    8780:	1001d437          	lui	s0,0x1001d
    8784:	da26                	sw	s1,52(sp)
    8786:	d84a                	sw	s2,48(sp)
    8788:	d64e                	sw	s3,44(sp)
    878a:	d452                	sw	s4,40(sp)
    878c:	d256                	sw	s5,36(sp)
    878e:	d05a                	sw	s6,32(sp)
    8790:	ce5e                	sw	s7,28(sp)
    8792:	de06                	sw	ra,60(sp)
    8794:	2e840413          	addi	s0,s0,744 # 1001d2e8 <kmalloc_cache>
    8798:	44c1                	li	s1,16
    879a:	10002bb7          	lui	s7,0x10002
    879e:	10002b37          	lui	s6,0x10002
    87a2:	10000ab7          	lui	s5,0x10000
    87a6:	10002a37          	lui	s4,0x10002
    87aa:	100009b7          	lui	s3,0x10000
    87ae:	11000913          	li	s2,272
    87b2:	4601                	li	a2,0
    87b4:	85a6                	mv	a1,s1
    87b6:	8522                	mv	a0,s0
    87b8:	3565                	jal	8660 <_Z17kmem_cache_createP10kmem_cachejj>
    87ba:	c939                	beqz	a0,8810 <_Z12kmalloc_initv+0x94>
    87bc:	09300693          	li	a3,147
    87c0:	ca4b8613          	addi	a2,s7,-860 # 10001ca4 <__rodata_start__+0xfff6bac>
    87c4:	cb4b0593          	addi	a1,s6,-844 # 10001cb4 <__rodata_start__+0xfff6bbc>
    87c8:	020a8513          	addi	a0,s5,32 # 10000020 <__rodata_start__+0xfff4f28>
    87cc:	d1dff0ef          	jal	84e8 <_Z7printf_PKcz>
    87d0:	440c                	lw	a1,8(s0)
    87d2:	4808                	lw	a0,16(s0)
    87d4:	04c1                	addi	s1,s1,16
    87d6:	c62e                	sw	a1,12(sp)
    87d8:	e5cfe0ef          	jal	6e34 <_Z12page_addressP4page>
    87dc:	4014                	lw	a3,0(s0)
    87de:	45b2                	lw	a1,12(sp)
    87e0:	862a                	mv	a2,a0
    87e2:	cf0a0513          	addi	a0,s4,-784 # 10001cf0 <__rodata_start__+0xfff6bf8>
    87e6:	d03ff0ef          	jal	84e8 <_Z7printf_PKcz>
    87ea:	05898513          	addi	a0,s3,88 # 10000058 <__rodata_start__+0xfff4f60>
    87ee:	cfbff0ef          	jal	84e8 <_Z7printf_PKcz>
    87f2:	0471                	addi	s0,s0,28
    87f4:	fb249fe3          	bne	s1,s2,87b2 <_Z12kmalloc_initv+0x36>
    87f8:	4501                	li	a0,0
    87fa:	50f2                	lw	ra,60(sp)
    87fc:	5462                	lw	s0,56(sp)
    87fe:	54d2                	lw	s1,52(sp)
    8800:	5942                	lw	s2,48(sp)
    8802:	59b2                	lw	s3,44(sp)
    8804:	5a22                	lw	s4,40(sp)
    8806:	5a92                	lw	s5,36(sp)
    8808:	5b02                	lw	s6,32(sp)
    880a:	4bf2                	lw	s7,28(sp)
    880c:	6121                	addi	sp,sp,64
    880e:	8082                	ret
    8810:	557d                	li	a0,-1
    8812:	b7e5                	j	87fa <_Z12kmalloc_initv+0x7e>

00008814 <_Z7kmallocj>:
    8814:	1101                	addi	sp,sp,-32
    8816:	c84a                	sw	s2,16(sp)
    8818:	47f1                	li	a5,28
    881a:	00455913          	srli	s2,a0,0x4
    881e:	02f907b3          	mul	a5,s2,a5
    8822:	cc22                	sw	s0,24(sp)
    8824:	1001d437          	lui	s0,0x1001d
    8828:	2e840413          	addi	s0,s0,744 # 1001d2e8 <kmalloc_cache>
    882c:	4581                	li	a1,0
    882e:	ca26                	sw	s1,20(sp)
    8830:	ce06                	sw	ra,28(sp)
    8832:	c64e                	sw	s3,12(sp)
    8834:	c452                	sw	s4,8(sp)
    8836:	c256                	sw	s5,4(sp)
    8838:	943e                	add	s0,s0,a5
    883a:	8522                	mv	a0,s0
    883c:	3dc9                	jal	870e <_Z16kmem_cache_allocP10kmem_cachej>
    883e:	47bd                	li	a5,15
    8840:	4481                	li	s1,0
    8842:	0927ea63          	bltu	a5,s2,88d6 <_Z7kmallocj+0xc2>
    8846:	10002ab7          	lui	s5,0x10002
    884a:	10002a37          	lui	s4,0x10002
    884e:	100009b7          	lui	s3,0x10000
    8852:	0a100693          	li	a3,161
    8856:	d14a8613          	addi	a2,s5,-748 # 10001d14 <__rodata_start__+0xfff6c1c>
    885a:	84aa                	mv	s1,a0
    885c:	cb4a0593          	addi	a1,s4,-844 # 10001cb4 <__rodata_start__+0xfff6bbc>
    8860:	02098513          	addi	a0,s3,32 # 10000020 <__rodata_start__+0xfff4f28>
    8864:	c85ff0ef          	jal	84e8 <_Z7printf_PKcz>
    8868:	440c                	lw	a1,8(s0)
    886a:	10002537          	lui	a0,0x10002
    886e:	d1c50513          	addi	a0,a0,-740 # 10001d1c <__rodata_start__+0xfff6c24>
    8872:	c77ff0ef          	jal	84e8 <_Z7printf_PKcz>
    8876:	10000937          	lui	s2,0x10000
    887a:	05890513          	addi	a0,s2,88 # 10000058 <__rodata_start__+0xfff4f60>
    887e:	c6bff0ef          	jal	84e8 <_Z7printf_PKcz>
    8882:	0a200693          	li	a3,162
    8886:	d14a8613          	addi	a2,s5,-748
    888a:	cb4a0593          	addi	a1,s4,-844
    888e:	02098513          	addi	a0,s3,32
    8892:	c57ff0ef          	jal	84e8 <_Z7printf_PKcz>
    8896:	400c                	lw	a1,0(s0)
    8898:	10002537          	lui	a0,0x10002
    889c:	d2c50513          	addi	a0,a0,-724 # 10001d2c <__rodata_start__+0xfff6c34>
    88a0:	c49ff0ef          	jal	84e8 <_Z7printf_PKcz>
    88a4:	05890513          	addi	a0,s2,88
    88a8:	c41ff0ef          	jal	84e8 <_Z7printf_PKcz>
    88ac:	0a300693          	li	a3,163
    88b0:	d14a8613          	addi	a2,s5,-748
    88b4:	cb4a0593          	addi	a1,s4,-844
    88b8:	02098513          	addi	a0,s3,32
    88bc:	c2dff0ef          	jal	84e8 <_Z7printf_PKcz>
    88c0:	10002537          	lui	a0,0x10002
    88c4:	85a6                	mv	a1,s1
    88c6:	d3c50513          	addi	a0,a0,-708 # 10001d3c <__rodata_start__+0xfff6c44>
    88ca:	c1fff0ef          	jal	84e8 <_Z7printf_PKcz>
    88ce:	05890513          	addi	a0,s2,88
    88d2:	c17ff0ef          	jal	84e8 <_Z7printf_PKcz>
    88d6:	40f2                	lw	ra,28(sp)
    88d8:	4462                	lw	s0,24(sp)
    88da:	4942                	lw	s2,16(sp)
    88dc:	49b2                	lw	s3,12(sp)
    88de:	4a22                	lw	s4,8(sp)
    88e0:	4a92                	lw	s5,4(sp)
    88e2:	8526                	mv	a0,s1
    88e4:	44d2                	lw	s1,20(sp)
    88e6:	6105                	addi	sp,sp,32
    88e8:	8082                	ret

000088ea <_Z5kfreePv>:
    88ea:	1101                	addi	sp,sp,-32
    88ec:	ce06                	sw	ra,28(sp)
    88ee:	c62a                	sw	a0,12(sp)
    88f0:	b72fe0ef          	jal	6c62 <_Z12virt_to_pagej>
    88f4:	45b2                	lw	a1,12(sp)
    88f6:	40f2                	lw	ra,28(sp)
    88f8:	4908                	lw	a0,16(a0)
    88fa:	6105                	addi	sp,sp,32
    88fc:	b511                	j	8700 <_Z15kmem_cache_freeP10kmem_cachePv>

000088fe <_Z9uart_putci>:
    88fe:	200007b7          	lui	a5,0x20000
    8902:	c3c8                	sw	a0,4(a5)
    8904:	8082                	ret

00008906 <_Z9uart_putsPc>:
    8906:	200007b7          	lui	a5,0x20000
    890a:	0791                	addi	a5,a5,4 # 20000004 <linker_stack_start+0xffd0014>
    890c:	00054703          	lbu	a4,0(a0)
    8910:	e311                	bnez	a4,8914 <_Z9uart_putsPc+0xe>
    8912:	8082                	ret
    8914:	0505                	addi	a0,a0,1
    8916:	c398                	sw	a4,0(a5)
    8918:	bfd5                	j	890c <_Z9uart_putsPc+0x6>

0000891a <__udivdi3>:
    891a:	8832                	mv	a6,a2
    891c:	88aa                	mv	a7,a0
    891e:	872e                	mv	a4,a1
    8920:	ead5                	bnez	a3,89d4 <__udivdi3+0xba>
    8922:	0ec5ff63          	bgeu	a1,a2,8a20 <__udivdi3+0x106>
    8926:	67c1                	lui	a5,0x10
    8928:	18f66c63          	bltu	a2,a5,8ac0 <__udivdi3+0x1a6>
    892c:	010007b7          	lui	a5,0x1000
    8930:	46e1                	li	a3,24
    8932:	00f67363          	bgeu	a2,a5,8938 <__udivdi3+0x1e>
    8936:	46c1                	li	a3,16
    8938:	00d65333          	srl	t1,a2,a3
    893c:	10014797          	auipc	a5,0x10014
    8940:	6f87a783          	lw	a5,1784(a5) # 1001d034 <_GLOBAL_OFFSET_TABLE_+0x4>
    8944:	979a                	add	a5,a5,t1
    8946:	0007c783          	lbu	a5,0(a5)
    894a:	02000313          	li	t1,32
    894e:	97b6                	add	a5,a5,a3
    8950:	40f306b3          	sub	a3,t1,a5
    8954:	00f30b63          	beq	t1,a5,896a <__udivdi3+0x50>
    8958:	00d59733          	sll	a4,a1,a3
    895c:	00f557b3          	srl	a5,a0,a5
    8960:	8f5d                	or	a4,a4,a5
    8962:	00d61833          	sll	a6,a2,a3
    8966:	00d518b3          	sll	a7,a0,a3
    896a:	01085613          	srli	a2,a6,0x10
    896e:	02c75533          	divu	a0,a4,a2
    8972:	01081693          	slli	a3,a6,0x10
    8976:	82c1                	srli	a3,a3,0x10
    8978:	0108d793          	srli	a5,a7,0x10
    897c:	02c77733          	remu	a4,a4,a2
    8980:	02a685b3          	mul	a1,a3,a0
    8984:	0742                	slli	a4,a4,0x10
    8986:	8fd9                	or	a5,a5,a4
    8988:	00b7fa63          	bgeu	a5,a1,899c <__udivdi3+0x82>
    898c:	97c2                	add	a5,a5,a6
    898e:	fff50713          	addi	a4,a0,-1
    8992:	0107e463          	bltu	a5,a6,899a <__udivdi3+0x80>
    8996:	30b7ee63          	bltu	a5,a1,8cb2 <__udivdi3+0x398>
    899a:	853a                	mv	a0,a4
    899c:	8f8d                	sub	a5,a5,a1
    899e:	02c7d733          	divu	a4,a5,a2
    89a2:	08c2                	slli	a7,a7,0x10
    89a4:	0108d893          	srli	a7,a7,0x10
    89a8:	02c7f7b3          	remu	a5,a5,a2
    89ac:	02e686b3          	mul	a3,a3,a4
    89b0:	07c2                	slli	a5,a5,0x10
    89b2:	00f8e8b3          	or	a7,a7,a5
    89b6:	00d8fb63          	bgeu	a7,a3,89cc <__udivdi3+0xb2>
    89ba:	98c2                	add	a7,a7,a6
    89bc:	fff70793          	addi	a5,a4,-1 # fff <_Z21minimum_matmul_singlePaS_S_+0x1d>
    89c0:	0108e563          	bltu	a7,a6,89ca <__udivdi3+0xb0>
    89c4:	1779                	addi	a4,a4,-2
    89c6:	00d8e363          	bltu	a7,a3,89cc <__udivdi3+0xb2>
    89ca:	873e                	mv	a4,a5
    89cc:	0542                	slli	a0,a0,0x10
    89ce:	8d59                	or	a0,a0,a4
    89d0:	4581                	li	a1,0
    89d2:	8082                	ret
    89d4:	00d5f563          	bgeu	a1,a3,89de <__udivdi3+0xc4>
    89d8:	4581                	li	a1,0
    89da:	4501                	li	a0,0
    89dc:	8082                	ret
    89de:	67c1                	lui	a5,0x10
    89e0:	18f6e863          	bltu	a3,a5,8b70 <__udivdi3+0x256>
    89e4:	01000737          	lui	a4,0x1000
    89e8:	47e1                	li	a5,24
    89ea:	00e6f363          	bgeu	a3,a4,89f0 <__udivdi3+0xd6>
    89ee:	47c1                	li	a5,16
    89f0:	00f6d833          	srl	a6,a3,a5
    89f4:	10014717          	auipc	a4,0x10014
    89f8:	64072703          	lw	a4,1600(a4) # 1001d034 <_GLOBAL_OFFSET_TABLE_+0x4>
    89fc:	9742                	add	a4,a4,a6
    89fe:	00074703          	lbu	a4,0(a4)
    8a02:	02000813          	li	a6,32
    8a06:	973e                	add	a4,a4,a5
    8a08:	40e808b3          	sub	a7,a6,a4
    8a0c:	18e81763          	bne	a6,a4,8b9a <__udivdi3+0x280>
    8a10:	28b6e363          	bltu	a3,a1,8c96 <__udivdi3+0x37c>
    8a14:	00c53533          	sltu	a0,a0,a2
    8a18:	00153513          	seqz	a0,a0
    8a1c:	4581                	li	a1,0
    8a1e:	8082                	ret
    8a20:	c655                	beqz	a2,8acc <__udivdi3+0x1b2>
    8a22:	67c1                	lui	a5,0x10
    8a24:	26f67163          	bgeu	a2,a5,8c86 <__udivdi3+0x36c>
    8a28:	10063713          	sltiu	a4,a2,256
    8a2c:	00173713          	seqz	a4,a4
    8a30:	070e                	slli	a4,a4,0x3
    8a32:	00e656b3          	srl	a3,a2,a4
    8a36:	10014797          	auipc	a5,0x10014
    8a3a:	5fe7a783          	lw	a5,1534(a5) # 1001d034 <_GLOBAL_OFFSET_TABLE_+0x4>
    8a3e:	97b6                	add	a5,a5,a3
    8a40:	0007c783          	lbu	a5,0(a5)
    8a44:	02000693          	li	a3,32
    8a48:	97ba                	add	a5,a5,a4
    8a4a:	40f68eb3          	sub	t4,a3,a5
    8a4e:	08f69f63          	bne	a3,a5,8aec <__udivdi3+0x1d2>
    8a52:	40c587b3          	sub	a5,a1,a2
    8a56:	01065693          	srli	a3,a2,0x10
    8a5a:	0642                	slli	a2,a2,0x10
    8a5c:	8241                	srli	a2,a2,0x10
    8a5e:	4585                	li	a1,1
    8a60:	02d7d533          	divu	a0,a5,a3
    8a64:	0108d713          	srli	a4,a7,0x10
    8a68:	02d7f7b3          	remu	a5,a5,a3
    8a6c:	02c50333          	mul	t1,a0,a2
    8a70:	07c2                	slli	a5,a5,0x10
    8a72:	8fd9                	or	a5,a5,a4
    8a74:	0067fa63          	bgeu	a5,t1,8a88 <__udivdi3+0x16e>
    8a78:	97c2                	add	a5,a5,a6
    8a7a:	fff50713          	addi	a4,a0,-1
    8a7e:	0107e463          	bltu	a5,a6,8a86 <__udivdi3+0x16c>
    8a82:	2267e563          	bltu	a5,t1,8cac <__udivdi3+0x392>
    8a86:	853a                	mv	a0,a4
    8a88:	406787b3          	sub	a5,a5,t1
    8a8c:	02d7d733          	divu	a4,a5,a3
    8a90:	08c2                	slli	a7,a7,0x10
    8a92:	0108d893          	srli	a7,a7,0x10
    8a96:	02d7f7b3          	remu	a5,a5,a3
    8a9a:	02c70633          	mul	a2,a4,a2
    8a9e:	07c2                	slli	a5,a5,0x10
    8aa0:	00f8e8b3          	or	a7,a7,a5
    8aa4:	00c8fb63          	bgeu	a7,a2,8aba <__udivdi3+0x1a0>
    8aa8:	98c2                	add	a7,a7,a6
    8aaa:	fff70793          	addi	a5,a4,-1
    8aae:	0108e563          	bltu	a7,a6,8ab8 <__udivdi3+0x19e>
    8ab2:	1779                	addi	a4,a4,-2
    8ab4:	00c8e363          	bltu	a7,a2,8aba <__udivdi3+0x1a0>
    8ab8:	873e                	mv	a4,a5
    8aba:	0542                	slli	a0,a0,0x10
    8abc:	8d59                	or	a0,a0,a4
    8abe:	8082                	ret
    8ac0:	10063693          	sltiu	a3,a2,256
    8ac4:	0016b693          	seqz	a3,a3
    8ac8:	068e                	slli	a3,a3,0x3
    8aca:	b5bd                	j	8938 <__udivdi3+0x1e>
    8acc:	4681                	li	a3,0
    8ace:	10014797          	auipc	a5,0x10014
    8ad2:	5667a783          	lw	a5,1382(a5) # 1001d034 <_GLOBAL_OFFSET_TABLE_+0x4>
    8ad6:	97b6                	add	a5,a5,a3
    8ad8:	0007c783          	lbu	a5,0(a5)
    8adc:	4701                	li	a4,0
    8ade:	02000693          	li	a3,32
    8ae2:	97ba                	add	a5,a5,a4
    8ae4:	40f68eb3          	sub	t4,a3,a5
    8ae8:	f6f685e3          	beq	a3,a5,8a52 <__udivdi3+0x138>
    8aec:	01d61833          	sll	a6,a2,t4
    8af0:	00f5d333          	srl	t1,a1,a5
    8af4:	01085693          	srli	a3,a6,0x10
    8af8:	02d35e33          	divu	t3,t1,a3
    8afc:	01081613          	slli	a2,a6,0x10
    8b00:	01d595b3          	sll	a1,a1,t4
    8b04:	8241                	srli	a2,a2,0x10
    8b06:	00f557b3          	srl	a5,a0,a5
    8b0a:	8fcd                	or	a5,a5,a1
    8b0c:	0107d713          	srli	a4,a5,0x10
    8b10:	01d518b3          	sll	a7,a0,t4
    8b14:	02d37333          	remu	t1,t1,a3
    8b18:	03c605b3          	mul	a1,a2,t3
    8b1c:	0342                	slli	t1,t1,0x10
    8b1e:	00676733          	or	a4,a4,t1
    8b22:	00b77b63          	bgeu	a4,a1,8b38 <__udivdi3+0x21e>
    8b26:	9742                	add	a4,a4,a6
    8b28:	fffe0513          	addi	a0,t3,-1
    8b2c:	17076c63          	bltu	a4,a6,8ca4 <__udivdi3+0x38a>
    8b30:	16b77a63          	bgeu	a4,a1,8ca4 <__udivdi3+0x38a>
    8b34:	1e79                	addi	t3,t3,-2
    8b36:	9742                	add	a4,a4,a6
    8b38:	8f0d                	sub	a4,a4,a1
    8b3a:	02d75533          	divu	a0,a4,a3
    8b3e:	07c2                	slli	a5,a5,0x10
    8b40:	83c1                	srli	a5,a5,0x10
    8b42:	02d77733          	remu	a4,a4,a3
    8b46:	02a60333          	mul	t1,a2,a0
    8b4a:	0742                	slli	a4,a4,0x10
    8b4c:	8fd9                	or	a5,a5,a4
    8b4e:	0067fb63          	bgeu	a5,t1,8b64 <__udivdi3+0x24a>
    8b52:	97c2                	add	a5,a5,a6
    8b54:	fff50713          	addi	a4,a0,-1
    8b58:	1507e263          	bltu	a5,a6,8c9c <__udivdi3+0x382>
    8b5c:	1467f063          	bgeu	a5,t1,8c9c <__udivdi3+0x382>
    8b60:	1579                	addi	a0,a0,-2
    8b62:	97c2                	add	a5,a5,a6
    8b64:	010e1593          	slli	a1,t3,0x10
    8b68:	8dc9                	or	a1,a1,a0
    8b6a:	406787b3          	sub	a5,a5,t1
    8b6e:	bdcd                	j	8a60 <__udivdi3+0x146>
    8b70:	1006b793          	sltiu	a5,a3,256
    8b74:	0017b793          	seqz	a5,a5
    8b78:	078e                	slli	a5,a5,0x3
    8b7a:	00f6d833          	srl	a6,a3,a5
    8b7e:	10014717          	auipc	a4,0x10014
    8b82:	4b672703          	lw	a4,1206(a4) # 1001d034 <_GLOBAL_OFFSET_TABLE_+0x4>
    8b86:	9742                	add	a4,a4,a6
    8b88:	00074703          	lbu	a4,0(a4)
    8b8c:	02000813          	li	a6,32
    8b90:	973e                	add	a4,a4,a5
    8b92:	40e808b3          	sub	a7,a6,a4
    8b96:	e6e80de3          	beq	a6,a4,8a10 <__udivdi3+0xf6>
    8b9a:	00e65e33          	srl	t3,a2,a4
    8b9e:	011696b3          	sll	a3,a3,a7
    8ba2:	00de6e33          	or	t3,t3,a3
    8ba6:	00e5d833          	srl	a6,a1,a4
    8baa:	010e5e93          	srli	t4,t3,0x10
    8bae:	03d857b3          	divu	a5,a6,t4
    8bb2:	010e1313          	slli	t1,t3,0x10
    8bb6:	011595b3          	sll	a1,a1,a7
    8bba:	01035313          	srli	t1,t1,0x10
    8bbe:	00e55733          	srl	a4,a0,a4
    8bc2:	8f4d                	or	a4,a4,a1
    8bc4:	01075693          	srli	a3,a4,0x10
    8bc8:	01161633          	sll	a2,a2,a7
    8bcc:	03d87833          	remu	a6,a6,t4
    8bd0:	02f305b3          	mul	a1,t1,a5
    8bd4:	0842                	slli	a6,a6,0x10
    8bd6:	0106e6b3          	or	a3,a3,a6
    8bda:	00b6fb63          	bgeu	a3,a1,8bf0 <__udivdi3+0x2d6>
    8bde:	96f2                	add	a3,a3,t3
    8be0:	fff78813          	addi	a6,a5,-1
    8be4:	0dc6e263          	bltu	a3,t3,8ca8 <__udivdi3+0x38e>
    8be8:	0cb6f063          	bgeu	a3,a1,8ca8 <__udivdi3+0x38e>
    8bec:	17f9                	addi	a5,a5,-2
    8bee:	96f2                	add	a3,a3,t3
    8bf0:	8e8d                	sub	a3,a3,a1
    8bf2:	03d6d833          	divu	a6,a3,t4
    8bf6:	0742                	slli	a4,a4,0x10
    8bf8:	8341                	srli	a4,a4,0x10
    8bfa:	03d6f6b3          	remu	a3,a3,t4
    8bfe:	030305b3          	mul	a1,t1,a6
    8c02:	06c2                	slli	a3,a3,0x10
    8c04:	8f55                	or	a4,a4,a3
    8c06:	00b77b63          	bgeu	a4,a1,8c1c <__udivdi3+0x302>
    8c0a:	9772                	add	a4,a4,t3
    8c0c:	fff80693          	addi	a3,a6,-1
    8c10:	09c76863          	bltu	a4,t3,8ca0 <__udivdi3+0x386>
    8c14:	08b77663          	bgeu	a4,a1,8ca0 <__udivdi3+0x386>
    8c18:	1879                	addi	a6,a6,-2
    8c1a:	9772                	add	a4,a4,t3
    8c1c:	07c2                	slli	a5,a5,0x10
    8c1e:	01081693          	slli	a3,a6,0x10
    8c22:	01061313          	slli	t1,a2,0x10
    8c26:	0107e7b3          	or	a5,a5,a6
    8c2a:	82c1                	srli	a3,a3,0x10
    8c2c:	01035313          	srli	t1,t1,0x10
    8c30:	0107d813          	srli	a6,a5,0x10
    8c34:	8241                	srli	a2,a2,0x10
    8c36:	02680e33          	mul	t3,a6,t1
    8c3a:	8f0d                	sub	a4,a4,a1
    8c3c:	02668333          	mul	t1,a3,t1
    8c40:	02c686b3          	mul	a3,a3,a2
    8c44:	01035593          	srli	a1,t1,0x10
    8c48:	96f2                	add	a3,a3,t3
    8c4a:	96ae                	add	a3,a3,a1
    8c4c:	02c80833          	mul	a6,a6,a2
    8c50:	01c6f463          	bgeu	a3,t3,8c58 <__udivdi3+0x33e>
    8c54:	6641                	lui	a2,0x10
    8c56:	9832                	add	a6,a6,a2
    8c58:	0106d613          	srli	a2,a3,0x10
    8c5c:	9642                	add	a2,a2,a6
    8c5e:	02c76063          	bltu	a4,a2,8c7e <__udivdi3+0x364>
    8c62:	00c70563          	beq	a4,a2,8c6c <__udivdi3+0x352>
    8c66:	853e                	mv	a0,a5
    8c68:	4581                	li	a1,0
    8c6a:	8082                	ret
    8c6c:	0342                	slli	t1,t1,0x10
    8c6e:	01035313          	srli	t1,t1,0x10
    8c72:	06c2                	slli	a3,a3,0x10
    8c74:	01151533          	sll	a0,a0,a7
    8c78:	969a                	add	a3,a3,t1
    8c7a:	fed576e3          	bgeu	a0,a3,8c66 <__udivdi3+0x34c>
    8c7e:	fff78513          	addi	a0,a5,-1
    8c82:	4581                	li	a1,0
    8c84:	8082                	ret
    8c86:	010007b7          	lui	a5,0x1000
    8c8a:	02f67763          	bgeu	a2,a5,8cb8 <__udivdi3+0x39e>
    8c8e:	01065693          	srli	a3,a2,0x10
    8c92:	4741                	li	a4,16
    8c94:	b34d                	j	8a36 <__udivdi3+0x11c>
    8c96:	4581                	li	a1,0
    8c98:	4505                	li	a0,1
    8c9a:	8082                	ret
    8c9c:	853a                	mv	a0,a4
    8c9e:	b5d9                	j	8b64 <__udivdi3+0x24a>
    8ca0:	8836                	mv	a6,a3
    8ca2:	bfad                	j	8c1c <__udivdi3+0x302>
    8ca4:	8e2a                	mv	t3,a0
    8ca6:	bd49                	j	8b38 <__udivdi3+0x21e>
    8ca8:	87c2                	mv	a5,a6
    8caa:	b799                	j	8bf0 <__udivdi3+0x2d6>
    8cac:	1579                	addi	a0,a0,-2
    8cae:	97c2                	add	a5,a5,a6
    8cb0:	bbe1                	j	8a88 <__udivdi3+0x16e>
    8cb2:	1579                	addi	a0,a0,-2
    8cb4:	97c2                	add	a5,a5,a6
    8cb6:	b1dd                	j	899c <__udivdi3+0x82>
    8cb8:	01865693          	srli	a3,a2,0x18
    8cbc:	4761                	li	a4,24
    8cbe:	bba5                	j	8a36 <__udivdi3+0x11c>

00008cc0 <__umoddi3>:
    8cc0:	8832                	mv	a6,a2
    8cc2:	88aa                	mv	a7,a0
    8cc4:	87ae                	mv	a5,a1
    8cc6:	872e                	mv	a4,a1
    8cc8:	e6cd                	bnez	a3,8d72 <__umoddi3+0xb2>
    8cca:	0ec5ff63          	bgeu	a1,a2,8dc8 <__umoddi3+0x108>
    8cce:	67c1                	lui	a5,0x10
    8cd0:	18f66263          	bltu	a2,a5,8e54 <__umoddi3+0x194>
    8cd4:	010007b7          	lui	a5,0x1000
    8cd8:	46e1                	li	a3,24
    8cda:	00f67363          	bgeu	a2,a5,8ce0 <__umoddi3+0x20>
    8cde:	46c1                	li	a3,16
    8ce0:	00d65333          	srl	t1,a2,a3
    8ce4:	10014797          	auipc	a5,0x10014
    8ce8:	3507a783          	lw	a5,848(a5) # 1001d034 <_GLOBAL_OFFSET_TABLE_+0x4>
    8cec:	979a                	add	a5,a5,t1
    8cee:	0007c783          	lbu	a5,0(a5)
    8cf2:	02000313          	li	t1,32
    8cf6:	97b6                	add	a5,a5,a3
    8cf8:	40f306b3          	sub	a3,t1,a5
    8cfc:	00f30b63          	beq	t1,a5,8d12 <__umoddi3+0x52>
    8d00:	00d59733          	sll	a4,a1,a3
    8d04:	00f557b3          	srl	a5,a0,a5
    8d08:	8f5d                	or	a4,a4,a5
    8d0a:	00d61833          	sll	a6,a2,a3
    8d0e:	00d518b3          	sll	a7,a0,a3
    8d12:	01085593          	srli	a1,a6,0x10
    8d16:	02b75633          	divu	a2,a4,a1
    8d1a:	01081313          	slli	t1,a6,0x10
    8d1e:	01035313          	srli	t1,t1,0x10
    8d22:	0108d793          	srli	a5,a7,0x10
    8d26:	02b77733          	remu	a4,a4,a1
    8d2a:	02660633          	mul	a2,a2,t1
    8d2e:	0742                	slli	a4,a4,0x10
    8d30:	8fd9                	or	a5,a5,a4
    8d32:	00c7f763          	bgeu	a5,a2,8d40 <__umoddi3+0x80>
    8d36:	97c2                	add	a5,a5,a6
    8d38:	0107e463          	bltu	a5,a6,8d40 <__umoddi3+0x80>
    8d3c:	30c7e363          	bltu	a5,a2,9042 <__umoddi3+0x382>
    8d40:	8f91                	sub	a5,a5,a2
    8d42:	02b7d733          	divu	a4,a5,a1
    8d46:	01089513          	slli	a0,a7,0x10
    8d4a:	8141                	srli	a0,a0,0x10
    8d4c:	02b7f7b3          	remu	a5,a5,a1
    8d50:	02670733          	mul	a4,a4,t1
    8d54:	07c2                	slli	a5,a5,0x10
    8d56:	8d5d                	or	a0,a0,a5
    8d58:	00e57863          	bgeu	a0,a4,8d68 <__umoddi3+0xa8>
    8d5c:	9542                	add	a0,a0,a6
    8d5e:	01056563          	bltu	a0,a6,8d68 <__umoddi3+0xa8>
    8d62:	00e57363          	bgeu	a0,a4,8d68 <__umoddi3+0xa8>
    8d66:	9542                	add	a0,a0,a6
    8d68:	8d19                	sub	a0,a0,a4
    8d6a:	00d55533          	srl	a0,a0,a3
    8d6e:	4581                	li	a1,0
    8d70:	8082                	ret
    8d72:	00d5f363          	bgeu	a1,a3,8d78 <__umoddi3+0xb8>
    8d76:	8082                	ret
    8d78:	6741                	lui	a4,0x10
    8d7a:	16e6eb63          	bltu	a3,a4,8ef0 <__umoddi3+0x230>
    8d7e:	01000737          	lui	a4,0x1000
    8d82:	4861                	li	a6,24
    8d84:	00e6f363          	bgeu	a3,a4,8d8a <__umoddi3+0xca>
    8d88:	4841                	li	a6,16
    8d8a:	0106d333          	srl	t1,a3,a6
    8d8e:	10014717          	auipc	a4,0x10014
    8d92:	2a672703          	lw	a4,678(a4) # 1001d034 <_GLOBAL_OFFSET_TABLE_+0x4>
    8d96:	971a                	add	a4,a4,t1
    8d98:	00074703          	lbu	a4,0(a4)
    8d9c:	02000313          	li	t1,32
    8da0:	9742                	add	a4,a4,a6
    8da2:	40e30833          	sub	a6,t1,a4
    8da6:	16e31a63          	bne	t1,a4,8f1a <__umoddi3+0x25a>
    8daa:	00b6e463          	bltu	a3,a1,8db2 <__umoddi3+0xf2>
    8dae:	00c56a63          	bltu	a0,a2,8dc2 <__umoddi3+0x102>
    8db2:	40c508b3          	sub	a7,a0,a2
    8db6:	011537b3          	sltu	a5,a0,a7
    8dba:	40d586b3          	sub	a3,a1,a3
    8dbe:	40f687b3          	sub	a5,a3,a5
    8dc2:	8546                	mv	a0,a7
    8dc4:	85be                	mv	a1,a5
    8dc6:	8082                	ret
    8dc8:	ce41                	beqz	a2,8e60 <__umoddi3+0x1a0>
    8dca:	67c1                	lui	a5,0x10
    8dcc:	24f67f63          	bgeu	a2,a5,902a <__umoddi3+0x36a>
    8dd0:	10063713          	sltiu	a4,a2,256
    8dd4:	00173713          	seqz	a4,a4
    8dd8:	070e                	slli	a4,a4,0x3
    8dda:	00e656b3          	srl	a3,a2,a4
    8dde:	10014797          	auipc	a5,0x10014
    8de2:	2567a783          	lw	a5,598(a5) # 1001d034 <_GLOBAL_OFFSET_TABLE_+0x4>
    8de6:	97b6                	add	a5,a5,a3
    8de8:	0007c783          	lbu	a5,0(a5)
    8dec:	02000313          	li	t1,32
    8df0:	97ba                	add	a5,a5,a4
    8df2:	40f306b3          	sub	a3,t1,a5
    8df6:	08f31563          	bne	t1,a5,8e80 <__umoddi3+0x1c0>
    8dfa:	40c58733          	sub	a4,a1,a2
    8dfe:	01065313          	srli	t1,a2,0x10
    8e02:	0642                	slli	a2,a2,0x10
    8e04:	8241                	srli	a2,a2,0x10
    8e06:	026755b3          	divu	a1,a4,t1
    8e0a:	0108d793          	srli	a5,a7,0x10
    8e0e:	02677733          	remu	a4,a4,t1
    8e12:	02c585b3          	mul	a1,a1,a2
    8e16:	0742                	slli	a4,a4,0x10
    8e18:	8fd9                	or	a5,a5,a4
    8e1a:	00b7f863          	bgeu	a5,a1,8e2a <__umoddi3+0x16a>
    8e1e:	97c2                	add	a5,a5,a6
    8e20:	0107e563          	bltu	a5,a6,8e2a <__umoddi3+0x16a>
    8e24:	00b7f363          	bgeu	a5,a1,8e2a <__umoddi3+0x16a>
    8e28:	97c2                	add	a5,a5,a6
    8e2a:	8f8d                	sub	a5,a5,a1
    8e2c:	0267d733          	divu	a4,a5,t1
    8e30:	08c2                	slli	a7,a7,0x10
    8e32:	0108d893          	srli	a7,a7,0x10
    8e36:	0267f7b3          	remu	a5,a5,t1
    8e3a:	02c70733          	mul	a4,a4,a2
    8e3e:	01079513          	slli	a0,a5,0x10
    8e42:	00a8e533          	or	a0,a7,a0
    8e46:	f0e56be3          	bltu	a0,a4,8d5c <__umoddi3+0x9c>
    8e4a:	8d19                	sub	a0,a0,a4
    8e4c:	00d55533          	srl	a0,a0,a3
    8e50:	4581                	li	a1,0
    8e52:	8082                	ret
    8e54:	10063693          	sltiu	a3,a2,256
    8e58:	0016b693          	seqz	a3,a3
    8e5c:	068e                	slli	a3,a3,0x3
    8e5e:	b549                	j	8ce0 <__umoddi3+0x20>
    8e60:	4681                	li	a3,0
    8e62:	10014797          	auipc	a5,0x10014
    8e66:	1d27a783          	lw	a5,466(a5) # 1001d034 <_GLOBAL_OFFSET_TABLE_+0x4>
    8e6a:	97b6                	add	a5,a5,a3
    8e6c:	0007c783          	lbu	a5,0(a5)
    8e70:	4701                	li	a4,0
    8e72:	02000313          	li	t1,32
    8e76:	97ba                	add	a5,a5,a4
    8e78:	40f306b3          	sub	a3,t1,a5
    8e7c:	f6f30fe3          	beq	t1,a5,8dfa <__umoddi3+0x13a>
    8e80:	00d61833          	sll	a6,a2,a3
    8e84:	00f5de33          	srl	t3,a1,a5
    8e88:	01085313          	srli	t1,a6,0x10
    8e8c:	026e5eb3          	divu	t4,t3,t1
    8e90:	01081613          	slli	a2,a6,0x10
    8e94:	00d595b3          	sll	a1,a1,a3
    8e98:	00f55733          	srl	a4,a0,a5
    8e9c:	8241                	srli	a2,a2,0x10
    8e9e:	8f4d                	or	a4,a4,a1
    8ea0:	01075793          	srli	a5,a4,0x10
    8ea4:	00d518b3          	sll	a7,a0,a3
    8ea8:	026e7e33          	remu	t3,t3,t1
    8eac:	02ce85b3          	mul	a1,t4,a2
    8eb0:	0e42                	slli	t3,t3,0x10
    8eb2:	01c7e7b3          	or	a5,a5,t3
    8eb6:	00b7f863          	bgeu	a5,a1,8ec6 <__umoddi3+0x206>
    8eba:	97c2                	add	a5,a5,a6
    8ebc:	0107e563          	bltu	a5,a6,8ec6 <__umoddi3+0x206>
    8ec0:	00b7f363          	bgeu	a5,a1,8ec6 <__umoddi3+0x206>
    8ec4:	97c2                	add	a5,a5,a6
    8ec6:	8f8d                	sub	a5,a5,a1
    8ec8:	0267d5b3          	divu	a1,a5,t1
    8ecc:	0742                	slli	a4,a4,0x10
    8ece:	8341                	srli	a4,a4,0x10
    8ed0:	0267f7b3          	remu	a5,a5,t1
    8ed4:	02c585b3          	mul	a1,a1,a2
    8ed8:	07c2                	slli	a5,a5,0x10
    8eda:	8f5d                	or	a4,a4,a5
    8edc:	00b77863          	bgeu	a4,a1,8eec <__umoddi3+0x22c>
    8ee0:	9742                	add	a4,a4,a6
    8ee2:	01076563          	bltu	a4,a6,8eec <__umoddi3+0x22c>
    8ee6:	00b77363          	bgeu	a4,a1,8eec <__umoddi3+0x22c>
    8eea:	9742                	add	a4,a4,a6
    8eec:	8f0d                	sub	a4,a4,a1
    8eee:	bf21                	j	8e06 <__umoddi3+0x146>
    8ef0:	1006b813          	sltiu	a6,a3,256
    8ef4:	00183813          	seqz	a6,a6
    8ef8:	080e                	slli	a6,a6,0x3
    8efa:	0106d333          	srl	t1,a3,a6
    8efe:	10014717          	auipc	a4,0x10014
    8f02:	13672703          	lw	a4,310(a4) # 1001d034 <_GLOBAL_OFFSET_TABLE_+0x4>
    8f06:	971a                	add	a4,a4,t1
    8f08:	00074703          	lbu	a4,0(a4)
    8f0c:	02000313          	li	t1,32
    8f10:	9742                	add	a4,a4,a6
    8f12:	40e30833          	sub	a6,t1,a4
    8f16:	e8e30ae3          	beq	t1,a4,8daa <__umoddi3+0xea>
    8f1a:	010696b3          	sll	a3,a3,a6
    8f1e:	00e658b3          	srl	a7,a2,a4
    8f22:	00d8e8b3          	or	a7,a7,a3
    8f26:	00e5d333          	srl	t1,a1,a4
    8f2a:	0108de13          	srli	t3,a7,0x10
    8f2e:	03c356b3          	divu	a3,t1,t3
    8f32:	01089e93          	slli	t4,a7,0x10
    8f36:	010ede93          	srli	t4,t4,0x10
    8f3a:	00e557b3          	srl	a5,a0,a4
    8f3e:	010595b3          	sll	a1,a1,a6
    8f42:	8ddd                	or	a1,a1,a5
    8f44:	0105d793          	srli	a5,a1,0x10
    8f48:	01061633          	sll	a2,a2,a6
    8f4c:	01051533          	sll	a0,a0,a6
    8f50:	03c37333          	remu	t1,t1,t3
    8f54:	02de8f33          	mul	t5,t4,a3
    8f58:	0342                	slli	t1,t1,0x10
    8f5a:	0067e7b3          	or	a5,a5,t1
    8f5e:	01e7fb63          	bgeu	a5,t5,8f74 <__umoddi3+0x2b4>
    8f62:	97c6                	add	a5,a5,a7
    8f64:	fff68313          	addi	t1,a3,-1
    8f68:	0d17eb63          	bltu	a5,a7,903e <__umoddi3+0x37e>
    8f6c:	0de7f963          	bgeu	a5,t5,903e <__umoddi3+0x37e>
    8f70:	16f9                	addi	a3,a3,-2
    8f72:	97c6                	add	a5,a5,a7
    8f74:	41e787b3          	sub	a5,a5,t5
    8f78:	03c7df33          	divu	t5,a5,t3
    8f7c:	05c2                	slli	a1,a1,0x10
    8f7e:	81c1                	srli	a1,a1,0x10
    8f80:	03c7f7b3          	remu	a5,a5,t3
    8f84:	03ee8eb3          	mul	t4,t4,t5
    8f88:	07c2                	slli	a5,a5,0x10
    8f8a:	8fcd                	or	a5,a5,a1
    8f8c:	01d7fb63          	bgeu	a5,t4,8fa2 <__umoddi3+0x2e2>
    8f90:	97c6                	add	a5,a5,a7
    8f92:	ffff0593          	addi	a1,t5,-1
    8f96:	0b17e263          	bltu	a5,a7,903a <__umoddi3+0x37a>
    8f9a:	0bd7f063          	bgeu	a5,t4,903a <__umoddi3+0x37a>
    8f9e:	1f79                	addi	t5,t5,-2
    8fa0:	97c6                	add	a5,a5,a7
    8fa2:	06c2                	slli	a3,a3,0x10
    8fa4:	010f1e13          	slli	t3,t5,0x10
    8fa8:	01e6e6b3          	or	a3,a3,t5
    8fac:	01061313          	slli	t1,a2,0x10
    8fb0:	010e5e13          	srli	t3,t3,0x10
    8fb4:	01035313          	srli	t1,t1,0x10
    8fb8:	82c1                	srli	a3,a3,0x10
    8fba:	01065f13          	srli	t5,a2,0x10
    8fbe:	02668fb3          	mul	t6,a3,t1
    8fc2:	41d785b3          	sub	a1,a5,t4
    8fc6:	026e0333          	mul	t1,t3,t1
    8fca:	03ee0e33          	mul	t3,t3,t5
    8fce:	01035793          	srli	a5,t1,0x10
    8fd2:	9e7e                	add	t3,t3,t6
    8fd4:	97f2                	add	a5,a5,t3
    8fd6:	03e686b3          	mul	a3,a3,t5
    8fda:	01f7f463          	bgeu	a5,t6,8fe2 <__umoddi3+0x322>
    8fde:	6e41                	lui	t3,0x10
    8fe0:	96f2                	add	a3,a3,t3
    8fe2:	0107de13          	srli	t3,a5,0x10
    8fe6:	0342                	slli	t1,t1,0x10
    8fe8:	01035313          	srli	t1,t1,0x10
    8fec:	07c2                	slli	a5,a5,0x10
    8fee:	96f2                	add	a3,a3,t3
    8ff0:	979a                	add	a5,a5,t1
    8ff2:	02d5e463          	bltu	a1,a3,901a <__umoddi3+0x35a>
    8ff6:	02d58063          	beq	a1,a3,9016 <__umoddi3+0x356>
    8ffa:	40f507b3          	sub	a5,a0,a5
    8ffe:	00f53533          	sltu	a0,a0,a5
    9002:	8d95                	sub	a1,a1,a3
    9004:	8d89                	sub	a1,a1,a0
    9006:	00e59733          	sll	a4,a1,a4
    900a:	0107d533          	srl	a0,a5,a6
    900e:	0105d5b3          	srl	a1,a1,a6
    9012:	8d59                	or	a0,a0,a4
    9014:	8082                	ret
    9016:	fef572e3          	bgeu	a0,a5,8ffa <__umoddi3+0x33a>
    901a:	40c78633          	sub	a2,a5,a2
    901e:	00c7b7b3          	sltu	a5,a5,a2
    9022:	97c6                	add	a5,a5,a7
    9024:	8e9d                	sub	a3,a3,a5
    9026:	87b2                	mv	a5,a2
    9028:	bfc9                	j	8ffa <__umoddi3+0x33a>
    902a:	010007b7          	lui	a5,0x1000
    902e:	00f67c63          	bgeu	a2,a5,9046 <__umoddi3+0x386>
    9032:	01065693          	srli	a3,a2,0x10
    9036:	4741                	li	a4,16
    9038:	b35d                	j	8dde <__umoddi3+0x11e>
    903a:	8f2e                	mv	t5,a1
    903c:	b79d                	j	8fa2 <__umoddi3+0x2e2>
    903e:	869a                	mv	a3,t1
    9040:	bf15                	j	8f74 <__umoddi3+0x2b4>
    9042:	97c2                	add	a5,a5,a6
    9044:	b9f5                	j	8d40 <__umoddi3+0x80>
    9046:	01865693          	srli	a3,a2,0x18
    904a:	4761                	li	a4,24
    904c:	bb49                	j	8dde <__umoddi3+0x11e>

0000904e <__adddf3>:
    904e:	00100337          	lui	t1,0x100
    9052:	1101                	addi	sp,sp,-32
    9054:	137d                	addi	t1,t1,-1 # fffff <__rodata_start__+0xf4f07>
    9056:	0146d713          	srli	a4,a3,0x14
    905a:	00b377b3          	and	a5,t1,a1
    905e:	00d37833          	and	a6,t1,a3
    9062:	c256                	sw	s5,4(sp)
    9064:	0145da93          	srli	s5,a1,0x14
    9068:	078e                	slli	a5,a5,0x3
    906a:	ca26                	sw	s1,20(sp)
    906c:	c452                	sw	s4,8(sp)
    906e:	7ffafa93          	andi	s5,s5,2047
    9072:	01d55a13          	srli	s4,a0,0x1d
    9076:	01f5d493          	srli	s1,a1,0x1f
    907a:	080e                	slli	a6,a6,0x3
    907c:	7ff77593          	andi	a1,a4,2047
    9080:	ce06                	sw	ra,28(sp)
    9082:	01d65713          	srli	a4,a2,0x1d
    9086:	cc22                	sw	s0,24(sp)
    9088:	c84a                	sw	s2,16(sp)
    908a:	c64e                	sw	s3,12(sp)
    908c:	82fd                	srli	a3,a3,0x1f
    908e:	00fa6a33          	or	s4,s4,a5
    9092:	88b2                	mv	a7,a2
    9094:	40ba87b3          	sub	a5,s5,a1
    9098:	01076733          	or	a4,a4,a6
    909c:	00351e13          	slli	t3,a0,0x3
    90a0:	00361e93          	slli	t4,a2,0x3
    90a4:	0ed48963          	beq	s1,a3,9196 <__adddf3+0x148>
    90a8:	04f05563          	blez	a5,90f2 <__adddf3+0xa4>
    90ac:	16059263          	bnez	a1,9210 <__adddf3+0x1c2>
    90b0:	01d766b3          	or	a3,a4,t4
    90b4:	30068163          	beqz	a3,93b6 <__adddf3+0x368>
    90b8:	fff78693          	addi	a3,a5,-1 # ffffff <__rodata_start__+0xff4f07>
    90bc:	62068c63          	beqz	a3,96f4 <__adddf3+0x6a6>
    90c0:	7ff00613          	li	a2,2047
    90c4:	3ac78663          	beq	a5,a2,9470 <__adddf3+0x422>
    90c8:	03800613          	li	a2,56
    90cc:	56d65f63          	bge	a2,a3,964a <__adddf3+0x5fc>
    90d0:	fffe0413          	addi	s0,t3,-1 # ffff <__rodata_start__+0x4f07>
    90d4:	008e3e33          	sltu	t3,t3,s0
    90d8:	41ca0a33          	sub	s4,s4,t3
    90dc:	008a1693          	slli	a3,s4,0x8
    90e0:	00800737          	lui	a4,0x800
    90e4:	8abe                	mv	s5,a5
    90e6:	0406da63          	bgez	a3,913a <__adddf3+0xec>
    90ea:	fff70a13          	addi	s4,a4,-1 # 7fffff <__rodata_start__+0x7f4f07>
    90ee:	547d                	li	s0,-1
    90f0:	a2b9                	j	923e <__adddf3+0x1f0>
    90f2:	1a078463          	beqz	a5,929a <__adddf3+0x24c>
    90f6:	415587b3          	sub	a5,a1,s5
    90fa:	3c0a9d63          	bnez	s5,94d4 <__adddf3+0x486>
    90fe:	01ca6633          	or	a2,s4,t3
    9102:	58060063          	beqz	a2,9682 <__adddf3+0x634>
    9106:	fff78613          	addi	a2,a5,-1
    910a:	6a060763          	beqz	a2,97b8 <__adddf3+0x76a>
    910e:	7ff00513          	li	a0,2047
    9112:	62a78f63          	beq	a5,a0,9750 <__adddf3+0x702>
    9116:	03800513          	li	a0,56
    911a:	74c55663          	bge	a0,a2,9866 <__adddf3+0x818>
    911e:	fffe8413          	addi	s0,t4,-1
    9122:	008ebeb3          	sltu	t4,t4,s0
    9126:	41d70a33          	sub	s4,a4,t4
    912a:	008a1613          	slli	a2,s4,0x8
    912e:	00800737          	lui	a4,0x800
    9132:	7c064163          	bltz	a2,98f4 <__adddf3+0x8a6>
    9136:	84b6                	mv	s1,a3
    9138:	8abe                	mv	s5,a5
    913a:	00440793          	addi	a5,s0,4
    913e:	0087b433          	sltu	s0,a5,s0
    9142:	9a22                	add	s4,s4,s0
    9144:	843e                	mv	s0,a5
    9146:	008a1793          	slli	a5,s4,0x8
    914a:	2007dd63          	bgez	a5,9364 <__adddf3+0x316>
    914e:	001a8793          	addi	a5,s5,1
    9152:	7ff00713          	li	a4,2047
    9156:	8826                	mv	a6,s1
    9158:	20e78a63          	beq	a5,a4,936c <__adddf3+0x31e>
    915c:	ff800737          	lui	a4,0xff800
    9160:	177d                	addi	a4,a4,-1 # ff7fffff <linker_stack_start+0xef7d000f>
    9162:	7ff7f793          	andi	a5,a5,2047
    9166:	00ea7733          	and	a4,s4,a4
    916a:	01d71613          	slli	a2,a4,0x1d
    916e:	800d                	srli	s0,s0,0x3
    9170:	0726                	slli	a4,a4,0x9
    9172:	8e41                	or	a2,a2,s0
    9174:	8331                	srli	a4,a4,0xc
    9176:	40f2                	lw	ra,28(sp)
    9178:	4462                	lw	s0,24(sp)
    917a:	07d2                	slli	a5,a5,0x14
    917c:	8fd9                	or	a5,a5,a4
    917e:	01f81713          	slli	a4,a6,0x1f
    9182:	8fd9                	or	a5,a5,a4
    9184:	44d2                	lw	s1,20(sp)
    9186:	4942                	lw	s2,16(sp)
    9188:	49b2                	lw	s3,12(sp)
    918a:	4a22                	lw	s4,8(sp)
    918c:	4a92                	lw	s5,4(sp)
    918e:	8532                	mv	a0,a2
    9190:	85be                	mv	a1,a5
    9192:	6105                	addi	sp,sp,32
    9194:	8082                	ret
    9196:	8826                	mv	a6,s1
    9198:	1cf05d63          	blez	a5,9372 <__adddf3+0x324>
    919c:	16059263          	bnez	a1,9300 <__adddf3+0x2b2>
    91a0:	01d766b3          	or	a3,a4,t4
    91a4:	20068963          	beqz	a3,93b6 <__adddf3+0x368>
    91a8:	fff78693          	addi	a3,a5,-1
    91ac:	4e068e63          	beqz	a3,96a8 <__adddf3+0x65a>
    91b0:	7ff00613          	li	a2,2047
    91b4:	5ac78963          	beq	a5,a2,9766 <__adddf3+0x718>
    91b8:	03800613          	li	a2,56
    91bc:	62d65c63          	bge	a2,a3,97f4 <__adddf3+0x7a6>
    91c0:	008a1693          	slli	a3,s4,0x8
    91c4:	00800737          	lui	a4,0x800
    91c8:	001e0413          	addi	s0,t3,1
    91cc:	8abe                	mv	s5,a5
    91ce:	f606d6e3          	bgez	a3,913a <__adddf3+0xec>
    91d2:	8a3a                	mv	s4,a4
    91d4:	4401                	li	s0,0
    91d6:	0a85                	addi	s5,s5,1
    91d8:	7ff00793          	li	a5,2047
    91dc:	18fa8763          	beq	s5,a5,936a <__adddf3+0x31c>
    91e0:	ff8007b7          	lui	a5,0xff800
    91e4:	17fd                	addi	a5,a5,-1 # ff7fffff <linker_stack_start+0xef7d000f>
    91e6:	00fa77b3          	and	a5,s4,a5
    91ea:	00145713          	srli	a4,s0,0x1
    91ee:	8805                	andi	s0,s0,1
    91f0:	01f79693          	slli	a3,a5,0x1f
    91f4:	8f41                	or	a4,a4,s0
    91f6:	0017da13          	srli	s4,a5,0x1
    91fa:	00e6e433          	or	s0,a3,a4
    91fe:	00747793          	andi	a5,s0,7
    9202:	d3b1                	beqz	a5,9146 <__adddf3+0xf8>
    9204:	00f47793          	andi	a5,s0,15
    9208:	4711                	li	a4,4
    920a:	f2e78ee3          	beq	a5,a4,9146 <__adddf3+0xf8>
    920e:	b735                	j	913a <__adddf3+0xec>
    9210:	7ff00693          	li	a3,2047
    9214:	24da8e63          	beq	s5,a3,9470 <__adddf3+0x422>
    9218:	03800693          	li	a3,56
    921c:	1cf6d263          	bge	a3,a5,93e0 <__adddf3+0x392>
    9220:	fffe0413          	addi	s0,t3,-1
    9224:	008e3e33          	sltu	t3,t3,s0
    9228:	41ca0a33          	sub	s4,s4,t3
    922c:	008a1713          	slli	a4,s4,0x8
    9230:	008007b7          	lui	a5,0x800
    9234:	f00753e3          	bgez	a4,913a <__adddf3+0xec>
    9238:	fff78a13          	addi	s4,a5,-1 # 7fffff <__rodata_start__+0x7f4f07>
    923c:	547d                	li	s0,-1
    923e:	8552                	mv	a0,s4
    9240:	64b010ef          	jal	b08a <__clzsi2>
    9244:	ff850793          	addi	a5,a0,-8
    9248:	02000713          	li	a4,32
    924c:	40f706b3          	sub	a3,a4,a5
    9250:	00d456b3          	srl	a3,s0,a3
    9254:	00fa1a33          	sll	s4,s4,a5
    9258:	0146e6b3          	or	a3,a3,s4
    925c:	00f41433          	sll	s0,s0,a5
    9260:	2f57c763          	blt	a5,s5,954e <__adddf3+0x500>
    9264:	415787b3          	sub	a5,a5,s5
    9268:	0785                	addi	a5,a5,1
    926a:	8f1d                	sub	a4,a4,a5
    926c:	00e41633          	sll	a2,s0,a4
    9270:	00c03633          	snez	a2,a2
    9274:	00f45a33          	srl	s4,s0,a5
    9278:	01466633          	or	a2,a2,s4
    927c:	00e69733          	sll	a4,a3,a4
    9280:	00c76433          	or	s0,a4,a2
    9284:	00f6da33          	srl	s4,a3,a5
    9288:	014467b3          	or	a5,s0,s4
    928c:	4a81                	li	s5,0
    928e:	fba5                	bnez	a5,91fe <__adddf3+0x1b0>
    9290:	8826                	mv	a6,s1
    9292:	4781                	li	a5,0
    9294:	4701                	li	a4,0
    9296:	4601                	li	a2,0
    9298:	bdf9                	j	9176 <__adddf3+0x128>
    929a:	001a8793          	addi	a5,s5,1
    929e:	7fe7f793          	andi	a5,a5,2046
    92a2:	28079263          	bnez	a5,9526 <__adddf3+0x4d8>
    92a6:	01ca67b3          	or	a5,s4,t3
    92aa:	01d76633          	or	a2,a4,t4
    92ae:	3e0a9163          	bnez	s5,9690 <__adddf3+0x642>
    92b2:	52078b63          	beqz	a5,97e8 <__adddf3+0x79a>
    92b6:	20060563          	beqz	a2,94c0 <__adddf3+0x472>
    92ba:	41de05b3          	sub	a1,t3,t4
    92be:	00be3633          	sltu	a2,t3,a1
    92c2:	40ea07b3          	sub	a5,s4,a4
    92c6:	8f91                	sub	a5,a5,a2
    92c8:	00879613          	slli	a2,a5,0x8
    92cc:	5c065f63          	bgez	a2,98aa <__adddf3+0x85c>
    92d0:	41ce8e33          	sub	t3,t4,t3
    92d4:	01cebeb3          	sltu	t4,t4,t3
    92d8:	41470733          	sub	a4,a4,s4
    92dc:	41d70733          	sub	a4,a4,t4
    92e0:	00ee67b3          	or	a5,t3,a4
    92e4:	8472                	mv	s0,t3
    92e6:	84b6                	mv	s1,a3
    92e8:	d7c5                	beqz	a5,9290 <__adddf3+0x242>
    92ea:	00871793          	slli	a5,a4,0x8
    92ee:	6007d763          	bgez	a5,98fc <__adddf3+0x8ae>
    92f2:	ff8007b7          	lui	a5,0xff800
    92f6:	17fd                	addi	a5,a5,-1 # ff7fffff <linker_stack_start+0xef7d000f>
    92f8:	8f7d                	and	a4,a4,a5
    92fa:	8836                	mv	a6,a3
    92fc:	4785                	li	a5,1
    92fe:	b5b5                	j	916a <__adddf3+0x11c>
    9300:	7ff00693          	li	a3,2047
    9304:	16da8663          	beq	s5,a3,9470 <__adddf3+0x422>
    9308:	03800693          	li	a3,56
    930c:	2cf6c263          	blt	a3,a5,95d0 <__adddf3+0x582>
    9310:	008006b7          	lui	a3,0x800
    9314:	8f55                	or	a4,a4,a3
    9316:	46fd                	li	a3,31
    9318:	40f6c863          	blt	a3,a5,9728 <__adddf3+0x6da>
    931c:	02000613          	li	a2,32
    9320:	8e1d                	sub	a2,a2,a5
    9322:	00c716b3          	sll	a3,a4,a2
    9326:	00ce9633          	sll	a2,t4,a2
    932a:	00fedeb3          	srl	t4,t4,a5
    932e:	00f75733          	srl	a4,a4,a5
    9332:	00c03633          	snez	a2,a2
    9336:	01d6e6b3          	or	a3,a3,t4
    933a:	00c6e7b3          	or	a5,a3,a2
    933e:	9a3a                	add	s4,s4,a4
    9340:	9e3e                	add	t3,t3,a5
    9342:	00fe37b3          	sltu	a5,t3,a5
    9346:	9a3e                	add	s4,s4,a5
    9348:	8472                	mv	s0,t3
    934a:	008a1793          	slli	a5,s4,0x8
    934e:	e807c4e3          	bltz	a5,91d6 <__adddf3+0x188>
    9352:	00747793          	andi	a5,s0,7
    9356:	5a078c63          	beqz	a5,990e <__adddf3+0x8c0>
    935a:	00f47793          	andi	a5,s0,15
    935e:	4711                	li	a4,4
    9360:	dce79de3          	bne	a5,a4,913a <__adddf3+0xec>
    9364:	87d6                	mv	a5,s5
    9366:	800d                	srli	s0,s0,0x3
    9368:	a891                	j	93bc <__adddf3+0x36e>
    936a:	87d6                	mv	a5,s5
    936c:	4701                	li	a4,0
    936e:	4601                	li	a2,0
    9370:	b519                	j	9176 <__adddf3+0x128>
    9372:	10078963          	beqz	a5,9484 <__adddf3+0x436>
    9376:	415587b3          	sub	a5,a1,s5
    937a:	260a9463          	bnez	s5,95e2 <__adddf3+0x594>
    937e:	01ca66b3          	or	a3,s4,t3
    9382:	4c068d63          	beqz	a3,985c <__adddf3+0x80e>
    9386:	fff78693          	addi	a3,a5,-1
    938a:	30068f63          	beqz	a3,96a8 <__adddf3+0x65a>
    938e:	7ff00613          	li	a2,2047
    9392:	3ec78463          	beq	a5,a2,977a <__adddf3+0x72c>
    9396:	03800613          	li	a2,56
    939a:	52d65b63          	bge	a2,a3,98d0 <__adddf3+0x882>
    939e:	00871693          	slli	a3,a4,0x8
    93a2:	00800a37          	lui	s4,0x800
    93a6:	8abe                	mv	s5,a5
    93a8:	4401                	li	s0,0
    93aa:	e206c6e3          	bltz	a3,91d6 <__adddf3+0x188>
    93ae:	001e8413          	addi	s0,t4,1
    93b2:	8a3a                	mv	s4,a4
    93b4:	b359                	j	913a <__adddf3+0xec>
    93b6:	00351413          	slli	s0,a0,0x3
    93ba:	800d                	srli	s0,s0,0x3
    93bc:	01da1613          	slli	a2,s4,0x1d
    93c0:	7ff00693          	li	a3,2047
    93c4:	8e41                	or	a2,a2,s0
    93c6:	003a5713          	srli	a4,s4,0x3
    93ca:	08d79863          	bne	a5,a3,945a <__adddf3+0x40c>
    93ce:	8e59                	or	a2,a2,a4
    93d0:	ca59                	beqz	a2,9466 <__adddf3+0x418>
    93d2:	4801                	li	a6,0
    93d4:	7ff00793          	li	a5,2047
    93d8:	00080737          	lui	a4,0x80
    93dc:	4601                	li	a2,0
    93de:	bb61                	j	9176 <__adddf3+0x128>
    93e0:	008006b7          	lui	a3,0x800
    93e4:	8f55                	or	a4,a4,a3
    93e6:	46fd                	li	a3,31
    93e8:	18f6c063          	blt	a3,a5,9568 <__adddf3+0x51a>
    93ec:	02000693          	li	a3,32
    93f0:	8e9d                	sub	a3,a3,a5
    93f2:	00d71433          	sll	s0,a4,a3
    93f6:	00de96b3          	sll	a3,t4,a3
    93fa:	00fedeb3          	srl	t4,t4,a5
    93fe:	00d036b3          	snez	a3,a3
    9402:	01d46433          	or	s0,s0,t4
    9406:	00f75733          	srl	a4,a4,a5
    940a:	8c55                	or	s0,s0,a3
    940c:	40ea0a33          	sub	s4,s4,a4
    9410:	408e0433          	sub	s0,t3,s0
    9414:	008e3e33          	sltu	t3,t3,s0
    9418:	41ca0a33          	sub	s4,s4,t3
    941c:	008a1793          	slli	a5,s4,0x8
    9420:	f207d9e3          	bgez	a5,9352 <__adddf3+0x304>
    9424:	0a26                	slli	s4,s4,0x9
    9426:	009a5a13          	srli	s4,s4,0x9
    942a:	e00a1ae3          	bnez	s4,923e <__adddf3+0x1f0>
    942e:	8522                	mv	a0,s0
    9430:	45b010ef          	jal	b08a <__clzsi2>
    9434:	01850793          	addi	a5,a0,24
    9438:	477d                	li	a4,31
    943a:	e0f757e3          	bge	a4,a5,9248 <__adddf3+0x1fa>
    943e:	1561                	addi	a0,a0,-8
    9440:	00a416b3          	sll	a3,s0,a0
    9444:	1557d663          	bge	a5,s5,9590 <__adddf3+0x542>
    9448:	ff800737          	lui	a4,0xff800
    944c:	177d                	addi	a4,a4,-1 # ff7fffff <linker_stack_start+0xef7d000f>
    944e:	8f75                	and	a4,a4,a3
    9450:	01d71613          	slli	a2,a4,0x1d
    9454:	40fa87b3          	sub	a5,s5,a5
    9458:	830d                	srli	a4,a4,0x3
    945a:	0732                	slli	a4,a4,0xc
    945c:	8331                	srli	a4,a4,0xc
    945e:	7ff7f793          	andi	a5,a5,2047
    9462:	8826                	mv	a6,s1
    9464:	bb09                	j	9176 <__adddf3+0x128>
    9466:	8826                	mv	a6,s1
    9468:	7ff00793          	li	a5,2047
    946c:	4701                	li	a4,0
    946e:	b321                	j	9176 <__adddf3+0x128>
    9470:	00351413          	slli	s0,a0,0x3
    9474:	00345513          	srli	a0,s0,0x3
    9478:	01da1613          	slli	a2,s4,0x1d
    947c:	8e49                	or	a2,a2,a0
    947e:	003a5713          	srli	a4,s4,0x3
    9482:	b7b1                	j	93ce <__adddf3+0x380>
    9484:	001a8793          	addi	a5,s5,1
    9488:	7fe7f693          	andi	a3,a5,2046
    948c:	16069f63          	bnez	a3,960a <__adddf3+0x5bc>
    9490:	01ca67b3          	or	a5,s4,t3
    9494:	3a0a9e63          	bnez	s5,9850 <__adddf3+0x802>
    9498:	01d766b3          	or	a3,a4,t4
    949c:	40078063          	beqz	a5,989c <__adddf3+0x84e>
    94a0:	c285                	beqz	a3,94c0 <__adddf3+0x472>
    94a2:	9ef2                	add	t4,t4,t3
    94a4:	01cebe33          	sltu	t3,t4,t3
    94a8:	9752                	add	a4,a4,s4
    94aa:	01c70a33          	add	s4,a4,t3
    94ae:	008a1793          	slli	a5,s4,0x8
    94b2:	8e76                	mv	t3,t4
    94b4:	4207c063          	bltz	a5,98d4 <__adddf3+0x886>
    94b8:	014ee7b3          	or	a5,t4,s4
    94bc:	dc078ae3          	beqz	a5,9290 <__adddf3+0x242>
    94c0:	003e5e13          	srli	t3,t3,0x3
    94c4:	01da1613          	slli	a2,s4,0x1d
    94c8:	01c66633          	or	a2,a2,t3
    94cc:	003a5713          	srli	a4,s4,0x3
    94d0:	4781                	li	a5,0
    94d2:	b761                	j	945a <__adddf3+0x40c>
    94d4:	7ff00613          	li	a2,2047
    94d8:	26c58c63          	beq	a1,a2,9750 <__adddf3+0x702>
    94dc:	03800613          	li	a2,56
    94e0:	16f64763          	blt	a2,a5,964e <__adddf3+0x600>
    94e4:	00800637          	lui	a2,0x800
    94e8:	00ca6a33          	or	s4,s4,a2
    94ec:	467d                	li	a2,31
    94ee:	28f64e63          	blt	a2,a5,978a <__adddf3+0x73c>
    94f2:	02000613          	li	a2,32
    94f6:	8e1d                	sub	a2,a2,a5
    94f8:	00ca1433          	sll	s0,s4,a2
    94fc:	00ce1633          	sll	a2,t3,a2
    9500:	00fe5e33          	srl	t3,t3,a5
    9504:	00c03633          	snez	a2,a2
    9508:	01c46433          	or	s0,s0,t3
    950c:	00fa57b3          	srl	a5,s4,a5
    9510:	8c51                	or	s0,s0,a2
    9512:	8f1d                	sub	a4,a4,a5
    9514:	408e8433          	sub	s0,t4,s0
    9518:	008ebeb3          	sltu	t4,t4,s0
    951c:	41d70a33          	sub	s4,a4,t4
    9520:	8aae                	mv	s5,a1
    9522:	84b6                	mv	s1,a3
    9524:	bde5                	j	941c <__adddf3+0x3ce>
    9526:	41de0433          	sub	s0,t3,t4
    952a:	008e3633          	sltu	a2,t3,s0
    952e:	40ea07b3          	sub	a5,s4,a4
    9532:	8f91                	sub	a5,a5,a2
    9534:	00879613          	slli	a2,a5,0x8
    9538:	12064a63          	bltz	a2,966c <__adddf3+0x61e>
    953c:	00f46633          	or	a2,s0,a5
    9540:	8a3e                	mv	s4,a5
    9542:	ee0614e3          	bnez	a2,942a <__adddf3+0x3dc>
    9546:	4801                	li	a6,0
    9548:	4781                	li	a5,0
    954a:	4701                	li	a4,0
    954c:	b12d                	j	9176 <__adddf3+0x128>
    954e:	ff800a37          	lui	s4,0xff800
    9552:	1a7d                	addi	s4,s4,-1 # ff7fffff <linker_stack_start+0xef7d000f>
    9554:	00747713          	andi	a4,s0,7
    9558:	40fa8ab3          	sub	s5,s5,a5
    955c:	0146fa33          	and	s4,a3,s4
    9560:	de071de3          	bnez	a4,935a <__adddf3+0x30c>
    9564:	87d6                	mv	a5,s5
    9566:	b501                	j	9366 <__adddf3+0x318>
    9568:	fe078693          	addi	a3,a5,-32
    956c:	02000613          	li	a2,32
    9570:	00d756b3          	srl	a3,a4,a3
    9574:	00c78a63          	beq	a5,a2,9588 <__adddf3+0x53a>
    9578:	04000613          	li	a2,64
    957c:	40f607b3          	sub	a5,a2,a5
    9580:	00f717b3          	sll	a5,a4,a5
    9584:	00feeeb3          	or	t4,t4,a5
    9588:	01d03433          	snez	s0,t4
    958c:	8c55                	or	s0,s0,a3
    958e:	b549                	j	9410 <__adddf3+0x3c2>
    9590:	41578433          	sub	s0,a5,s5
    9594:	00140793          	addi	a5,s0,1
    9598:	2ef75d63          	bge	a4,a5,9892 <__adddf3+0x844>
    959c:	1405                	addi	s0,s0,-31
    959e:	02000713          	li	a4,32
    95a2:	0086d433          	srl	s0,a3,s0
    95a6:	00e78b63          	beq	a5,a4,95bc <__adddf3+0x56e>
    95aa:	04000713          	li	a4,64
    95ae:	40f707b3          	sub	a5,a4,a5
    95b2:	00f697b3          	sll	a5,a3,a5
    95b6:	00f037b3          	snez	a5,a5
    95ba:	8c5d                	or	s0,s0,a5
    95bc:	cc040ae3          	beqz	s0,9290 <__adddf3+0x242>
    95c0:	00747793          	andi	a5,s0,7
    95c4:	4a81                	li	s5,0
    95c6:	c2079fe3          	bnez	a5,9204 <__adddf3+0x1b6>
    95ca:	4a01                	li	s4,0
    95cc:	800d                	srli	s0,s0,0x3
    95ce:	b3fd                	j	93bc <__adddf3+0x36e>
    95d0:	008a1713          	slli	a4,s4,0x8
    95d4:	008007b7          	lui	a5,0x800
    95d8:	1c075d63          	bgez	a4,97b2 <__adddf3+0x764>
    95dc:	8a3e                	mv	s4,a5
    95de:	4401                	li	s0,0
    95e0:	bedd                	j	91d6 <__adddf3+0x188>
    95e2:	7ff00693          	li	a3,2047
    95e6:	18d58a63          	beq	a1,a3,977a <__adddf3+0x72c>
    95ea:	03800693          	li	a3,56
    95ee:	20f6d563          	bge	a3,a5,97f8 <__adddf3+0x7aa>
    95f2:	00871793          	slli	a5,a4,0x8
    95f6:	00800a37          	lui	s4,0x800
    95fa:	8aae                	mv	s5,a1
    95fc:	4401                	li	s0,0
    95fe:	bc07cce3          	bltz	a5,91d6 <__adddf3+0x188>
    9602:	001e8413          	addi	s0,t4,1
    9606:	8a3a                	mv	s4,a4
    9608:	be0d                	j	913a <__adddf3+0xec>
    960a:	7ff00693          	li	a3,2047
    960e:	d4d78fe3          	beq	a5,a3,936c <__adddf3+0x31e>
    9612:	9ef2                	add	t4,t4,t3
    9614:	01cebe33          	sltu	t3,t4,t3
    9618:	9752                	add	a4,a4,s4
    961a:	9772                	add	a4,a4,t3
    961c:	001ede93          	srli	t4,t4,0x1
    9620:	01f71413          	slli	s0,a4,0x1f
    9624:	007ef693          	andi	a3,t4,7
    9628:	01d46433          	or	s0,s0,t4
    962c:	00175a13          	srli	s4,a4,0x1
    9630:	c699                	beqz	a3,963e <__adddf3+0x5f0>
    9632:	00f47693          	andi	a3,s0,15
    9636:	4611                	li	a2,4
    9638:	8abe                	mv	s5,a5
    963a:	b0c690e3          	bne	a3,a2,913a <__adddf3+0xec>
    963e:	800d                	srli	s0,s0,0x3
    9640:	01da1613          	slli	a2,s4,0x1d
    9644:	8e41                	or	a2,a2,s0
    9646:	8311                	srli	a4,a4,0x4
    9648:	bd09                	j	945a <__adddf3+0x40c>
    964a:	87b6                	mv	a5,a3
    964c:	bb69                	j	93e6 <__adddf3+0x398>
    964e:	fffe8413          	addi	s0,t4,-1
    9652:	008ebeb3          	sltu	t4,t4,s0
    9656:	41d70a33          	sub	s4,a4,t4
    965a:	008a1713          	slli	a4,s4,0x8
    965e:	008007b7          	lui	a5,0x800
    9662:	1c074b63          	bltz	a4,9838 <__adddf3+0x7ea>
    9666:	84b6                	mv	s1,a3
    9668:	8aae                	mv	s5,a1
    966a:	bcc1                	j	913a <__adddf3+0xec>
    966c:	41ce8e33          	sub	t3,t4,t3
    9670:	01cebeb3          	sltu	t4,t4,t3
    9674:	41470733          	sub	a4,a4,s4
    9678:	8472                	mv	s0,t3
    967a:	41d70a33          	sub	s4,a4,t4
    967e:	84b6                	mv	s1,a3
    9680:	b36d                	j	942a <__adddf3+0x3dc>
    9682:	00389613          	slli	a2,a7,0x3
    9686:	00365413          	srli	s0,a2,0x3
    968a:	84b6                	mv	s1,a3
    968c:	8a3a                	mv	s4,a4
    968e:	b33d                	j	93bc <__adddf3+0x36e>
    9690:	ebe9                	bnez	a5,9762 <__adddf3+0x714>
    9692:	22060963          	beqz	a2,98c4 <__adddf3+0x876>
    9696:	00389613          	slli	a2,a7,0x3
    969a:	01d71793          	slli	a5,a4,0x1d
    969e:	820d                	srli	a2,a2,0x3
    96a0:	84b6                	mv	s1,a3
    96a2:	8e5d                	or	a2,a2,a5
    96a4:	830d                	srli	a4,a4,0x3
    96a6:	b325                	j	93ce <__adddf3+0x380>
    96a8:	9ef2                	add	t4,t4,t3
    96aa:	01cebe33          	sltu	t3,t4,t3
    96ae:	9752                	add	a4,a4,s4
    96b0:	9772                	add	a4,a4,t3
    96b2:	00871793          	slli	a5,a4,0x8
    96b6:	1807d463          	bgez	a5,983e <__adddf3+0x7f0>
    96ba:	ff8007b7          	lui	a5,0xff800
    96be:	17fd                	addi	a5,a5,-1 # ff7fffff <linker_stack_start+0xef7d000f>
    96c0:	001ed693          	srli	a3,t4,0x1
    96c4:	8f7d                	and	a4,a4,a5
    96c6:	01f71793          	slli	a5,a4,0x1f
    96ca:	0076f593          	andi	a1,a3,7
    96ce:	8fd5                	or	a5,a5,a3
    96d0:	00175613          	srli	a2,a4,0x1
    96d4:	1e058263          	beqz	a1,98b8 <__adddf3+0x86a>
    96d8:	00f7f693          	andi	a3,a5,15
    96dc:	4591                	li	a1,4
    96de:	1cb68d63          	beq	a3,a1,98b8 <__adddf3+0x86a>
    96e2:	00b78433          	add	s0,a5,a1
    96e6:	00f437b3          	sltu	a5,s0,a5
    96ea:	00c78a33          	add	s4,a5,a2
    96ee:	800d                	srli	s0,s0,0x3
    96f0:	4789                	li	a5,2
    96f2:	b1e9                	j	93bc <__adddf3+0x36e>
    96f4:	41de0eb3          	sub	t4,t3,t4
    96f8:	01de3e33          	sltu	t3,t3,t4
    96fc:	40ea0733          	sub	a4,s4,a4
    9700:	41c70a33          	sub	s4,a4,t3
    9704:	008a1793          	slli	a5,s4,0x8
    9708:	8476                	mv	s0,t4
    970a:	0007cd63          	bltz	a5,9724 <__adddf3+0x6d6>
    970e:	003ede93          	srli	t4,t4,0x3
    9712:	01da1613          	slli	a2,s4,0x1d
    9716:	01d66633          	or	a2,a2,t4
    971a:	003a5713          	srli	a4,s4,0x3
    971e:	4785                	li	a5,1
    9720:	bb2d                	j	945a <__adddf3+0x40c>
    9722:	84b6                	mv	s1,a3
    9724:	4a85                	li	s5,1
    9726:	b9fd                	j	9424 <__adddf3+0x3d6>
    9728:	fe078693          	addi	a3,a5,-32
    972c:	02000613          	li	a2,32
    9730:	00d756b3          	srl	a3,a4,a3
    9734:	00c78a63          	beq	a5,a2,9748 <__adddf3+0x6fa>
    9738:	04000613          	li	a2,64
    973c:	40f607b3          	sub	a5,a2,a5
    9740:	00f717b3          	sll	a5,a4,a5
    9744:	00feeeb3          	or	t4,t4,a5
    9748:	01d037b3          	snez	a5,t4
    974c:	8fd5                	or	a5,a5,a3
    974e:	becd                	j	9340 <__adddf3+0x2f2>
    9750:	00389793          	slli	a5,a7,0x3
    9754:	01d71613          	slli	a2,a4,0x1d
    9758:	838d                	srli	a5,a5,0x3
    975a:	84b6                	mv	s1,a3
    975c:	8e5d                	or	a2,a2,a5
    975e:	830d                	srli	a4,a4,0x3
    9760:	b1bd                	j	93ce <__adddf3+0x380>
    9762:	c60618e3          	bnez	a2,93d2 <__adddf3+0x384>
    9766:	00351413          	slli	s0,a0,0x3
    976a:	00345793          	srli	a5,s0,0x3
    976e:	01da1613          	slli	a2,s4,0x1d
    9772:	8e5d                	or	a2,a2,a5
    9774:	003a5713          	srli	a4,s4,0x3
    9778:	b999                	j	93ce <__adddf3+0x380>
    977a:	00389793          	slli	a5,a7,0x3
    977e:	01d71613          	slli	a2,a4,0x1d
    9782:	838d                	srli	a5,a5,0x3
    9784:	8e5d                	or	a2,a2,a5
    9786:	830d                	srli	a4,a4,0x3
    9788:	b199                	j	93ce <__adddf3+0x380>
    978a:	fe078613          	addi	a2,a5,-32
    978e:	02000513          	li	a0,32
    9792:	00ca5633          	srl	a2,s4,a2
    9796:	00a78a63          	beq	a5,a0,97aa <__adddf3+0x75c>
    979a:	04000513          	li	a0,64
    979e:	40f507b3          	sub	a5,a0,a5
    97a2:	00fa17b3          	sll	a5,s4,a5
    97a6:	00fe6e33          	or	t3,t3,a5
    97aa:	01c03433          	snez	s0,t3
    97ae:	8c51                	or	s0,s0,a2
    97b0:	b395                	j	9514 <__adddf3+0x4c6>
    97b2:	001e0413          	addi	s0,t3,1
    97b6:	b251                	j	913a <__adddf3+0xec>
    97b8:	41ce8e33          	sub	t3,t4,t3
    97bc:	01cebeb3          	sltu	t4,t4,t3
    97c0:	41470733          	sub	a4,a4,s4
    97c4:	41d70a33          	sub	s4,a4,t4
    97c8:	008a1793          	slli	a5,s4,0x8
    97cc:	8472                	mv	s0,t3
    97ce:	f407cae3          	bltz	a5,9722 <__adddf3+0x6d4>
    97d2:	003e5e13          	srli	t3,t3,0x3
    97d6:	01da1613          	slli	a2,s4,0x1d
    97da:	84b6                	mv	s1,a3
    97dc:	00ce6633          	or	a2,t3,a2
    97e0:	003a5713          	srli	a4,s4,0x3
    97e4:	4785                	li	a5,1
    97e6:	b995                	j	945a <__adddf3+0x40c>
    97e8:	d4060fe3          	beqz	a2,9546 <__adddf3+0x4f8>
    97ec:	8a3a                	mv	s4,a4
    97ee:	8e76                	mv	t3,t4
    97f0:	84b6                	mv	s1,a3
    97f2:	b1f9                	j	94c0 <__adddf3+0x472>
    97f4:	87b6                	mv	a5,a3
    97f6:	b605                	j	9316 <__adddf3+0x2c8>
    97f8:	008006b7          	lui	a3,0x800
    97fc:	00da6a33          	or	s4,s4,a3
    9800:	46fd                	li	a3,31
    9802:	06f6c463          	blt	a3,a5,986a <__adddf3+0x81c>
    9806:	02000613          	li	a2,32
    980a:	8e1d                	sub	a2,a2,a5
    980c:	00ca16b3          	sll	a3,s4,a2
    9810:	00ce1633          	sll	a2,t3,a2
    9814:	00fe5e33          	srl	t3,t3,a5
    9818:	00c03633          	snez	a2,a2
    981c:	01c6e6b3          	or	a3,a3,t3
    9820:	00fa57b3          	srl	a5,s4,a5
    9824:	8ed1                	or	a3,a3,a2
    9826:	973e                	add	a4,a4,a5
    9828:	9eb6                	add	t4,t4,a3
    982a:	00deb6b3          	sltu	a3,t4,a3
    982e:	00e68a33          	add	s4,a3,a4
    9832:	8476                	mv	s0,t4
    9834:	8aae                	mv	s5,a1
    9836:	be11                	j	934a <__adddf3+0x2fc>
    9838:	8aae                	mv	s5,a1
    983a:	84b6                	mv	s1,a3
    983c:	baf5                	j	9238 <__adddf3+0x1ea>
    983e:	01d71613          	slli	a2,a4,0x1d
    9842:	003ede93          	srli	t4,t4,0x3
    9846:	01d66633          	or	a2,a2,t4
    984a:	830d                	srli	a4,a4,0x3
    984c:	4785                	li	a5,1
    984e:	b131                	j	945a <__adddf3+0x40c>
    9850:	d78d                	beqz	a5,977a <__adddf3+0x72c>
    9852:	01d76eb3          	or	t4,a4,t4
    9856:	b60e9ee3          	bnez	t4,93d2 <__adddf3+0x384>
    985a:	b731                	j	9766 <__adddf3+0x718>
    985c:	060e                	slli	a2,a2,0x3
    985e:	00365413          	srli	s0,a2,0x3
    9862:	8a3a                	mv	s4,a4
    9864:	bea1                	j	93bc <__adddf3+0x36e>
    9866:	87b2                	mv	a5,a2
    9868:	b151                	j	94ec <__adddf3+0x49e>
    986a:	fe078613          	addi	a2,a5,-32
    986e:	02000693          	li	a3,32
    9872:	00ca5633          	srl	a2,s4,a2
    9876:	00d78a63          	beq	a5,a3,988a <__adddf3+0x83c>
    987a:	04000693          	li	a3,64
    987e:	40f687b3          	sub	a5,a3,a5
    9882:	00fa17b3          	sll	a5,s4,a5
    9886:	00fe6e33          	or	t3,t3,a5
    988a:	01c036b3          	snez	a3,t3
    988e:	8ed1                	or	a3,a3,a2
    9890:	bf61                	j	9828 <__adddf3+0x7da>
    9892:	02000713          	li	a4,32
    9896:	8f1d                	sub	a4,a4,a5
    9898:	4601                	li	a2,0
    989a:	baf9                	j	9278 <__adddf3+0x22a>
    989c:	9e068ae3          	beqz	a3,9290 <__adddf3+0x242>
    98a0:	8476                	mv	s0,t4
    98a2:	8a3a                	mv	s4,a4
    98a4:	4781                	li	a5,0
    98a6:	800d                	srli	s0,s0,0x3
    98a8:	be11                	j	93bc <__adddf3+0x36e>
    98aa:	00f5e633          	or	a2,a1,a5
    98ae:	c8060ce3          	beqz	a2,9546 <__adddf3+0x4f8>
    98b2:	8a3e                	mv	s4,a5
    98b4:	8e2e                	mv	t3,a1
    98b6:	b129                	j	94c0 <__adddf3+0x472>
    98b8:	838d                	srli	a5,a5,0x3
    98ba:	0676                	slli	a2,a2,0x1d
    98bc:	8e5d                	or	a2,a2,a5
    98be:	8311                	srli	a4,a4,0x4
    98c0:	4789                	li	a5,2
    98c2:	be61                	j	945a <__adddf3+0x40c>
    98c4:	4801                	li	a6,0
    98c6:	7ff00793          	li	a5,2047
    98ca:	00080737          	lui	a4,0x80
    98ce:	b065                	j	9176 <__adddf3+0x128>
    98d0:	87b6                	mv	a5,a3
    98d2:	b73d                	j	9800 <__adddf3+0x7b2>
    98d4:	ff800737          	lui	a4,0xff800
    98d8:	177d                	addi	a4,a4,-1 # ff7fffff <linker_stack_start+0xef7d000f>
    98da:	00ea7733          	and	a4,s4,a4
    98de:	01d71613          	slli	a2,a4,0x1d
    98e2:	003ede93          	srli	t4,t4,0x3
    98e6:	830d                	srli	a4,a4,0x3
    98e8:	01d66633          	or	a2,a2,t4
    98ec:	00677733          	and	a4,a4,t1
    98f0:	4785                	li	a5,1
    98f2:	b051                	j	9176 <__adddf3+0x128>
    98f4:	8abe                	mv	s5,a5
    98f6:	84b6                	mv	s1,a3
    98f8:	ff2ff06f          	j	90ea <__adddf3+0x9c>
    98fc:	01d71613          	slli	a2,a4,0x1d
    9900:	003e5e13          	srli	t3,t3,0x3
    9904:	00ce6633          	or	a2,t3,a2
    9908:	830d                	srli	a4,a4,0x3
    990a:	4781                	li	a5,0
    990c:	b6b9                	j	945a <__adddf3+0x40c>
    990e:	800d                	srli	s0,s0,0x3
    9910:	87d6                	mv	a5,s5
    9912:	b46d                	j	93bc <__adddf3+0x36e>

00009914 <__divdf3>:
    9914:	7179                	addi	sp,sp,-48
    9916:	0145d793          	srli	a5,a1,0x14
    991a:	d422                	sw	s0,40(sp)
    991c:	d226                	sw	s1,36(sp)
    991e:	cc52                	sw	s4,24(sp)
    9920:	ca56                	sw	s5,20(sp)
    9922:	c266                	sw	s9,4(sp)
    9924:	00c59493          	slli	s1,a1,0xc
    9928:	d606                	sw	ra,44(sp)
    992a:	d04a                	sw	s2,32(sp)
    992c:	ce4e                	sw	s3,28(sp)
    992e:	c85a                	sw	s6,16(sp)
    9930:	c65e                	sw	s7,12(sp)
    9932:	c462                	sw	s8,8(sp)
    9934:	c06a                	sw	s10,0(sp)
    9936:	7ff7f793          	andi	a5,a5,2047
    993a:	842a                	mv	s0,a0
    993c:	8cb2                	mv	s9,a2
    993e:	8a36                	mv	s4,a3
    9940:	80b1                	srli	s1,s1,0xc
    9942:	01f5da93          	srli	s5,a1,0x1f
    9946:	12078a63          	beqz	a5,9a7a <__divdf3+0x166>
    994a:	7ff00713          	li	a4,2047
    994e:	06e78b63          	beq	a5,a4,99c4 <__divdf3+0xb0>
    9952:	048e                	slli	s1,s1,0x3
    9954:	01d55b93          	srli	s7,a0,0x1d
    9958:	009bebb3          	or	s7,s7,s1
    995c:	00800737          	lui	a4,0x800
    9960:	c0178b13          	addi	s6,a5,-1023
    9964:	00351c13          	slli	s8,a0,0x3
    9968:	00ebebb3          	or	s7,s7,a4
    996c:	4481                	li	s1,0
    996e:	4d01                	li	s10,0
    9970:	014a5793          	srli	a5,s4,0x14
    9974:	00ca1413          	slli	s0,s4,0xc
    9978:	7ff7f793          	andi	a5,a5,2047
    997c:	8031                	srli	s0,s0,0xc
    997e:	01fa5a13          	srli	s4,s4,0x1f
    9982:	c3bd                	beqz	a5,99e8 <__divdf3+0xd4>
    9984:	7ff00713          	li	a4,2047
    9988:	0ce78f63          	beq	a5,a4,9a66 <__divdf3+0x152>
    998c:	040e                	slli	s0,s0,0x3
    998e:	01dcd713          	srli	a4,s9,0x1d
    9992:	c0178793          	addi	a5,a5,-1023
    9996:	8f41                	or	a4,a4,s0
    9998:	00800437          	lui	s0,0x800
    999c:	40fb0b33          	sub	s6,s6,a5
    99a0:	8c59                	or	s0,s0,a4
    99a2:	003c9793          	slli	a5,s9,0x3
    99a6:	4601                	li	a2,0
    99a8:	473d                	li	a4,15
    99aa:	014ac5b3          	xor	a1,s5,s4
    99ae:	18976e63          	bltu	a4,s1,9b4a <__divdf3+0x236>
    99b2:	10011697          	auipc	a3,0x10011
    99b6:	c5668693          	addi	a3,a3,-938 # 1001a608 <_ZZL5_ftoaPFvcPvjjEPcjjdjjjE5pow10+0x50>
    99ba:	048a                	slli	s1,s1,0x2
    99bc:	94b6                	add	s1,s1,a3
    99be:	4098                	lw	a4,0(s1)
    99c0:	9736                	add	a4,a4,a3
    99c2:	8702                	jr	a4
    99c4:	00a4ebb3          	or	s7,s1,a0
    99c8:	140b9c63          	bnez	s7,9b20 <__divdf3+0x20c>
    99cc:	8b3e                	mv	s6,a5
    99ce:	014a5793          	srli	a5,s4,0x14
    99d2:	00ca1413          	slli	s0,s4,0xc
    99d6:	7ff7f793          	andi	a5,a5,2047
    99da:	4c01                	li	s8,0
    99dc:	44a1                	li	s1,8
    99de:	4d09                	li	s10,2
    99e0:	8031                	srli	s0,s0,0xc
    99e2:	01fa5a13          	srli	s4,s4,0x1f
    99e6:	ffd9                	bnez	a5,9984 <__divdf3+0x70>
    99e8:	019467b3          	or	a5,s0,s9
    99ec:	14078563          	beqz	a5,9b36 <__divdf3+0x222>
    99f0:	36040663          	beqz	s0,9d5c <__divdf3+0x448>
    99f4:	8522                	mv	a0,s0
    99f6:	694010ef          	jal	b08a <__clzsi2>
    99fa:	872a                	mv	a4,a0
    99fc:	ff550793          	addi	a5,a0,-11
    9a00:	46f5                	li	a3,29
    9a02:	8e9d                	sub	a3,a3,a5
    9a04:	ff870793          	addi	a5,a4,-8 # 7ffff8 <__rodata_start__+0x7f4f00>
    9a08:	00f41433          	sll	s0,s0,a5
    9a0c:	00dcd6b3          	srl	a3,s9,a3
    9a10:	8c55                	or	s0,s0,a3
    9a12:	00fc97b3          	sll	a5,s9,a5
    9a16:	975a                	add	a4,a4,s6
    9a18:	3f370b13          	addi	s6,a4,1011
    9a1c:	4601                	li	a2,0
    9a1e:	b769                	j	99a8 <__divdf3+0x94>
    9a20:	7ff00793          	li	a5,2047
    9a24:	4681                	li	a3,0
    9a26:	4701                	li	a4,0
    9a28:	50b2                	lw	ra,44(sp)
    9a2a:	5422                	lw	s0,40(sp)
    9a2c:	07d2                	slli	a5,a5,0x14
    9a2e:	05fe                	slli	a1,a1,0x1f
    9a30:	8fd5                	or	a5,a5,a3
    9a32:	8fcd                	or	a5,a5,a1
    9a34:	5492                	lw	s1,36(sp)
    9a36:	5902                	lw	s2,32(sp)
    9a38:	49f2                	lw	s3,28(sp)
    9a3a:	4a62                	lw	s4,24(sp)
    9a3c:	4ad2                	lw	s5,20(sp)
    9a3e:	4b42                	lw	s6,16(sp)
    9a40:	4bb2                	lw	s7,12(sp)
    9a42:	4c22                	lw	s8,8(sp)
    9a44:	4c92                	lw	s9,4(sp)
    9a46:	4d02                	lw	s10,0(sp)
    9a48:	853a                	mv	a0,a4
    9a4a:	85be                	mv	a1,a5
    9a4c:	6145                	addi	sp,sp,48
    9a4e:	8082                	ret
    9a50:	4781                	li	a5,0
    9a52:	4681                	li	a3,0
    9a54:	4701                	li	a4,0
    9a56:	bfc9                	j	9a28 <__divdf3+0x114>
    9a58:	4581                	li	a1,0
    9a5a:	7ff00793          	li	a5,2047
    9a5e:	000806b7          	lui	a3,0x80
    9a62:	4701                	li	a4,0
    9a64:	b7d1                	j	9a28 <__divdf3+0x114>
    9a66:	019467b3          	or	a5,s0,s9
    9a6a:	801b0b13          	addi	s6,s6,-2047
    9a6e:	ebe9                	bnez	a5,9b40 <__divdf3+0x22c>
    9a70:	0024e493          	ori	s1,s1,2
    9a74:	4401                	li	s0,0
    9a76:	4609                	li	a2,2
    9a78:	bf05                	j	99a8 <__divdf3+0x94>
    9a7a:	00a4ebb3          	or	s7,s1,a0
    9a7e:	0a0b8763          	beqz	s7,9b2c <__divdf3+0x218>
    9a82:	2a048f63          	beqz	s1,9d40 <__divdf3+0x42c>
    9a86:	8526                	mv	a0,s1
    9a88:	602010ef          	jal	b08a <__clzsi2>
    9a8c:	872a                	mv	a4,a0
    9a8e:	ff550793          	addi	a5,a0,-11
    9a92:	4bf5                	li	s7,29
    9a94:	ff870c13          	addi	s8,a4,-8
    9a98:	40fb8bb3          	sub	s7,s7,a5
    9a9c:	018494b3          	sll	s1,s1,s8
    9aa0:	01745bb3          	srl	s7,s0,s7
    9aa4:	009bebb3          	or	s7,s7,s1
    9aa8:	01841c33          	sll	s8,s0,s8
    9aac:	c0d00793          	li	a5,-1011
    9ab0:	40e78b33          	sub	s6,a5,a4
    9ab4:	4481                	li	s1,0
    9ab6:	4d01                	li	s10,0
    9ab8:	bd65                	j	9970 <__divdf3+0x5c>
    9aba:	85d6                	mv	a1,s5
    9abc:	845e                	mv	s0,s7
    9abe:	87e2                	mv	a5,s8
    9ac0:	4709                	li	a4,2
    9ac2:	f4ed0fe3          	beq	s10,a4,9a20 <__divdf3+0x10c>
    9ac6:	470d                	li	a4,3
    9ac8:	f8ed08e3          	beq	s10,a4,9a58 <__divdf3+0x144>
    9acc:	4705                	li	a4,1
    9ace:	f8ed01e3          	beq	s10,a4,9a50 <__divdf3+0x13c>
    9ad2:	3ffb0f93          	addi	t6,s6,1023
    9ad6:	877e                	mv	a4,t6
    9ad8:	3bf05a63          	blez	t6,9e8c <__divdf3+0x578>
    9adc:	0077f693          	andi	a3,a5,7
    9ae0:	30069463          	bnez	a3,9de8 <__divdf3+0x4d4>
    9ae4:	0037d513          	srli	a0,a5,0x3
    9ae8:	00741793          	slli	a5,s0,0x7
    9aec:	0007d863          	bgez	a5,9afc <__divdf3+0x1e8>
    9af0:	ff0007b7          	lui	a5,0xff000
    9af4:	17fd                	addi	a5,a5,-1 # feffffff <linker_stack_start+0xeefd000f>
    9af6:	400b0713          	addi	a4,s6,1024
    9afa:	8c7d                	and	s0,s0,a5
    9afc:	7fe00793          	li	a5,2046
    9b00:	f2e7c0e3          	blt	a5,a4,9a20 <__divdf3+0x10c>
    9b04:	01d41693          	slli	a3,s0,0x1d
    9b08:	00941613          	slli	a2,s0,0x9
    9b0c:	7ff77793          	andi	a5,a4,2047
    9b10:	00a6e733          	or	a4,a3,a0
    9b14:	00c65693          	srli	a3,a2,0xc
    9b18:	bf01                	j	9a28 <__divdf3+0x114>
    9b1a:	85d2                	mv	a1,s4
    9b1c:	8d32                	mv	s10,a2
    9b1e:	b74d                	j	9ac0 <__divdf3+0x1ac>
    9b20:	8ba6                	mv	s7,s1
    9b22:	8c2a                	mv	s8,a0
    9b24:	8b3e                	mv	s6,a5
    9b26:	44b1                	li	s1,12
    9b28:	4d0d                	li	s10,3
    9b2a:	b599                	j	9970 <__divdf3+0x5c>
    9b2c:	4c01                	li	s8,0
    9b2e:	4491                	li	s1,4
    9b30:	4b01                	li	s6,0
    9b32:	4d05                	li	s10,1
    9b34:	bd35                	j	9970 <__divdf3+0x5c>
    9b36:	0014e493          	ori	s1,s1,1
    9b3a:	4401                	li	s0,0
    9b3c:	4605                	li	a2,1
    9b3e:	b5ad                	j	99a8 <__divdf3+0x94>
    9b40:	0034e493          	ori	s1,s1,3
    9b44:	87e6                	mv	a5,s9
    9b46:	460d                	li	a2,3
    9b48:	b585                	j	99a8 <__divdf3+0x94>
    9b4a:	1f746263          	bltu	s0,s7,9d2e <__divdf3+0x41a>
    9b4e:	1c8b8e63          	beq	s7,s0,9d2a <__divdf3+0x416>
    9b52:	86e2                	mv	a3,s8
    9b54:	1b7d                	addi	s6,s6,-1
    9b56:	4c01                	li	s8,0
    9b58:	00841713          	slli	a4,s0,0x8
    9b5c:	01075313          	srli	t1,a4,0x10
    9b60:	026bd433          	divu	s0,s7,t1
    9b64:	0187d613          	srli	a2,a5,0x18
    9b68:	8e59                	or	a2,a2,a4
    9b6a:	01061893          	slli	a7,a2,0x10
    9b6e:	0108d893          	srli	a7,a7,0x10
    9b72:	0106d713          	srli	a4,a3,0x10
    9b76:	00879813          	slli	a6,a5,0x8
    9b7a:	026bfbb3          	remu	s7,s7,t1
    9b7e:	02888533          	mul	a0,a7,s0
    9b82:	0bc2                	slli	s7,s7,0x10
    9b84:	017767b3          	or	a5,a4,s7
    9b88:	00a7f863          	bgeu	a5,a0,9b98 <__divdf3+0x284>
    9b8c:	97b2                	add	a5,a5,a2
    9b8e:	fff40713          	addi	a4,s0,-1 # 7fffff <__rodata_start__+0x7f4f07>
    9b92:	24c7f663          	bgeu	a5,a2,9dde <__divdf3+0x4ca>
    9b96:	843a                	mv	s0,a4
    9b98:	8f89                	sub	a5,a5,a0
    9b9a:	0267d733          	divu	a4,a5,t1
    9b9e:	06c2                	slli	a3,a3,0x10
    9ba0:	82c1                	srli	a3,a3,0x10
    9ba2:	0267f7b3          	remu	a5,a5,t1
    9ba6:	02e88fb3          	mul	t6,a7,a4
    9baa:	07c2                	slli	a5,a5,0x10
    9bac:	8edd                	or	a3,a3,a5
    9bae:	01f6f863          	bgeu	a3,t6,9bbe <__divdf3+0x2aa>
    9bb2:	96b2                	add	a3,a3,a2
    9bb4:	fff70793          	addi	a5,a4,-1
    9bb8:	20c6fe63          	bgeu	a3,a2,9dd4 <__divdf3+0x4c0>
    9bbc:	873e                	mv	a4,a5
    9bbe:	0442                	slli	s0,s0,0x10
    9bc0:	8c59                	or	s0,s0,a4
    9bc2:	01041793          	slli	a5,s0,0x10
    9bc6:	01081e13          	slli	t3,a6,0x10
    9bca:	83c1                	srli	a5,a5,0x10
    9bcc:	010e5e13          	srli	t3,t3,0x10
    9bd0:	01085e93          	srli	t4,a6,0x10
    9bd4:	01045513          	srli	a0,s0,0x10
    9bd8:	02fe8733          	mul	a4,t4,a5
    9bdc:	41f686b3          	sub	a3,a3,t6
    9be0:	03c78f33          	mul	t5,a5,t3
    9be4:	03c50fb3          	mul	t6,a0,t3
    9be8:	010f5793          	srli	a5,t5,0x10
    9bec:	977e                	add	a4,a4,t6
    9bee:	97ba                	add	a5,a5,a4
    9bf0:	03d50533          	mul	a0,a0,t4
    9bf4:	01f7f463          	bgeu	a5,t6,9bfc <__divdf3+0x2e8>
    9bf8:	6741                	lui	a4,0x10
    9bfa:	953a                	add	a0,a0,a4
    9bfc:	010f1f93          	slli	t6,t5,0x10
    9c00:	0107d713          	srli	a4,a5,0x10
    9c04:	01079f13          	slli	t5,a5,0x10
    9c08:	010fdf93          	srli	t6,t6,0x10
    9c0c:	00a707b3          	add	a5,a4,a0
    9c10:	9f7e                	add	t5,t5,t6
    9c12:	0ef6e263          	bltu	a3,a5,9cf6 <__divdf3+0x3e2>
    9c16:	0cf68e63          	beq	a3,a5,9cf2 <__divdf3+0x3de>
    9c1a:	41ec0f33          	sub	t5,s8,t5
    9c1e:	01ec3c33          	sltu	s8,s8,t5
    9c22:	8e9d                	sub	a3,a3,a5
    9c24:	3ffb0f93          	addi	t6,s6,1023
    9c28:	418686b3          	sub	a3,a3,s8
    9c2c:	877e                	mv	a4,t6
    9c2e:	16d60463          	beq	a2,a3,9d96 <__divdf3+0x482>
    9c32:	0266d7b3          	divu	a5,a3,t1
    9c36:	010f5513          	srli	a0,t5,0x10
    9c3a:	0266f6b3          	remu	a3,a3,t1
    9c3e:	02f882b3          	mul	t0,a7,a5
    9c42:	06c2                	slli	a3,a3,0x10
    9c44:	8ec9                	or	a3,a3,a0
    9c46:	0056fb63          	bgeu	a3,t0,9c5c <__divdf3+0x348>
    9c4a:	96b2                	add	a3,a3,a2
    9c4c:	fff78513          	addi	a0,a5,-1
    9c50:	1ac6e263          	bltu	a3,a2,9df4 <__divdf3+0x4e0>
    9c54:	1a56f063          	bgeu	a3,t0,9df4 <__divdf3+0x4e0>
    9c58:	17f9                	addi	a5,a5,-2
    9c5a:	96b2                	add	a3,a3,a2
    9c5c:	405686b3          	sub	a3,a3,t0
    9c60:	0266d533          	divu	a0,a3,t1
    9c64:	0f42                	slli	t5,t5,0x10
    9c66:	010f5f13          	srli	t5,t5,0x10
    9c6a:	0266f6b3          	remu	a3,a3,t1
    9c6e:	02a888b3          	mul	a7,a7,a0
    9c72:	06c2                	slli	a3,a3,0x10
    9c74:	00df6f33          	or	t5,t5,a3
    9c78:	011f7b63          	bgeu	t5,a7,9c8e <__divdf3+0x37a>
    9c7c:	9f32                	add	t5,t5,a2
    9c7e:	fff50693          	addi	a3,a0,-1
    9c82:	16cf6b63          	bltu	t5,a2,9df8 <__divdf3+0x4e4>
    9c86:	171f7963          	bgeu	t5,a7,9df8 <__divdf3+0x4e4>
    9c8a:	1579                	addi	a0,a0,-2
    9c8c:	9f32                	add	t5,t5,a2
    9c8e:	07c2                	slli	a5,a5,0x10
    9c90:	8fc9                	or	a5,a5,a0
    9c92:	01079693          	slli	a3,a5,0x10
    9c96:	82c1                	srli	a3,a3,0x10
    9c98:	0107d293          	srli	t0,a5,0x10
    9c9c:	02de8533          	mul	a0,t4,a3
    9ca0:	411f0f33          	sub	t5,t5,a7
    9ca4:	03c28333          	mul	t1,t0,t3
    9ca8:	02de0e33          	mul	t3,t3,a3
    9cac:	951a                	add	a0,a0,t1
    9cae:	010e5693          	srli	a3,t3,0x10
    9cb2:	96aa                	add	a3,a3,a0
    9cb4:	025e8eb3          	mul	t4,t4,t0
    9cb8:	0066f463          	bgeu	a3,t1,9cc0 <__divdf3+0x3ac>
    9cbc:	6541                	lui	a0,0x10
    9cbe:	9eaa                	add	t4,t4,a0
    9cc0:	0106d513          	srli	a0,a3,0x10
    9cc4:	0e42                	slli	t3,t3,0x10
    9cc6:	010e5e13          	srli	t3,t3,0x10
    9cca:	06c2                	slli	a3,a3,0x10
    9ccc:	9576                	add	a0,a0,t4
    9cce:	96f2                	add	a3,a3,t3
    9cd0:	0aaf6763          	bltu	t5,a0,9d7e <__divdf3+0x46a>
    9cd4:	0aaf0363          	beq	t5,a0,9d7a <__divdf3+0x466>
    9cd8:	c0200693          	li	a3,-1022
    9cdc:	0017e793          	ori	a5,a5,1
    9ce0:	12db4863          	blt	s6,a3,9e10 <__divdf3+0x4fc>
    9ce4:	00478513          	addi	a0,a5,4
    9ce8:	00f537b3          	sltu	a5,a0,a5
    9cec:	810d                	srli	a0,a0,0x3
    9cee:	943e                	add	s0,s0,a5
    9cf0:	bbe5                	j	9ae8 <__divdf3+0x1d4>
    9cf2:	f3ec74e3          	bgeu	s8,t5,9c1a <__divdf3+0x306>
    9cf6:	010c0733          	add	a4,s8,a6
    9cfa:	01873533          	sltu	a0,a4,s8
    9cfe:	00c50fb3          	add	t6,a0,a2
    9d02:	96fe                	add	a3,a3,t6
    9d04:	8c3a                	mv	s8,a4
    9d06:	fff40f93          	addi	t6,s0,-1
    9d0a:	0cd67163          	bgeu	a2,a3,9dcc <__divdf3+0x4b8>
    9d0e:	00f6e663          	bltu	a3,a5,9d1a <__divdf3+0x406>
    9d12:	0ad79f63          	bne	a5,a3,9dd0 <__divdf3+0x4bc>
    9d16:	0be77d63          	bgeu	a4,t5,9dd0 <__divdf3+0x4bc>
    9d1a:	9742                	add	a4,a4,a6
    9d1c:	01073533          	sltu	a0,a4,a6
    9d20:	9532                	add	a0,a0,a2
    9d22:	1479                	addi	s0,s0,-2
    9d24:	96aa                	add	a3,a3,a0
    9d26:	8c3a                	mv	s8,a4
    9d28:	bdcd                	j	9c1a <__divdf3+0x306>
    9d2a:	e2fc64e3          	bltu	s8,a5,9b52 <__divdf3+0x23e>
    9d2e:	01fb9693          	slli	a3,s7,0x1f
    9d32:	001c5713          	srli	a4,s8,0x1
    9d36:	001bdb93          	srli	s7,s7,0x1
    9d3a:	8ed9                	or	a3,a3,a4
    9d3c:	0c7e                	slli	s8,s8,0x1f
    9d3e:	bd29                	j	9b58 <__divdf3+0x244>
    9d40:	34a010ef          	jal	b08a <__clzsi2>
    9d44:	01550793          	addi	a5,a0,21 # 10015 <__rodata_start__+0x4f1d>
    9d48:	46f1                	li	a3,28
    9d4a:	02050713          	addi	a4,a0,32
    9d4e:	d4f6d2e3          	bge	a3,a5,9a92 <__divdf3+0x17e>
    9d52:	1561                	addi	a0,a0,-8
    9d54:	00a41bb3          	sll	s7,s0,a0
    9d58:	4c01                	li	s8,0
    9d5a:	bb89                	j	9aac <__divdf3+0x198>
    9d5c:	8566                	mv	a0,s9
    9d5e:	32c010ef          	jal	b08a <__clzsi2>
    9d62:	01550793          	addi	a5,a0,21
    9d66:	46f1                	li	a3,28
    9d68:	02050713          	addi	a4,a0,32
    9d6c:	c8f6dae3          	bge	a3,a5,9a00 <__divdf3+0xec>
    9d70:	1561                	addi	a0,a0,-8
    9d72:	00ac9433          	sll	s0,s9,a0
    9d76:	4781                	li	a5,0
    9d78:	b979                	j	9a16 <__divdf3+0x102>
    9d7a:	d4068ee3          	beqz	a3,9ad6 <__divdf3+0x1c2>
    9d7e:	9f32                	add	t5,t5,a2
    9d80:	88fa                	mv	a7,t5
    9d82:	fff78313          	addi	t1,a5,-1
    9d86:	06cf6b63          	bltu	t5,a2,9dfc <__divdf3+0x4e8>
    9d8a:	12af6a63          	bltu	t5,a0,9ebe <__divdf3+0x5aa>
    9d8e:	14af0363          	beq	t5,a0,9ed4 <__divdf3+0x5c0>
    9d92:	879a                	mv	a5,t1
    9d94:	b791                	j	9cd8 <__divdf3+0x3c4>
    9d96:	4501                	li	a0,0
    9d98:	4785                	li	a5,1
    9d9a:	f5f04ae3          	bgtz	t6,9cee <__divdf3+0x3da>
    9d9e:	080f9663          	bnez	t6,9e2a <__divdf3+0x516>
    9da2:	80000737          	lui	a4,0x80000
    9da6:	01f41793          	slli	a5,s0,0x1f
    9daa:	177d                	addi	a4,a4,-1 # 7fffffff <linker_stack_start+0x6ffd000f>
    9dac:	8fd9                	or	a5,a5,a4
    9dae:	8005                	srli	s0,s0,0x1
    9db0:	00478713          	addi	a4,a5,4
    9db4:	00f737b3          	sltu	a5,a4,a5
    9db8:	943e                	add	s0,s0,a5
    9dba:	87ba                	mv	a5,a4
    9dbc:	00841713          	slli	a4,s0,0x8
    9dc0:	12075963          	bgez	a4,9ef2 <__divdf3+0x5de>
    9dc4:	4785                	li	a5,1
    9dc6:	4681                	li	a3,0
    9dc8:	4701                	li	a4,0
    9dca:	b9b9                	j	9a28 <__divdf3+0x114>
    9dcc:	02d60e63          	beq	a2,a3,9e08 <__divdf3+0x4f4>
    9dd0:	847e                	mv	s0,t6
    9dd2:	b5a1                	j	9c1a <__divdf3+0x306>
    9dd4:	dff6f4e3          	bgeu	a3,t6,9bbc <__divdf3+0x2a8>
    9dd8:	1779                	addi	a4,a4,-2
    9dda:	96b2                	add	a3,a3,a2
    9ddc:	b3cd                	j	9bbe <__divdf3+0x2aa>
    9dde:	daa7fce3          	bgeu	a5,a0,9b96 <__divdf3+0x282>
    9de2:	1479                	addi	s0,s0,-2
    9de4:	97b2                	add	a5,a5,a2
    9de6:	bb4d                	j	9b98 <__divdf3+0x284>
    9de8:	00f7f693          	andi	a3,a5,15
    9dec:	4611                	li	a2,4
    9dee:	cec68be3          	beq	a3,a2,9ae4 <__divdf3+0x1d0>
    9df2:	bdcd                	j	9ce4 <__divdf3+0x3d0>
    9df4:	87aa                	mv	a5,a0
    9df6:	b59d                	j	9c5c <__divdf3+0x348>
    9df8:	8536                	mv	a0,a3
    9dfa:	bd51                	j	9c8e <__divdf3+0x37a>
    9dfc:	879a                	mv	a5,t1
    9dfe:	eca89de3          	bne	a7,a0,9cd8 <__divdf3+0x3c4>
    9e02:	ed069be3          	bne	a3,a6,9cd8 <__divdf3+0x3c4>
    9e06:	b9c1                	j	9ad6 <__divdf3+0x1c2>
    9e08:	f561                	bnez	a0,9dd0 <__divdf3+0x4bc>
    9e0a:	f0f6e8e3          	bltu	a3,a5,9d1a <__divdf3+0x406>
    9e0e:	b711                	j	9d12 <__divdf3+0x3fe>
    9e10:	c0100713          	li	a4,-1023
    9e14:	00eb1c63          	bne	s6,a4,9e2c <__divdf3+0x518>
    9e18:	0017d713          	srli	a4,a5,0x1
    9e1c:	00176713          	ori	a4,a4,1
    9e20:	01f41793          	slli	a5,s0,0x1f
    9e24:	8fd9                	or	a5,a5,a4
    9e26:	8005                	srli	s0,s0,0x1
    9e28:	b761                	j	9db0 <__divdf3+0x49c>
    9e2a:	57fd                	li	a5,-1
    9e2c:	4705                	li	a4,1
    9e2e:	41f70733          	sub	a4,a4,t6
    9e32:	03800693          	li	a3,56
    9e36:	c0e6cde3          	blt	a3,a4,9a50 <__divdf3+0x13c>
    9e3a:	46fd                	li	a3,31
    9e3c:	0ae6d263          	bge	a3,a4,9ee0 <__divdf3+0x5cc>
    9e40:	5685                	li	a3,-31
    9e42:	41f686b3          	sub	a3,a3,t6
    9e46:	02000613          	li	a2,32
    9e4a:	00d456b3          	srl	a3,s0,a3
    9e4e:	00c70763          	beq	a4,a2,9e5c <__divdf3+0x548>
    9e52:	43eb0b13          	addi	s6,s6,1086
    9e56:	01641433          	sll	s0,s0,s6
    9e5a:	8fc1                	or	a5,a5,s0
    9e5c:	00f037b3          	snez	a5,a5
    9e60:	8fd5                	or	a5,a5,a3
    9e62:	0077f713          	andi	a4,a5,7
    9e66:	4681                	li	a3,0
    9e68:	cf11                	beqz	a4,9e84 <__divdf3+0x570>
    9e6a:	00f7f613          	andi	a2,a5,15
    9e6e:	4511                	li	a0,4
    9e70:	4701                	li	a4,0
    9e72:	00a60963          	beq	a2,a0,9e84 <__divdf3+0x570>
    9e76:	00a78633          	add	a2,a5,a0
    9e7a:	00f637b3          	sltu	a5,a2,a5
    9e7e:	01d79713          	slli	a4,a5,0x1d
    9e82:	87b2                	mv	a5,a2
    9e84:	838d                	srli	a5,a5,0x3
    9e86:	8f5d                	or	a4,a4,a5
    9e88:	4781                	li	a5,0
    9e8a:	be79                	j	9a28 <__divdf3+0x114>
    9e8c:	fa0f90e3          	bnez	t6,9e2c <__divdf3+0x518>
    9e90:	0077f693          	andi	a3,a5,7
    9e94:	0017d613          	srli	a2,a5,0x1
    9e98:	4b7d                	li	s6,31
    9e9a:	4705                	li	a4,1
    9e9c:	e2ad                	bnez	a3,9efe <__divdf3+0x5ea>
    9e9e:	01641b33          	sll	s6,s0,s6
    9ea2:	8e55                	or	a2,a2,a3
    9ea4:	00cb67b3          	or	a5,s6,a2
    9ea8:	0077f693          	andi	a3,a5,7
    9eac:	00e45433          	srl	s0,s0,a4
    9eb0:	d691                	beqz	a3,9dbc <__divdf3+0x4a8>
    9eb2:	00f7f713          	andi	a4,a5,15
    9eb6:	4691                	li	a3,4
    9eb8:	f0d702e3          	beq	a4,a3,9dbc <__divdf3+0x4a8>
    9ebc:	bdd5                	j	9db0 <__divdf3+0x49c>
    9ebe:	00181313          	slli	t1,a6,0x1
    9ec2:	010338b3          	sltu	a7,t1,a6
    9ec6:	98b2                	add	a7,a7,a2
    9ec8:	98fa                	add	a7,a7,t5
    9eca:	17f9                	addi	a5,a5,-2
    9ecc:	881a                	mv	a6,t1
    9ece:	f2a88ae3          	beq	a7,a0,9e02 <__divdf3+0x4ee>
    9ed2:	b519                	j	9cd8 <__divdf3+0x3c4>
    9ed4:	fed865e3          	bltu	a6,a3,9ebe <__divdf3+0x5aa>
    9ed8:	879a                	mv	a5,t1
    9eda:	df069fe3          	bne	a3,a6,9cd8 <__divdf3+0x3c4>
    9ede:	bee5                	j	9ad6 <__divdf3+0x1c2>
    9ee0:	41eb0b13          	addi	s6,s6,1054
    9ee4:	016796b3          	sll	a3,a5,s6
    9ee8:	00d036b3          	snez	a3,a3
    9eec:	00e7d633          	srl	a2,a5,a4
    9ef0:	b77d                	j	9e9e <__divdf3+0x58a>
    9ef2:	00941693          	slli	a3,s0,0x9
    9ef6:	82b1                	srli	a3,a3,0xc
    9ef8:	01d41713          	slli	a4,s0,0x1d
    9efc:	b761                	j	9e84 <__divdf3+0x570>
    9efe:	00e7f6b3          	and	a3,a5,a4
    9f02:	bf71                	j	9e9e <__divdf3+0x58a>

00009f04 <__eqdf2>:
    9f04:	0145d713          	srli	a4,a1,0x14
    9f08:	001007b7          	lui	a5,0x100
    9f0c:	0146d813          	srli	a6,a3,0x14
    9f10:	17fd                	addi	a5,a5,-1 # fffff <__rodata_start__+0xf4f07>
    9f12:	7ff00313          	li	t1,2047
    9f16:	7ff77713          	andi	a4,a4,2047
    9f1a:	00b7fe33          	and	t3,a5,a1
    9f1e:	88aa                	mv	a7,a0
    9f20:	8ff5                	and	a5,a5,a3
    9f22:	00687833          	and	a6,a6,t1
    9f26:	81fd                	srli	a1,a1,0x1f
    9f28:	82fd                	srli	a3,a3,0x1f
    9f2a:	4505                	li	a0,1
    9f2c:	00670a63          	beq	a4,t1,9f40 <__eqdf2+0x3c>
    9f30:	00680763          	beq	a6,t1,9f3e <__eqdf2+0x3a>
    9f34:	01071463          	bne	a4,a6,9f3c <__eqdf2+0x38>
    9f38:	02fe0063          	beq	t3,a5,9f58 <__eqdf2+0x54>
    9f3c:	8082                	ret
    9f3e:	8082                	ret
    9f40:	fee81ee3          	bne	a6,a4,9f3c <__eqdf2+0x38>
    9f44:	00fe67b3          	or	a5,t3,a5
    9f48:	8fd1                	or	a5,a5,a2
    9f4a:	0117e7b3          	or	a5,a5,a7
    9f4e:	f7fd                	bnez	a5,9f3c <__eqdf2+0x38>
    9f50:	8d95                	sub	a1,a1,a3
    9f52:	00b03533          	snez	a0,a1
    9f56:	8082                	ret
    9f58:	fec892e3          	bne	a7,a2,9f3c <__eqdf2+0x38>
    9f5c:	00d58863          	beq	a1,a3,9f6c <__eqdf2+0x68>
    9f60:	ff71                	bnez	a4,9f3c <__eqdf2+0x38>
    9f62:	011e6e33          	or	t3,t3,a7
    9f66:	01c03533          	snez	a0,t3
    9f6a:	8082                	ret
    9f6c:	4501                	li	a0,0
    9f6e:	8082                	ret

00009f70 <__gedf2>:
    9f70:	0145d893          	srli	a7,a1,0x14
    9f74:	001007b7          	lui	a5,0x100
    9f78:	0146d713          	srli	a4,a3,0x14
    9f7c:	882a                	mv	a6,a0
    9f7e:	17fd                	addi	a5,a5,-1 # fffff <__rodata_start__+0xf4f07>
    9f80:	7ff00313          	li	t1,2047
    9f84:	7ff8f893          	andi	a7,a7,2047
    9f88:	00677533          	and	a0,a4,t1
    9f8c:	8e42                	mv	t3,a6
    9f8e:	00b7f733          	and	a4,a5,a1
    9f92:	8eb2                	mv	t4,a2
    9f94:	8ff5                	and	a5,a5,a3
    9f96:	81fd                	srli	a1,a1,0x1f
    9f98:	82fd                	srli	a3,a3,0x1f
    9f9a:	02688e63          	beq	a7,t1,9fd6 <__gedf2+0x66>
    9f9e:	00650f63          	beq	a0,t1,9fbc <__gedf2+0x4c>
    9fa2:	04089763          	bnez	a7,9ff0 <__gedf2+0x80>
    9fa6:	01076833          	or	a6,a4,a6
    9faa:	e121                	bnez	a0,9fea <__gedf2+0x7a>
    9fac:	8e5d                	or	a2,a2,a5
    9fae:	c235                	beqz	a2,a012 <__gedf2+0xa2>
    9fb0:	06081c63          	bnez	a6,a028 <__gedf2+0xb8>
    9fb4:	00169513          	slli	a0,a3,0x1
    9fb8:	157d                	addi	a0,a0,-1
    9fba:	8082                	ret
    9fbc:	8e5d                	or	a2,a2,a5
    9fbe:	e23d                	bnez	a2,a024 <__gedf2+0xb4>
    9fc0:	00089563          	bnez	a7,9fca <__gedf2+0x5a>
    9fc4:	01076733          	or	a4,a4,a6
    9fc8:	d775                	beqz	a4,9fb4 <__gedf2+0x44>
    9fca:	00d59b63          	bne	a1,a3,9fe0 <__gedf2+0x70>
    9fce:	00159513          	slli	a0,a1,0x1
    9fd2:	157d                	addi	a0,a0,-1
    9fd4:	8082                	ret
    9fd6:	01076733          	or	a4,a4,a6
    9fda:	e729                	bnez	a4,a024 <__gedf2+0xb4>
    9fdc:	03150e63          	beq	a0,a7,a018 <__gedf2+0xa8>
    9fe0:	40b005b3          	neg	a1,a1
    9fe4:	0015e513          	ori	a0,a1,1
    9fe8:	8082                	ret
    9fea:	fc0805e3          	beqz	a6,9fb4 <__gedf2+0x44>
    9fee:	bff1                	j	9fca <__gedf2+0x5a>
    9ff0:	d965                	beqz	a0,9fe0 <__gedf2+0x70>
    9ff2:	fed597e3          	bne	a1,a3,9fe0 <__gedf2+0x70>
    9ff6:	ff1545e3          	blt	a0,a7,9fe0 <__gedf2+0x70>
    9ffa:	fca8cae3          	blt	a7,a0,9fce <__gedf2+0x5e>
    9ffe:	fee7e1e3          	bltu	a5,a4,9fe0 <__gedf2+0x70>
    a002:	fcf716e3          	bne	a4,a5,9fce <__gedf2+0x5e>
    a006:	fdceede3          	bltu	t4,t3,9fe0 <__gedf2+0x70>
    a00a:	4501                	li	a0,0
    a00c:	fdde61e3          	bltu	t3,t4,9fce <__gedf2+0x5e>
    a010:	8082                	ret
    a012:	fc0817e3          	bnez	a6,9fe0 <__gedf2+0x70>
    a016:	8082                	ret
    a018:	8fd1                	or	a5,a5,a2
    a01a:	e789                	bnez	a5,a024 <__gedf2+0xb4>
    a01c:	fcd592e3          	bne	a1,a3,9fe0 <__gedf2+0x70>
    a020:	4501                	li	a0,0
    a022:	8082                	ret
    a024:	5579                	li	a0,-2
    a026:	8082                	ret
    a028:	fcd58be3          	beq	a1,a3,9ffe <__gedf2+0x8e>
    a02c:	bf55                	j	9fe0 <__gedf2+0x70>

0000a02e <__ledf2>:
    a02e:	0145d893          	srli	a7,a1,0x14
    a032:	001007b7          	lui	a5,0x100
    a036:	0146d713          	srli	a4,a3,0x14
    a03a:	882a                	mv	a6,a0
    a03c:	17fd                	addi	a5,a5,-1 # fffff <__rodata_start__+0xf4f07>
    a03e:	7ff00313          	li	t1,2047
    a042:	7ff8f893          	andi	a7,a7,2047
    a046:	00677533          	and	a0,a4,t1
    a04a:	8e42                	mv	t3,a6
    a04c:	00b7f733          	and	a4,a5,a1
    a050:	8eb2                	mv	t4,a2
    a052:	8ff5                	and	a5,a5,a3
    a054:	81fd                	srli	a1,a1,0x1f
    a056:	82fd                	srli	a3,a3,0x1f
    a058:	04688363          	beq	a7,t1,a09e <__ledf2+0x70>
    a05c:	00650f63          	beq	a0,t1,a07a <__ledf2+0x4c>
    a060:	04089b63          	bnez	a7,a0b6 <__ledf2+0x88>
    a064:	01076833          	or	a6,a4,a6
    a068:	e93d                	bnez	a0,a0de <__ledf2+0xb0>
    a06a:	8e5d                	or	a2,a2,a5
    a06c:	c615                	beqz	a2,a098 <__ledf2+0x6a>
    a06e:	06081d63          	bnez	a6,a0e8 <__ledf2+0xba>
    a072:	00169513          	slli	a0,a3,0x1
    a076:	157d                	addi	a0,a0,-1
    a078:	8082                	ret
    a07a:	8e5d                	or	a2,a2,a5
    a07c:	4509                	li	a0,2
    a07e:	ee19                	bnez	a2,a09c <__ledf2+0x6e>
    a080:	00089563          	bnez	a7,a08a <__ledf2+0x5c>
    a084:	01076733          	or	a4,a4,a6
    a088:	d76d                	beqz	a4,a072 <__ledf2+0x44>
    a08a:	04d58663          	beq	a1,a3,a0d6 <__ledf2+0xa8>
    a08e:	40b005b3          	neg	a1,a1
    a092:	0015e513          	ori	a0,a1,1
    a096:	8082                	ret
    a098:	fe081be3          	bnez	a6,a08e <__ledf2+0x60>
    a09c:	8082                	ret
    a09e:	01076733          	or	a4,a4,a6
    a0a2:	e329                	bnez	a4,a0e4 <__ledf2+0xb6>
    a0a4:	ff1515e3          	bne	a0,a7,a08e <__ledf2+0x60>
    a0a8:	8fd1                	or	a5,a5,a2
    a0aa:	4509                	li	a0,2
    a0ac:	fbe5                	bnez	a5,a09c <__ledf2+0x6e>
    a0ae:	fed590e3          	bne	a1,a3,a08e <__ledf2+0x60>
    a0b2:	4501                	li	a0,0
    a0b4:	8082                	ret
    a0b6:	dd61                	beqz	a0,a08e <__ledf2+0x60>
    a0b8:	fcd59be3          	bne	a1,a3,a08e <__ledf2+0x60>
    a0bc:	fd1549e3          	blt	a0,a7,a08e <__ledf2+0x60>
    a0c0:	00a8cb63          	blt	a7,a0,a0d6 <__ledf2+0xa8>
    a0c4:	fce7e5e3          	bltu	a5,a4,a08e <__ledf2+0x60>
    a0c8:	00f71763          	bne	a4,a5,a0d6 <__ledf2+0xa8>
    a0cc:	fdcee1e3          	bltu	t4,t3,a08e <__ledf2+0x60>
    a0d0:	4501                	li	a0,0
    a0d2:	fdde75e3          	bgeu	t3,t4,a09c <__ledf2+0x6e>
    a0d6:	00159513          	slli	a0,a1,0x1
    a0da:	157d                	addi	a0,a0,-1
    a0dc:	8082                	ret
    a0de:	f8080ae3          	beqz	a6,a072 <__ledf2+0x44>
    a0e2:	b765                	j	a08a <__ledf2+0x5c>
    a0e4:	4509                	li	a0,2
    a0e6:	8082                	ret
    a0e8:	fcd58ee3          	beq	a1,a3,a0c4 <__ledf2+0x96>
    a0ec:	b74d                	j	a08e <__ledf2+0x60>

0000a0ee <__muldf3>:
    a0ee:	7179                	addi	sp,sp,-48
    a0f0:	0145d793          	srli	a5,a1,0x14
    a0f4:	d422                	sw	s0,40(sp)
    a0f6:	d226                	sw	s1,36(sp)
    a0f8:	cc52                	sw	s4,24(sp)
    a0fa:	ca56                	sw	s5,20(sp)
    a0fc:	c462                	sw	s8,8(sp)
    a0fe:	00c59413          	slli	s0,a1,0xc
    a102:	d606                	sw	ra,44(sp)
    a104:	d04a                	sw	s2,32(sp)
    a106:	ce4e                	sw	s3,28(sp)
    a108:	c85a                	sw	s6,16(sp)
    a10a:	c65e                	sw	s7,12(sp)
    a10c:	c266                	sw	s9,4(sp)
    a10e:	c06a                	sw	s10,0(sp)
    a110:	7ff7f793          	andi	a5,a5,2047
    a114:	8aaa                	mv	s5,a0
    a116:	8c32                	mv	s8,a2
    a118:	84b6                	mv	s1,a3
    a11a:	8031                	srli	s0,s0,0xc
    a11c:	01f5da13          	srli	s4,a1,0x1f
    a120:	34078263          	beqz	a5,a464 <__muldf3+0x376>
    a124:	7ff00713          	li	a4,2047
    a128:	22e78463          	beq	a5,a4,a350 <__muldf3+0x262>
    a12c:	040e                	slli	s0,s0,0x3
    a12e:	01d55713          	srli	a4,a0,0x1d
    a132:	8f41                	or	a4,a4,s0
    a134:	00800437          	lui	s0,0x800
    a138:	c0178b13          	addi	s6,a5,-1023
    a13c:	00351b93          	slli	s7,a0,0x3
    a140:	8c59                	or	s0,s0,a4
    a142:	4c81                	li	s9,0
    a144:	4d01                	li	s10,0
    a146:	0144d793          	srli	a5,s1,0x14
    a14a:	00c49713          	slli	a4,s1,0xc
    a14e:	7ff7f793          	andi	a5,a5,2047
    a152:	00c75a93          	srli	s5,a4,0xc
    a156:	80fd                	srli	s1,s1,0x1f
    a158:	20078f63          	beqz	a5,a376 <__muldf3+0x288>
    a15c:	7ff00713          	li	a4,2047
    a160:	2ce78e63          	beq	a5,a4,a43c <__muldf3+0x34e>
    a164:	c0178793          	addi	a5,a5,-1023
    a168:	4729                	li	a4,10
    a16a:	9b3e                	add	s6,s6,a5
    a16c:	25974c63          	blt	a4,s9,a3c4 <__muldf3+0x2d6>
    a170:	003a9713          	slli	a4,s5,0x3
    a174:	01dc5793          	srli	a5,s8,0x1d
    a178:	8fd9                	or	a5,a5,a4
    a17a:	009a46b3          	xor	a3,s4,s1
    a17e:	00800737          	lui	a4,0x800
    a182:	4609                	li	a2,2
    a184:	00e7eab3          	or	s5,a5,a4
    a188:	003c1813          	slli	a6,s8,0x3
    a18c:	85b6                	mv	a1,a3
    a18e:	4781                	li	a5,0
    a190:	03965163          	bge	a2,s9,a1b2 <__muldf3+0xc4>
    a194:	4605                	li	a2,1
    a196:	01961633          	sll	a2,a2,s9
    a19a:	53067713          	andi	a4,a2,1328
    a19e:	22071463          	bnez	a4,a3c6 <__muldf3+0x2d8>
    a1a2:	24067593          	andi	a1,a2,576
    a1a6:	3c059b63          	bnez	a1,a57c <__muldf3+0x48e>
    a1aa:	08867613          	andi	a2,a2,136
    a1ae:	3a061a63          	bnez	a2,a562 <__muldf3+0x474>
    a1b2:	010b9793          	slli	a5,s7,0x10
    a1b6:	01081613          	slli	a2,a6,0x10
    a1ba:	83c1                	srli	a5,a5,0x10
    a1bc:	8241                	srli	a2,a2,0x10
    a1be:	010bdb93          	srli	s7,s7,0x10
    a1c2:	01085813          	srli	a6,a6,0x10
    a1c6:	02c78733          	mul	a4,a5,a2
    a1ca:	02cb8533          	mul	a0,s7,a2
    a1ce:	01075313          	srli	t1,a4,0x10
    a1d2:	02f805b3          	mul	a1,a6,a5
    a1d6:	95aa                	add	a1,a1,a0
    a1d8:	932e                	add	t1,t1,a1
    a1da:	030b8eb3          	mul	t4,s7,a6
    a1de:	00a37463          	bgeu	t1,a0,a1e6 <__muldf3+0xf8>
    a1e2:	65c1                	lui	a1,0x10
    a1e4:	9eae                	add	t4,t4,a1
    a1e6:	010a9e13          	slli	t3,s5,0x10
    a1ea:	0742                	slli	a4,a4,0x10
    a1ec:	010e5e13          	srli	t3,t3,0x10
    a1f0:	010ada93          	srli	s5,s5,0x10
    a1f4:	8341                	srli	a4,a4,0x10
    a1f6:	01031593          	slli	a1,t1,0x10
    a1fa:	03cb88b3          	mul	a7,s7,t3
    a1fe:	95ba                	add	a1,a1,a4
    a200:	01035313          	srli	t1,t1,0x10
    a204:	03c78733          	mul	a4,a5,t3
    a208:	02fa87b3          	mul	a5,s5,a5
    a20c:	01075513          	srli	a0,a4,0x10
    a210:	97c6                	add	a5,a5,a7
    a212:	953e                	add	a0,a0,a5
    a214:	035b8bb3          	mul	s7,s7,s5
    a218:	01157463          	bgeu	a0,a7,a220 <__muldf3+0x132>
    a21c:	67c1                	lui	a5,0x10
    a21e:	9bbe                	add	s7,s7,a5
    a220:	01041793          	slli	a5,s0,0x10
    a224:	01071893          	slli	a7,a4,0x10
    a228:	83c1                	srli	a5,a5,0x10
    a22a:	8041                	srli	s0,s0,0x10
    a22c:	0108d893          	srli	a7,a7,0x10
    a230:	01051713          	slli	a4,a0,0x10
    a234:	02f80fb3          	mul	t6,a6,a5
    a238:	9746                	add	a4,a4,a7
    a23a:	8141                	srli	a0,a0,0x10
    a23c:	933a                	add	t1,t1,a4
    a23e:	955e                	add	a0,a0,s7
    a240:	02c408b3          	mul	a7,s0,a2
    a244:	02c78f33          	mul	t5,a5,a2
    a248:	9fc6                	add	t6,t6,a7
    a24a:	010f5613          	srli	a2,t5,0x10
    a24e:	967e                	add	a2,a2,t6
    a250:	02880833          	mul	a6,a6,s0
    a254:	01167463          	bgeu	a2,a7,a25c <__muldf3+0x16e>
    a258:	68c1                	lui	a7,0x10
    a25a:	9846                	add	a6,a6,a7
    a25c:	0f42                	slli	t5,t5,0x10
    a25e:	01061893          	slli	a7,a2,0x10
    a262:	010f5f13          	srli	t5,t5,0x10
    a266:	8241                	srli	a2,a2,0x10
    a268:	9f46                	add	t5,t5,a7
    a26a:	9642                	add	a2,a2,a6
    a26c:	03c408b3          	mul	a7,s0,t3
    a270:	03c78833          	mul	a6,a5,t3
    a274:	02fa87b3          	mul	a5,s5,a5
    a278:	01085e13          	srli	t3,a6,0x10
    a27c:	97c6                	add	a5,a5,a7
    a27e:	9e3e                	add	t3,t3,a5
    a280:	028a8ab3          	mul	s5,s5,s0
    a284:	011e7463          	bgeu	t3,a7,a28c <__muldf3+0x19e>
    a288:	67c1                	lui	a5,0x10
    a28a:	9abe                	add	s5,s5,a5
    a28c:	01081893          	slli	a7,a6,0x10
    a290:	0108d893          	srli	a7,a7,0x10
    a294:	010e1793          	slli	a5,t3,0x10
    a298:	01d30833          	add	a6,t1,t4
    a29c:	97c6                	add	a5,a5,a7
    a29e:	953e                	add	a0,a0,a5
    a2a0:	00e83733          	sltu	a4,a6,a4
    a2a4:	01e808b3          	add	a7,a6,t5
    a2a8:	972a                	add	a4,a4,a0
    a2aa:	963a                	add	a2,a2,a4
    a2ac:	0108b833          	sltu	a6,a7,a6
    a2b0:	9832                	add	a6,a6,a2
    a2b2:	00f537b3          	sltu	a5,a0,a5
    a2b6:	00a73533          	sltu	a0,a4,a0
    a2ba:	8fc9                	or	a5,a5,a0
    a2bc:	00e63733          	sltu	a4,a2,a4
    a2c0:	010e5e13          	srli	t3,t3,0x10
    a2c4:	00c83633          	sltu	a2,a6,a2
    a2c8:	97f2                	add	a5,a5,t3
    a2ca:	8f51                	or	a4,a4,a2
    a2cc:	00989b93          	slli	s7,a7,0x9
    a2d0:	973e                	add	a4,a4,a5
    a2d2:	00bbebb3          	or	s7,s7,a1
    a2d6:	9756                	add	a4,a4,s5
    a2d8:	0726                	slli	a4,a4,0x9
    a2da:	01703bb3          	snez	s7,s7
    a2de:	0178d893          	srli	a7,a7,0x17
    a2e2:	01785413          	srli	s0,a6,0x17
    a2e6:	011bebb3          	or	s7,s7,a7
    a2ea:	0826                	slli	a6,a6,0x9
    a2ec:	00771793          	slli	a5,a4,0x7
    a2f0:	8c59                	or	s0,s0,a4
    a2f2:	010bebb3          	or	s7,s7,a6
    a2f6:	1007c963          	bltz	a5,a408 <__muldf3+0x31a>
    a2fa:	3ffb0793          	addi	a5,s6,1023
    a2fe:	20f05b63          	blez	a5,a514 <__muldf3+0x426>
    a302:	007bf713          	andi	a4,s7,7
    a306:	c715                	beqz	a4,a332 <__muldf3+0x244>
    a308:	00fbf713          	andi	a4,s7,15
    a30c:	4611                	li	a2,4
    a30e:	02c70263          	beq	a4,a2,a332 <__muldf3+0x244>
    a312:	004b8713          	addi	a4,s7,4
    a316:	01773bb3          	sltu	s7,a4,s7
    a31a:	945e                	add	s0,s0,s7
    a31c:	8bba                	mv	s7,a4
    a31e:	00741713          	slli	a4,s0,0x7
    a322:	00075863          	bgez	a4,a332 <__muldf3+0x244>
    a326:	ff000737          	lui	a4,0xff000
    a32a:	177d                	addi	a4,a4,-1 # feffffff <linker_stack_start+0xeefd000f>
    a32c:	400b0793          	addi	a5,s6,1024
    a330:	8c79                	and	s0,s0,a4
    a332:	7fe00713          	li	a4,2046
    a336:	24f74963          	blt	a4,a5,a588 <__muldf3+0x49a>
    a33a:	01d41713          	slli	a4,s0,0x1d
    a33e:	003bdb93          	srli	s7,s7,0x3
    a342:	0426                	slli	s0,s0,0x9
    a344:	7ff7f793          	andi	a5,a5,2047
    a348:	01776733          	or	a4,a4,s7
    a34c:	8031                	srli	s0,s0,0xc
    a34e:	a849                	j	a3e0 <__muldf3+0x2f2>
    a350:	00a46bb3          	or	s7,s0,a0
    a354:	1a0b9463          	bnez	s7,a4fc <__muldf3+0x40e>
    a358:	8b3e                	mv	s6,a5
    a35a:	0144d793          	srli	a5,s1,0x14
    a35e:	00c49713          	slli	a4,s1,0xc
    a362:	7ff7f793          	andi	a5,a5,2047
    a366:	4401                	li	s0,0
    a368:	4ca1                	li	s9,8
    a36a:	4d09                	li	s10,2
    a36c:	00c75a93          	srli	s5,a4,0xc
    a370:	80fd                	srli	s1,s1,0x1f
    a372:	de0795e3          	bnez	a5,a15c <__muldf3+0x6e>
    a376:	018ae833          	or	a6,s5,s8
    a37a:	12080863          	beqz	a6,a4aa <__muldf3+0x3bc>
    a37e:	220a8863          	beqz	s5,a5ae <__muldf3+0x4c0>
    a382:	8556                	mv	a0,s5
    a384:	507000ef          	jal	b08a <__clzsi2>
    a388:	87aa                	mv	a5,a0
    a38a:	ff550713          	addi	a4,a0,-11
    a38e:	46f5                	li	a3,29
    a390:	8e99                	sub	a3,a3,a4
    a392:	ff878813          	addi	a6,a5,-8 # fff8 <__rodata_start__+0x4f00>
    a396:	010a9733          	sll	a4,s5,a6
    a39a:	00dc56b3          	srl	a3,s8,a3
    a39e:	00e6eab3          	or	s5,a3,a4
    a3a2:	010c1833          	sll	a6,s8,a6
    a3a6:	40fb07b3          	sub	a5,s6,a5
    a3aa:	4729                	li	a4,10
    a3ac:	c0d78b13          	addi	s6,a5,-1011
    a3b0:	01974a63          	blt	a4,s9,a3c4 <__muldf3+0x2d6>
    a3b4:	4789                	li	a5,2
    a3b6:	009a46b3          	xor	a3,s4,s1
    a3ba:	df97dce3          	bge	a5,s9,a1b2 <__muldf3+0xc4>
    a3be:	85b6                	mv	a1,a3
    a3c0:	4781                	li	a5,0
    a3c2:	bbc9                	j	a194 <__muldf3+0xa6>
    a3c4:	85d2                	mv	a1,s4
    a3c6:	4789                	li	a5,2
    a3c8:	1afd0463          	beq	s10,a5,a570 <__muldf3+0x482>
    a3cc:	478d                	li	a5,3
    a3ce:	12fd0c63          	beq	s10,a5,a506 <__muldf3+0x418>
    a3d2:	4785                	li	a5,1
    a3d4:	86ae                	mv	a3,a1
    a3d6:	04fd1463          	bne	s10,a5,a41e <__muldf3+0x330>
    a3da:	4781                	li	a5,0
    a3dc:	4401                	li	s0,0
    a3de:	4701                	li	a4,0
    a3e0:	07d2                	slli	a5,a5,0x14
    a3e2:	50b2                	lw	ra,44(sp)
    a3e4:	8fc1                	or	a5,a5,s0
    a3e6:	5422                	lw	s0,40(sp)
    a3e8:	06fe                	slli	a3,a3,0x1f
    a3ea:	8fd5                	or	a5,a5,a3
    a3ec:	5492                	lw	s1,36(sp)
    a3ee:	5902                	lw	s2,32(sp)
    a3f0:	49f2                	lw	s3,28(sp)
    a3f2:	4a62                	lw	s4,24(sp)
    a3f4:	4ad2                	lw	s5,20(sp)
    a3f6:	4b42                	lw	s6,16(sp)
    a3f8:	4bb2                	lw	s7,12(sp)
    a3fa:	4c22                	lw	s8,8(sp)
    a3fc:	4c92                	lw	s9,4(sp)
    a3fe:	4d02                	lw	s10,0(sp)
    a400:	853a                	mv	a0,a4
    a402:	85be                	mv	a1,a5
    a404:	6145                	addi	sp,sp,48
    a406:	8082                	ret
    a408:	001bd793          	srli	a5,s7,0x1
    a40c:	001bfb93          	andi	s7,s7,1
    a410:	0177e7b3          	or	a5,a5,s7
    a414:	01f41b93          	slli	s7,s0,0x1f
    a418:	0177ebb3          	or	s7,a5,s7
    a41c:	8005                	srli	s0,s0,0x1
    a41e:	400b0793          	addi	a5,s6,1024
    a422:	0b05                	addi	s6,s6,1
    a424:	0ef05863          	blez	a5,a514 <__muldf3+0x426>
    a428:	007bf713          	andi	a4,s7,7
    a42c:	ee0709e3          	beqz	a4,a31e <__muldf3+0x230>
    a430:	00fbf713          	andi	a4,s7,15
    a434:	4611                	li	a2,4
    a436:	ecc71ee3          	bne	a4,a2,a312 <__muldf3+0x224>
    a43a:	b5d5                	j	a31e <__muldf3+0x230>
    a43c:	018ae833          	or	a6,s5,s8
    a440:	7ffb0b13          	addi	s6,s6,2047
    a444:	08081b63          	bnez	a6,a4da <__muldf3+0x3ec>
    a448:	002ce793          	ori	a5,s9,2
    a44c:	4729                	li	a4,10
    a44e:	f6f74be3          	blt	a4,a5,a3c4 <__muldf3+0x2d6>
    a452:	009a45b3          	xor	a1,s4,s1
    a456:	86ae                	mv	a3,a1
    a458:	1c0c8e63          	beqz	s9,a634 <__muldf3+0x546>
    a45c:	8cbe                	mv	s9,a5
    a45e:	4a81                	li	s5,0
    a460:	4789                	li	a5,2
    a462:	bb0d                	j	a194 <__muldf3+0xa6>
    a464:	00a46bb3          	or	s7,s0,a0
    a468:	020b8c63          	beqz	s7,a4a0 <__muldf3+0x3b2>
    a46c:	12040363          	beqz	s0,a592 <__muldf3+0x4a4>
    a470:	8522                	mv	a0,s0
    a472:	419000ef          	jal	b08a <__clzsi2>
    a476:	872a                	mv	a4,a0
    a478:	ff550693          	addi	a3,a0,-11
    a47c:	47f5                	li	a5,29
    a47e:	ff870b93          	addi	s7,a4,-8
    a482:	8f95                	sub	a5,a5,a3
    a484:	01741433          	sll	s0,s0,s7
    a488:	00fad7b3          	srl	a5,s5,a5
    a48c:	8c5d                	or	s0,s0,a5
    a48e:	017a9bb3          	sll	s7,s5,s7
    a492:	c0d00793          	li	a5,-1011
    a496:	40e78b33          	sub	s6,a5,a4
    a49a:	4c81                	li	s9,0
    a49c:	4d01                	li	s10,0
    a49e:	b165                	j	a146 <__muldf3+0x58>
    a4a0:	4401                	li	s0,0
    a4a2:	4c91                	li	s9,4
    a4a4:	4b01                	li	s6,0
    a4a6:	4d05                	li	s10,1
    a4a8:	b979                	j	a146 <__muldf3+0x58>
    a4aa:	001cec93          	ori	s9,s9,1
    a4ae:	47a9                	li	a5,10
    a4b0:	f197cae3          	blt	a5,s9,a3c4 <__muldf3+0x2d6>
    a4b4:	009a45b3          	xor	a1,s4,s1
    a4b8:	4709                	li	a4,2
    a4ba:	86ae                	mv	a3,a1
    a4bc:	4a81                	li	s5,0
    a4be:	4785                	li	a5,1
    a4c0:	cd974ae3          	blt	a4,s9,a194 <__muldf3+0xa6>
    a4c4:	4709                	li	a4,2
    a4c6:	0ae78563          	beq	a5,a4,a570 <__muldf3+0x482>
    a4ca:	4d05                	li	s10,1
    a4cc:	4785                	li	a5,1
    a4ce:	4401                	li	s0,0
    a4d0:	4b81                	li	s7,0
    a4d2:	86ae                	mv	a3,a1
    a4d4:	f4fd15e3          	bne	s10,a5,a41e <__muldf3+0x330>
    a4d8:	b709                	j	a3da <__muldf3+0x2ec>
    a4da:	003cec93          	ori	s9,s9,3
    a4de:	4729                	li	a4,10
    a4e0:	15974563          	blt	a4,s9,a62a <__muldf3+0x53c>
    a4e4:	4705                	li	a4,1
    a4e6:	01971633          	sll	a2,a4,s9
    a4ea:	08867613          	andi	a2,a2,136
    a4ee:	009a46b3          	xor	a3,s4,s1
    a4f2:	8862                	mv	a6,s8
    a4f4:	478d                	li	a5,3
    a4f6:	ca060ee3          	beqz	a2,a1b2 <__muldf3+0xc4>
    a4fa:	a0a5                	j	a562 <__muldf3+0x474>
    a4fc:	8baa                	mv	s7,a0
    a4fe:	8b3e                	mv	s6,a5
    a500:	4cb1                	li	s9,12
    a502:	4d0d                	li	s10,3
    a504:	b189                	j	a146 <__muldf3+0x58>
    a506:	4681                	li	a3,0
    a508:	7ff00793          	li	a5,2047
    a50c:	00080437          	lui	s0,0x80
    a510:	4701                	li	a4,0
    a512:	b5f9                	j	a3e0 <__muldf3+0x2f2>
    a514:	4605                	li	a2,1
    a516:	ebdd                	bnez	a5,a5cc <__muldf3+0x4de>
    a518:	41eb0b13          	addi	s6,s6,1054
    a51c:	016b97b3          	sll	a5,s7,s6
    a520:	00f037b3          	snez	a5,a5
    a524:	01641b33          	sll	s6,s0,s6
    a528:	0167e7b3          	or	a5,a5,s6
    a52c:	00cbd733          	srl	a4,s7,a2
    a530:	8f5d                	or	a4,a4,a5
    a532:	00777793          	andi	a5,a4,7
    a536:	00c45633          	srl	a2,s0,a2
    a53a:	cf81                	beqz	a5,a552 <__muldf3+0x464>
    a53c:	00f77793          	andi	a5,a4,15
    a540:	4591                	li	a1,4
    a542:	00b78863          	beq	a5,a1,a552 <__muldf3+0x464>
    a546:	00b707b3          	add	a5,a4,a1
    a54a:	00e7b733          	sltu	a4,a5,a4
    a54e:	963a                	add	a2,a2,a4
    a550:	873e                	mv	a4,a5
    a552:	00861793          	slli	a5,a2,0x8
    a556:	0e07d163          	bgez	a5,a638 <__muldf3+0x54a>
    a55a:	4785                	li	a5,1
    a55c:	4401                	li	s0,0
    a55e:	4701                	li	a4,0
    a560:	b541                	j	a3e0 <__muldf3+0x2f2>
    a562:	8d3e                	mv	s10,a5
    a564:	4789                	li	a5,2
    a566:	85a6                	mv	a1,s1
    a568:	8456                	mv	s0,s5
    a56a:	8bc2                	mv	s7,a6
    a56c:	e6fd10e3          	bne	s10,a5,a3cc <__muldf3+0x2de>
    a570:	86ae                	mv	a3,a1
    a572:	7ff00793          	li	a5,2047
    a576:	4401                	li	s0,0
    a578:	4701                	li	a4,0
    a57a:	b59d                	j	a3e0 <__muldf3+0x2f2>
    a57c:	4681                	li	a3,0
    a57e:	7ff00793          	li	a5,2047
    a582:	00080437          	lui	s0,0x80
    a586:	bda9                	j	a3e0 <__muldf3+0x2f2>
    a588:	7ff00793          	li	a5,2047
    a58c:	4401                	li	s0,0
    a58e:	4701                	li	a4,0
    a590:	bd81                	j	a3e0 <__muldf3+0x2f2>
    a592:	2f9000ef          	jal	b08a <__clzsi2>
    a596:	01550693          	addi	a3,a0,21
    a59a:	47f1                	li	a5,28
    a59c:	02050713          	addi	a4,a0,32
    a5a0:	ecd7dee3          	bge	a5,a3,a47c <__muldf3+0x38e>
    a5a4:	1561                	addi	a0,a0,-8
    a5a6:	00aa9433          	sll	s0,s5,a0
    a5aa:	4b81                	li	s7,0
    a5ac:	b5dd                	j	a492 <__muldf3+0x3a4>
    a5ae:	8562                	mv	a0,s8
    a5b0:	2db000ef          	jal	b08a <__clzsi2>
    a5b4:	01550713          	addi	a4,a0,21
    a5b8:	46f1                	li	a3,28
    a5ba:	02050793          	addi	a5,a0,32
    a5be:	dce6d8e3          	bge	a3,a4,a38e <__muldf3+0x2a0>
    a5c2:	1561                	addi	a0,a0,-8
    a5c4:	00ac1ab3          	sll	s5,s8,a0
    a5c8:	4801                	li	a6,0
    a5ca:	bbf1                	j	a3a6 <__muldf3+0x2b8>
    a5cc:	8e1d                	sub	a2,a2,a5
    a5ce:	03800713          	li	a4,56
    a5d2:	e0c744e3          	blt	a4,a2,a3da <__muldf3+0x2ec>
    a5d6:	477d                	li	a4,31
    a5d8:	f4c750e3          	bge	a4,a2,a518 <__muldf3+0x42a>
    a5dc:	5705                	li	a4,-31
    a5de:	40f707b3          	sub	a5,a4,a5
    a5e2:	02000713          	li	a4,32
    a5e6:	00f457b3          	srl	a5,s0,a5
    a5ea:	00e60863          	beq	a2,a4,a5fa <__muldf3+0x50c>
    a5ee:	43eb0b13          	addi	s6,s6,1086
    a5f2:	01641b33          	sll	s6,s0,s6
    a5f6:	016bebb3          	or	s7,s7,s6
    a5fa:	01703733          	snez	a4,s7
    a5fe:	8f5d                	or	a4,a4,a5
    a600:	00777793          	andi	a5,a4,7
    a604:	4401                	li	s0,0
    a606:	cf91                	beqz	a5,a622 <__muldf3+0x534>
    a608:	00f77613          	andi	a2,a4,15
    a60c:	4591                	li	a1,4
    a60e:	4781                	li	a5,0
    a610:	00b60963          	beq	a2,a1,a622 <__muldf3+0x534>
    a614:	00b70633          	add	a2,a4,a1
    a618:	00e63733          	sltu	a4,a2,a4
    a61c:	01d71793          	slli	a5,a4,0x1d
    a620:	8732                	mv	a4,a2
    a622:	830d                	srli	a4,a4,0x3
    a624:	8f5d                	or	a4,a4,a5
    a626:	4781                	li	a5,0
    a628:	bb65                	j	a3e0 <__muldf3+0x2f2>
    a62a:	4681                	li	a3,0
    a62c:	00080437          	lui	s0,0x80
    a630:	4701                	li	a4,0
    a632:	b37d                	j	a3e0 <__muldf3+0x2f2>
    a634:	4789                	li	a5,2
    a636:	b579                	j	a4c4 <__muldf3+0x3d6>
    a638:	00961413          	slli	s0,a2,0x9
    a63c:	8031                	srli	s0,s0,0xc
    a63e:	01d61793          	slli	a5,a2,0x1d
    a642:	b7c5                	j	a622 <__muldf3+0x534>

0000a644 <__subdf3>:
    a644:	001007b7          	lui	a5,0x100
    a648:	17fd                	addi	a5,a5,-1 # fffff <__rodata_start__+0xf4f07>
    a64a:	1101                	addi	sp,sp,-32
    a64c:	00b7f8b3          	and	a7,a5,a1
    a650:	0146d813          	srli	a6,a3,0x14
    a654:	8ff5                	and	a5,a5,a3
    a656:	088e                	slli	a7,a7,0x3
    a658:	00379713          	slli	a4,a5,0x3
    a65c:	ca26                	sw	s1,20(sp)
    a65e:	c452                	sw	s4,8(sp)
    a660:	c256                	sw	s5,4(sp)
    a662:	01d55a13          	srli	s4,a0,0x1d
    a666:	0145da93          	srli	s5,a1,0x14
    a66a:	01d65793          	srli	a5,a2,0x1d
    a66e:	01f5d493          	srli	s1,a1,0x1f
    a672:	7ff00313          	li	t1,2047
    a676:	ce06                	sw	ra,28(sp)
    a678:	cc22                	sw	s0,24(sp)
    a67a:	c84a                	sw	s2,16(sp)
    a67c:	c64e                	sw	s3,12(sp)
    a67e:	7ff87813          	andi	a6,a6,2047
    a682:	011a6a33          	or	s4,s4,a7
    a686:	8e32                	mv	t3,a2
    a688:	8fd9                	or	a5,a5,a4
    a68a:	82fd                	srli	a3,a3,0x1f
    a68c:	006afab3          	and	s5,s5,t1
    a690:	85a6                	mv	a1,s1
    a692:	00351e93          	slli	t4,a0,0x3
    a696:	00361893          	slli	a7,a2,0x3
    a69a:	16680863          	beq	a6,t1,a80a <__subdf3+0x1c6>
    a69e:	0016c693          	xori	a3,a3,1
    a6a2:	410a8733          	sub	a4,s5,a6
    a6a6:	0cd48563          	beq	s1,a3,a770 <__subdf3+0x12c>
    a6aa:	5ae05263          	blez	a4,ac4e <__subdf3+0x60a>
    a6ae:	18080b63          	beqz	a6,a844 <__subdf3+0x200>
    a6b2:	386a8f63          	beq	s5,t1,aa50 <__subdf3+0x40c>
    a6b6:	03800693          	li	a3,56
    a6ba:	1ae6c363          	blt	a3,a4,a860 <__subdf3+0x21c>
    a6be:	008006b7          	lui	a3,0x800
    a6c2:	8fd5                	or	a5,a5,a3
    a6c4:	46fd                	li	a3,31
    a6c6:	46e6c463          	blt	a3,a4,ab2e <__subdf3+0x4ea>
    a6ca:	02000693          	li	a3,32
    a6ce:	8e99                	sub	a3,a3,a4
    a6d0:	00d79433          	sll	s0,a5,a3
    a6d4:	00d896b3          	sll	a3,a7,a3
    a6d8:	00e8d8b3          	srl	a7,a7,a4
    a6dc:	00d036b3          	snez	a3,a3
    a6e0:	01146433          	or	s0,s0,a7
    a6e4:	00e7d733          	srl	a4,a5,a4
    a6e8:	8c55                	or	s0,s0,a3
    a6ea:	40ea0a33          	sub	s4,s4,a4
    a6ee:	408e8433          	sub	s0,t4,s0
    a6f2:	008ebeb3          	sltu	t4,t4,s0
    a6f6:	41da0a33          	sub	s4,s4,t4
    a6fa:	008a1793          	slli	a5,s4,0x8
    a6fe:	2e07c363          	bltz	a5,a9e4 <__subdf3+0x3a0>
    a702:	00747793          	andi	a5,s0,7
    a706:	32078d63          	beqz	a5,aa40 <__subdf3+0x3fc>
    a70a:	00f47793          	andi	a5,s0,15
    a70e:	4711                	li	a4,4
    a710:	32e78863          	beq	a5,a4,aa40 <__subdf3+0x3fc>
    a714:	00440793          	addi	a5,s0,4 # 80004 <__rodata_start__+0x74f0c>
    a718:	0087b433          	sltu	s0,a5,s0
    a71c:	9a22                	add	s4,s4,s0
    a71e:	843e                	mv	s0,a5
    a720:	008a1793          	slli	a5,s4,0x8
    a724:	3007de63          	bgez	a5,aa40 <__subdf3+0x3fc>
    a728:	001a8793          	addi	a5,s5,1
    a72c:	7ff00713          	li	a4,2047
    a730:	0014f593          	andi	a1,s1,1
    a734:	26e78f63          	beq	a5,a4,a9b2 <__subdf3+0x36e>
    a738:	ff800737          	lui	a4,0xff800
    a73c:	177d                	addi	a4,a4,-1 # ff7fffff <linker_stack_start+0xef7d000f>
    a73e:	7ff7f793          	andi	a5,a5,2047
    a742:	00ea7733          	and	a4,s4,a4
    a746:	01d71613          	slli	a2,a4,0x1d
    a74a:	800d                	srli	s0,s0,0x3
    a74c:	0726                	slli	a4,a4,0x9
    a74e:	8e41                	or	a2,a2,s0
    a750:	8331                	srli	a4,a4,0xc
    a752:	40f2                	lw	ra,28(sp)
    a754:	4462                	lw	s0,24(sp)
    a756:	07d2                	slli	a5,a5,0x14
    a758:	05fe                	slli	a1,a1,0x1f
    a75a:	8fd9                	or	a5,a5,a4
    a75c:	8fcd                	or	a5,a5,a1
    a75e:	44d2                	lw	s1,20(sp)
    a760:	4942                	lw	s2,16(sp)
    a762:	49b2                	lw	s3,12(sp)
    a764:	4a22                	lw	s4,8(sp)
    a766:	4a92                	lw	s5,4(sp)
    a768:	8532                	mv	a0,a2
    a76a:	85be                	mv	a1,a5
    a76c:	6105                	addi	sp,sp,32
    a76e:	8082                	ret
    a770:	5ae05863          	blez	a4,ad20 <__subdf3+0x6dc>
    a774:	20081c63          	bnez	a6,a98c <__subdf3+0x348>
    a778:	0117e733          	or	a4,a5,a7
    a77c:	22070e63          	beqz	a4,a9b8 <__subdf3+0x374>
    a780:	fffa8713          	addi	a4,s5,-1
    a784:	46070c63          	beqz	a4,abfc <__subdf3+0x5b8>
    a788:	5c6a8463          	beq	s5,t1,ad50 <__subdf3+0x70c>
    a78c:	03800693          	li	a3,56
    a790:	20e6c863          	blt	a3,a4,a9a0 <__subdf3+0x35c>
    a794:	46fd                	li	a3,31
    a796:	52e6c063          	blt	a3,a4,acb6 <__subdf3+0x672>
    a79a:	02000613          	li	a2,32
    a79e:	8e19                	sub	a2,a2,a4
    a7a0:	00c796b3          	sll	a3,a5,a2
    a7a4:	00c89633          	sll	a2,a7,a2
    a7a8:	00e8d8b3          	srl	a7,a7,a4
    a7ac:	00c03633          	snez	a2,a2
    a7b0:	00e7d733          	srl	a4,a5,a4
    a7b4:	0116e6b3          	or	a3,a3,a7
    a7b8:	00c6e7b3          	or	a5,a3,a2
    a7bc:	9a3a                	add	s4,s4,a4
    a7be:	9ebe                	add	t4,t4,a5
    a7c0:	00feb7b3          	sltu	a5,t4,a5
    a7c4:	9a3e                	add	s4,s4,a5
    a7c6:	8476                	mv	s0,t4
    a7c8:	008a1793          	slli	a5,s4,0x8
    a7cc:	f207dbe3          	bgez	a5,a702 <__subdf3+0xbe>
    a7d0:	0a85                	addi	s5,s5,1
    a7d2:	7ff00793          	li	a5,2047
    a7d6:	4cfa8c63          	beq	s5,a5,acae <__subdf3+0x66a>
    a7da:	ff8007b7          	lui	a5,0xff800
    a7de:	17fd                	addi	a5,a5,-1 # ff7fffff <linker_stack_start+0xef7d000f>
    a7e0:	00fa77b3          	and	a5,s4,a5
    a7e4:	00145713          	srli	a4,s0,0x1
    a7e8:	8805                	andi	s0,s0,1
    a7ea:	01f79693          	slli	a3,a5,0x1f
    a7ee:	8f41                	or	a4,a4,s0
    a7f0:	0017da13          	srli	s4,a5,0x1
    a7f4:	00e6e433          	or	s0,a3,a4
    a7f8:	00747793          	andi	a5,s0,7
    a7fc:	d395                	beqz	a5,a720 <__subdf3+0xdc>
    a7fe:	00f47793          	andi	a5,s0,15
    a802:	4711                	li	a4,4
    a804:	f0e798e3          	bne	a5,a4,a714 <__subdf3+0xd0>
    a808:	bf21                	j	a720 <__subdf3+0xdc>
    a80a:	0117e733          	or	a4,a5,a7
    a80e:	801a8613          	addi	a2,s5,-2047
    a812:	c769                	beqz	a4,a8dc <__subdf3+0x298>
    a814:	0cd48863          	beq	s1,a3,a8e4 <__subdf3+0x2a0>
    a818:	10060763          	beqz	a2,a926 <__subdf3+0x2e2>
    a81c:	2c0a8a63          	beqz	s5,aaf0 <__subdf3+0x4ac>
    a820:	003e1713          	slli	a4,t3,0x3
    a824:	01d79613          	slli	a2,a5,0x1d
    a828:	830d                	srli	a4,a4,0x3
    a82a:	84b6                	mv	s1,a3
    a82c:	8e59                	or	a2,a2,a4
    a82e:	838d                	srli	a5,a5,0x3
    a830:	8e5d                	or	a2,a2,a5
    a832:	20060963          	beqz	a2,aa44 <__subdf3+0x400>
    a836:	4581                	li	a1,0
    a838:	7ff00793          	li	a5,2047
    a83c:	00080737          	lui	a4,0x80
    a840:	4601                	li	a2,0
    a842:	bf01                	j	a752 <__subdf3+0x10e>
    a844:	0117e733          	or	a4,a5,a7
    a848:	16070863          	beqz	a4,a9b8 <__subdf3+0x374>
    a84c:	fffa8713          	addi	a4,s5,-1
    a850:	42070863          	beqz	a4,ac80 <__subdf3+0x63c>
    a854:	1e6a8e63          	beq	s5,t1,aa50 <__subdf3+0x40c>
    a858:	03800693          	li	a3,56
    a85c:	e6e6d4e3          	bge	a3,a4,a6c4 <__subdf3+0x80>
    a860:	fffe8413          	addi	s0,t4,-1
    a864:	008ebeb3          	sltu	t4,t4,s0
    a868:	41da0a33          	sub	s4,s4,t4
    a86c:	008a1713          	slli	a4,s4,0x8
    a870:	008007b7          	lui	a5,0x800
    a874:	ea0750e3          	bgez	a4,a714 <__subdf3+0xd0>
    a878:	fff78a13          	addi	s4,a5,-1 # 7fffff <__rodata_start__+0x7f4f07>
    a87c:	547d                	li	s0,-1
    a87e:	8552                	mv	a0,s4
    a880:	00b000ef          	jal	b08a <__clzsi2>
    a884:	ff850713          	addi	a4,a0,-8
    a888:	02000793          	li	a5,32
    a88c:	40e786b3          	sub	a3,a5,a4
    a890:	00d456b3          	srl	a3,s0,a3
    a894:	00ea1a33          	sll	s4,s4,a4
    a898:	0146e6b3          	or	a3,a3,s4
    a89c:	00e41433          	sll	s0,s0,a4
    a8a0:	23574b63          	blt	a4,s5,aad6 <__subdf3+0x492>
    a8a4:	41570733          	sub	a4,a4,s5
    a8a8:	0705                	addi	a4,a4,1 # 80001 <__rodata_start__+0x74f09>
    a8aa:	8f99                	sub	a5,a5,a4
    a8ac:	00f41633          	sll	a2,s0,a5
    a8b0:	00c03633          	snez	a2,a2
    a8b4:	00e45a33          	srl	s4,s0,a4
    a8b8:	00f697b3          	sll	a5,a3,a5
    a8bc:	01466633          	or	a2,a2,s4
    a8c0:	00c7e433          	or	s0,a5,a2
    a8c4:	00e6da33          	srl	s4,a3,a4
    a8c8:	014467b3          	or	a5,s0,s4
    a8cc:	4a81                	li	s5,0
    a8ce:	f78d                	bnez	a5,a7f8 <__subdf3+0x1b4>
    a8d0:	0014f593          	andi	a1,s1,1
    a8d4:	4781                	li	a5,0
    a8d6:	4701                	li	a4,0
    a8d8:	4601                	li	a2,0
    a8da:	bda5                	j	a752 <__subdf3+0x10e>
    a8dc:	0016c693          	xori	a3,a3,1
    a8e0:	f2d49ce3          	bne	s1,a3,a818 <__subdf3+0x1d4>
    a8e4:	16060e63          	beqz	a2,aa60 <__subdf3+0x41c>
    a8e8:	2c0a9263          	bnez	s5,abac <__subdf3+0x568>
    a8ec:	8742                	mv	a4,a6
    a8ee:	01da66b3          	or	a3,s4,t4
    a8f2:	52068b63          	beqz	a3,ae28 <__subdf3+0x7e4>
    a8f6:	fff70693          	addi	a3,a4,-1
    a8fa:	30068163          	beqz	a3,abfc <__subdf3+0x5b8>
    a8fe:	7ff00613          	li	a2,2047
    a902:	2ac70563          	beq	a4,a2,abac <__subdf3+0x568>
    a906:	03800613          	li	a2,56
    a90a:	5ad65463          	bge	a2,a3,aeb2 <__subdf3+0x86e>
    a90e:	00879693          	slli	a3,a5,0x8
    a912:	00800a37          	lui	s4,0x800
    a916:	8aba                	mv	s5,a4
    a918:	4401                	li	s0,0
    a91a:	ea06cbe3          	bltz	a3,a7d0 <__subdf3+0x18c>
    a91e:	00188413          	addi	s0,a7,1 # 10001 <__rodata_start__+0x4f09>
    a922:	8a3e                	mv	s4,a5
    a924:	bbc5                	j	a714 <__subdf3+0xd0>
    a926:	001a8713          	addi	a4,s5,1
    a92a:	7fe77713          	andi	a4,a4,2046
    a92e:	18071163          	bnez	a4,aab0 <__subdf3+0x46c>
    a932:	0117e633          	or	a2,a5,a7
    a936:	01da6733          	or	a4,s4,t4
    a93a:	280a9c63          	bnez	s5,abd2 <__subdf3+0x58e>
    a93e:	46070e63          	beqz	a4,adba <__subdf3+0x776>
    a942:	14060d63          	beqz	a2,aa9c <__subdf3+0x458>
    a946:	411e85b3          	sub	a1,t4,a7
    a94a:	00beb633          	sltu	a2,t4,a1
    a94e:	40fa0733          	sub	a4,s4,a5
    a952:	8f11                	sub	a4,a4,a2
    a954:	00871613          	slli	a2,a4,0x8
    a958:	52065a63          	bgez	a2,ae8c <__subdf3+0x848>
    a95c:	41d88eb3          	sub	t4,a7,t4
    a960:	01d8b8b3          	sltu	a7,a7,t4
    a964:	414787b3          	sub	a5,a5,s4
    a968:	411787b3          	sub	a5,a5,a7
    a96c:	00fee733          	or	a4,t4,a5
    a970:	8476                	mv	s0,t4
    a972:	84b6                	mv	s1,a3
    a974:	df31                	beqz	a4,a8d0 <__subdf3+0x28c>
    a976:	00879713          	slli	a4,a5,0x8
    a97a:	56075163          	bgez	a4,aedc <__subdf3+0x898>
    a97e:	ff800737          	lui	a4,0xff800
    a982:	177d                	addi	a4,a4,-1 # ff7fffff <linker_stack_start+0xef7d000f>
    a984:	8f7d                	and	a4,a4,a5
    a986:	85b6                	mv	a1,a3
    a988:	4785                	li	a5,1
    a98a:	bb75                	j	a746 <__subdf3+0x102>
    a98c:	0c6a8263          	beq	s5,t1,aa50 <__subdf3+0x40c>
    a990:	03800693          	li	a3,56
    a994:	00e6c663          	blt	a3,a4,a9a0 <__subdf3+0x35c>
    a998:	008006b7          	lui	a3,0x800
    a99c:	8fd5                	or	a5,a5,a3
    a99e:	bbdd                	j	a794 <__subdf3+0x150>
    a9a0:	008a1713          	slli	a4,s4,0x8
    a9a4:	008007b7          	lui	a5,0x800
    a9a8:	2a075063          	bgez	a4,ac48 <__subdf3+0x604>
    a9ac:	8a3e                	mv	s4,a5
    a9ae:	4401                	li	s0,0
    a9b0:	b505                	j	a7d0 <__subdf3+0x18c>
    a9b2:	4701                	li	a4,0
    a9b4:	4601                	li	a2,0
    a9b6:	bb71                	j	a752 <__subdf3+0x10e>
    a9b8:	00351413          	slli	s0,a0,0x3
    a9bc:	800d                	srli	s0,s0,0x3
    a9be:	01da1613          	slli	a2,s4,0x1d
    a9c2:	7ff00713          	li	a4,2047
    a9c6:	8e41                	or	a2,a2,s0
    a9c8:	003a5793          	srli	a5,s4,0x3
    a9cc:	e6ea82e3          	beq	s5,a4,a830 <__subdf3+0x1ec>
    a9d0:	07b2                	slli	a5,a5,0xc
    a9d2:	00c7d713          	srli	a4,a5,0xc
    a9d6:	0014f593          	andi	a1,s1,1
    a9da:	7ffaf793          	andi	a5,s5,2047
    a9de:	bb95                	j	a752 <__subdf3+0x10e>
    a9e0:	84b6                	mv	s1,a3
    a9e2:	4a85                	li	s5,1
    a9e4:	0a26                	slli	s4,s4,0x9
    a9e6:	009a5a13          	srli	s4,s4,0x9
    a9ea:	e80a1ae3          	bnez	s4,a87e <__subdf3+0x23a>
    a9ee:	8522                	mv	a0,s0
    a9f0:	2d69                	jal	b08a <__clzsi2>
    a9f2:	01850713          	addi	a4,a0,24
    a9f6:	47fd                	li	a5,31
    a9f8:	e8e7d8e3          	bge	a5,a4,a888 <__subdf3+0x244>
    a9fc:	1561                	addi	a0,a0,-8
    a9fe:	00a416b3          	sll	a3,s0,a0
    aa02:	15574a63          	blt	a4,s5,ab56 <__subdf3+0x512>
    aa06:	41570433          	sub	s0,a4,s5
    aa0a:	00140713          	addi	a4,s0,1
    aa0e:	46e7d463          	bge	a5,a4,ae76 <__subdf3+0x832>
    aa12:	1405                	addi	s0,s0,-31
    aa14:	02000793          	li	a5,32
    aa18:	0086d433          	srl	s0,a3,s0
    aa1c:	00f70a63          	beq	a4,a5,aa30 <__subdf3+0x3ec>
    aa20:	04000793          	li	a5,64
    aa24:	8f99                	sub	a5,a5,a4
    aa26:	00f697b3          	sll	a5,a3,a5
    aa2a:	00f037b3          	snez	a5,a5
    aa2e:	8c5d                	or	s0,s0,a5
    aa30:	ea0400e3          	beqz	s0,a8d0 <__subdf3+0x28c>
    aa34:	00747793          	andi	a5,s0,7
    aa38:	4a81                	li	s5,0
    aa3a:	dc0792e3          	bnez	a5,a7fe <__subdf3+0x1ba>
    aa3e:	4a01                	li	s4,0
    aa40:	800d                	srli	s0,s0,0x3
    aa42:	bfb5                	j	a9be <__subdf3+0x37a>
    aa44:	0014f593          	andi	a1,s1,1
    aa48:	7ff00793          	li	a5,2047
    aa4c:	4701                	li	a4,0
    aa4e:	b311                	j	a752 <__subdf3+0x10e>
    aa50:	050e                	slli	a0,a0,0x3
    aa52:	810d                	srli	a0,a0,0x3
    aa54:	01da1613          	slli	a2,s4,0x1d
    aa58:	8e49                	or	a2,a2,a0
    aa5a:	003a5793          	srli	a5,s4,0x3
    aa5e:	bbc9                	j	a830 <__subdf3+0x1ec>
    aa60:	001a8713          	addi	a4,s5,1
    aa64:	7fe77693          	andi	a3,a4,2046
    aa68:	10069163          	bnez	a3,ab6a <__subdf3+0x526>
    aa6c:	01da6733          	or	a4,s4,t4
    aa70:	3a0a9563          	bnez	s5,ae1a <__subdf3+0x7d6>
    aa74:	0117e6b3          	or	a3,a5,a7
    aa78:	40070463          	beqz	a4,ae80 <__subdf3+0x83c>
    aa7c:	c285                	beqz	a3,aa9c <__subdf3+0x458>
    aa7e:	98f6                	add	a7,a7,t4
    aa80:	01d8beb3          	sltu	t4,a7,t4
    aa84:	97d2                	add	a5,a5,s4
    aa86:	01d78a33          	add	s4,a5,t4
    aa8a:	008a1793          	slli	a5,s4,0x8
    aa8e:	8ec6                	mv	t4,a7
    aa90:	4207c363          	bltz	a5,aeb6 <__subdf3+0x872>
    aa94:	0148e7b3          	or	a5,a7,s4
    aa98:	e2078ce3          	beqz	a5,a8d0 <__subdf3+0x28c>
    aa9c:	003ede93          	srli	t4,t4,0x3
    aaa0:	01da1613          	slli	a2,s4,0x1d
    aaa4:	01d66633          	or	a2,a2,t4
    aaa8:	003a5793          	srli	a5,s4,0x3
    aaac:	4a81                	li	s5,0
    aaae:	b70d                	j	a9d0 <__subdf3+0x38c>
    aab0:	411e8433          	sub	s0,t4,a7
    aab4:	008eb633          	sltu	a2,t4,s0
    aab8:	40fa0733          	sub	a4,s4,a5
    aabc:	8f11                	sub	a4,a4,a2
    aabe:	00871613          	slli	a2,a4,0x8
    aac2:	0e064d63          	bltz	a2,abbc <__subdf3+0x578>
    aac6:	00e46633          	or	a2,s0,a4
    aaca:	8a3a                	mv	s4,a4
    aacc:	fe19                	bnez	a2,a9ea <__subdf3+0x3a6>
    aace:	4581                	li	a1,0
    aad0:	4781                	li	a5,0
    aad2:	4701                	li	a4,0
    aad4:	b9bd                	j	a752 <__subdf3+0x10e>
    aad6:	ff800a37          	lui	s4,0xff800
    aada:	1a7d                	addi	s4,s4,-1 # ff7fffff <linker_stack_start+0xef7d000f>
    aadc:	00747793          	andi	a5,s0,7
    aae0:	40ea8ab3          	sub	s5,s5,a4
    aae4:	0146fa33          	and	s4,a3,s4
    aae8:	c20791e3          	bnez	a5,a70a <__subdf3+0xc6>
    aaec:	800d                	srli	s0,s0,0x3
    aaee:	bdc1                	j	a9be <__subdf3+0x37a>
    aaf0:	8742                	mv	a4,a6
    aaf2:	01da6633          	or	a2,s4,t4
    aaf6:	ca7d                	beqz	a2,abec <__subdf3+0x5a8>
    aaf8:	fff70613          	addi	a2,a4,-1
    aafc:	28060763          	beqz	a2,ad8a <__subdf3+0x746>
    ab00:	7ff00593          	li	a1,2047
    ab04:	d0b70ee3          	beq	a4,a1,a820 <__subdf3+0x1dc>
    ab08:	03800593          	li	a1,56
    ab0c:	32c5de63          	bge	a1,a2,ae48 <__subdf3+0x804>
    ab10:	fff88413          	addi	s0,a7,-1
    ab14:	0088b8b3          	sltu	a7,a7,s0
    ab18:	41178a33          	sub	s4,a5,a7
    ab1c:	008a1613          	slli	a2,s4,0x8
    ab20:	008007b7          	lui	a5,0x800
    ab24:	3a064963          	bltz	a2,aed6 <__subdf3+0x892>
    ab28:	84b6                	mv	s1,a3
    ab2a:	8aba                	mv	s5,a4
    ab2c:	b6e5                	j	a714 <__subdf3+0xd0>
    ab2e:	fe070693          	addi	a3,a4,-32
    ab32:	02000613          	li	a2,32
    ab36:	00d7d6b3          	srl	a3,a5,a3
    ab3a:	00c70a63          	beq	a4,a2,ab4e <__subdf3+0x50a>
    ab3e:	04000613          	li	a2,64
    ab42:	40e60733          	sub	a4,a2,a4
    ab46:	00e797b3          	sll	a5,a5,a4
    ab4a:	00f8e8b3          	or	a7,a7,a5
    ab4e:	01103433          	snez	s0,a7
    ab52:	8c55                	or	s0,s0,a3
    ab54:	be69                	j	a6ee <__subdf3+0xaa>
    ab56:	ff8007b7          	lui	a5,0xff800
    ab5a:	17fd                	addi	a5,a5,-1 # ff7fffff <linker_stack_start+0xef7d000f>
    ab5c:	8ff5                	and	a5,a5,a3
    ab5e:	01d79613          	slli	a2,a5,0x1d
    ab62:	40ea8ab3          	sub	s5,s5,a4
    ab66:	838d                	srli	a5,a5,0x3
    ab68:	b5a5                	j	a9d0 <__subdf3+0x38c>
    ab6a:	7ff00693          	li	a3,2047
    ab6e:	2ad70263          	beq	a4,a3,ae12 <__subdf3+0x7ce>
    ab72:	98f6                	add	a7,a7,t4
    ab74:	01d8beb3          	sltu	t4,a7,t4
    ab78:	97d2                	add	a5,a5,s4
    ab7a:	97f6                	add	a5,a5,t4
    ab7c:	0018d893          	srli	a7,a7,0x1
    ab80:	01f79413          	slli	s0,a5,0x1f
    ab84:	0078f693          	andi	a3,a7,7
    ab88:	01146433          	or	s0,s0,a7
    ab8c:	0017da13          	srli	s4,a5,0x1
    ab90:	34068e63          	beqz	a3,aeec <__subdf3+0x8a8>
    ab94:	00f47693          	andi	a3,s0,15
    ab98:	4611                	li	a2,4
    ab9a:	8aba                	mv	s5,a4
    ab9c:	b6c69ce3          	bne	a3,a2,a714 <__subdf3+0xd0>
    aba0:	01da1613          	slli	a2,s4,0x1d
    aba4:	800d                	srli	s0,s0,0x3
    aba6:	8e41                	or	a2,a2,s0
    aba8:	8391                	srli	a5,a5,0x4
    abaa:	b51d                	j	a9d0 <__subdf3+0x38c>
    abac:	003e1713          	slli	a4,t3,0x3
    abb0:	01d79613          	slli	a2,a5,0x1d
    abb4:	830d                	srli	a4,a4,0x3
    abb6:	8e59                	or	a2,a2,a4
    abb8:	838d                	srli	a5,a5,0x3
    abba:	b99d                	j	a830 <__subdf3+0x1ec>
    abbc:	41d88eb3          	sub	t4,a7,t4
    abc0:	01d8b8b3          	sltu	a7,a7,t4
    abc4:	414787b3          	sub	a5,a5,s4
    abc8:	8476                	mv	s0,t4
    abca:	41178a33          	sub	s4,a5,a7
    abce:	84b6                	mv	s1,a3
    abd0:	bd29                	j	a9ea <__subdf3+0x3a6>
    abd2:	16071d63          	bnez	a4,ad4c <__subdf3+0x708>
    abd6:	2c060863          	beqz	a2,aea6 <__subdf3+0x862>
    abda:	003e1613          	slli	a2,t3,0x3
    abde:	01d79713          	slli	a4,a5,0x1d
    abe2:	820d                	srli	a2,a2,0x3
    abe4:	84b6                	mv	s1,a3
    abe6:	8e59                	or	a2,a2,a4
    abe8:	838d                	srli	a5,a5,0x3
    abea:	b199                	j	a830 <__subdf3+0x1ec>
    abec:	003e1613          	slli	a2,t3,0x3
    abf0:	00365413          	srli	s0,a2,0x3
    abf4:	84b6                	mv	s1,a3
    abf6:	8aba                	mv	s5,a4
    abf8:	8a3e                	mv	s4,a5
    abfa:	b3d1                	j	a9be <__subdf3+0x37a>
    abfc:	98f6                	add	a7,a7,t4
    abfe:	01d8beb3          	sltu	t4,a7,t4
    ac02:	97d2                	add	a5,a5,s4
    ac04:	97f6                	add	a5,a5,t4
    ac06:	00879713          	slli	a4,a5,0x8
    ac0a:	22075663          	bgez	a4,ae36 <__subdf3+0x7f2>
    ac0e:	ff800737          	lui	a4,0xff800
    ac12:	177d                	addi	a4,a4,-1 # ff7fffff <linker_stack_start+0xef7d000f>
    ac14:	0018d693          	srli	a3,a7,0x1
    ac18:	8ff9                	and	a5,a5,a4
    ac1a:	01f79713          	slli	a4,a5,0x1f
    ac1e:	0076f593          	andi	a1,a3,7
    ac22:	8f55                	or	a4,a4,a3
    ac24:	0017d613          	srli	a2,a5,0x1
    ac28:	26058963          	beqz	a1,ae9a <__subdf3+0x856>
    ac2c:	00f77693          	andi	a3,a4,15
    ac30:	4591                	li	a1,4
    ac32:	26b68463          	beq	a3,a1,ae9a <__subdf3+0x856>
    ac36:	00b70433          	add	s0,a4,a1
    ac3a:	00e43733          	sltu	a4,s0,a4
    ac3e:	00c70a33          	add	s4,a4,a2
    ac42:	4a89                	li	s5,2
    ac44:	800d                	srli	s0,s0,0x3
    ac46:	bba5                	j	a9be <__subdf3+0x37a>
    ac48:	001e8413          	addi	s0,t4,1
    ac4c:	b4e1                	j	a714 <__subdf3+0xd0>
    ac4e:	cc070ce3          	beqz	a4,a926 <__subdf3+0x2e2>
    ac52:	41580733          	sub	a4,a6,s5
    ac56:	e80a8ee3          	beqz	s5,aaf2 <__subdf3+0x4ae>
    ac5a:	03800613          	li	a2,56
    ac5e:	08e65063          	bge	a2,a4,acde <__subdf3+0x69a>
    ac62:	fff88413          	addi	s0,a7,-1
    ac66:	0088b8b3          	sltu	a7,a7,s0
    ac6a:	41178a33          	sub	s4,a5,a7
    ac6e:	008a1713          	slli	a4,s4,0x8
    ac72:	008007b7          	lui	a5,0x800
    ac76:	18074863          	bltz	a4,ae06 <__subdf3+0x7c2>
    ac7a:	84b6                	mv	s1,a3
    ac7c:	8ac2                	mv	s5,a6
    ac7e:	bc59                	j	a714 <__subdf3+0xd0>
    ac80:	411e88b3          	sub	a7,t4,a7
    ac84:	40fa07b3          	sub	a5,s4,a5
    ac88:	011ebeb3          	sltu	t4,t4,a7
    ac8c:	41d78a33          	sub	s4,a5,t4
    ac90:	008a1793          	slli	a5,s4,0x8
    ac94:	8446                	mv	s0,a7
    ac96:	d407c6e3          	bltz	a5,a9e2 <__subdf3+0x39e>
    ac9a:	0038d893          	srli	a7,a7,0x3
    ac9e:	01da1613          	slli	a2,s4,0x1d
    aca2:	00c8e633          	or	a2,a7,a2
    aca6:	003a5793          	srli	a5,s4,0x3
    acaa:	4a85                	li	s5,1
    acac:	b315                	j	a9d0 <__subdf3+0x38c>
    acae:	87d6                	mv	a5,s5
    acb0:	4701                	li	a4,0
    acb2:	4601                	li	a2,0
    acb4:	bc79                	j	a752 <__subdf3+0x10e>
    acb6:	fe070693          	addi	a3,a4,-32
    acba:	02000613          	li	a2,32
    acbe:	00d7d6b3          	srl	a3,a5,a3
    acc2:	00c70a63          	beq	a4,a2,acd6 <__subdf3+0x692>
    acc6:	04000613          	li	a2,64
    acca:	40e60733          	sub	a4,a2,a4
    acce:	00e797b3          	sll	a5,a5,a4
    acd2:	00f8e8b3          	or	a7,a7,a5
    acd6:	011037b3          	snez	a5,a7
    acda:	8fd5                	or	a5,a5,a3
    acdc:	b4cd                	j	a7be <__subdf3+0x17a>
    acde:	00800637          	lui	a2,0x800
    ace2:	84b6                	mv	s1,a3
    ace4:	00ca6a33          	or	s4,s4,a2
    ace8:	46fd                	li	a3,31
    acea:	06e6cc63          	blt	a3,a4,ad62 <__subdf3+0x71e>
    acee:	02000693          	li	a3,32
    acf2:	8e99                	sub	a3,a3,a4
    acf4:	00da1433          	sll	s0,s4,a3
    acf8:	00de96b3          	sll	a3,t4,a3
    acfc:	00eedeb3          	srl	t4,t4,a4
    ad00:	00d036b3          	snez	a3,a3
    ad04:	01d46433          	or	s0,s0,t4
    ad08:	00ea5733          	srl	a4,s4,a4
    ad0c:	8c55                	or	s0,s0,a3
    ad0e:	8f99                	sub	a5,a5,a4
    ad10:	40888433          	sub	s0,a7,s0
    ad14:	0088b8b3          	sltu	a7,a7,s0
    ad18:	41178a33          	sub	s4,a5,a7
    ad1c:	8ac2                	mv	s5,a6
    ad1e:	baf1                	j	a6fa <__subdf3+0xb6>
    ad20:	d40700e3          	beqz	a4,aa60 <__subdf3+0x41c>
    ad24:	41580733          	sub	a4,a6,s5
    ad28:	bc0a83e3          	beqz	s5,a8ee <__subdf3+0x2aa>
    ad2c:	03800693          	li	a3,56
    ad30:	08e6db63          	bge	a3,a4,adc6 <__subdf3+0x782>
    ad34:	00879713          	slli	a4,a5,0x8
    ad38:	00800a37          	lui	s4,0x800
    ad3c:	8ac2                	mv	s5,a6
    ad3e:	4401                	li	s0,0
    ad40:	a80748e3          	bltz	a4,a7d0 <__subdf3+0x18c>
    ad44:	00188413          	addi	s0,a7,1
    ad48:	8a3e                	mv	s4,a5
    ad4a:	b2e9                	j	a714 <__subdf3+0xd0>
    ad4c:	ae0615e3          	bnez	a2,a836 <__subdf3+0x1f2>
    ad50:	00351793          	slli	a5,a0,0x3
    ad54:	838d                	srli	a5,a5,0x3
    ad56:	01da1613          	slli	a2,s4,0x1d
    ad5a:	8e5d                	or	a2,a2,a5
    ad5c:	003a5793          	srli	a5,s4,0x3
    ad60:	bcc1                	j	a830 <__subdf3+0x1ec>
    ad62:	fe070693          	addi	a3,a4,-32
    ad66:	02000613          	li	a2,32
    ad6a:	00da56b3          	srl	a3,s4,a3
    ad6e:	00c70a63          	beq	a4,a2,ad82 <__subdf3+0x73e>
    ad72:	04000613          	li	a2,64
    ad76:	40e60733          	sub	a4,a2,a4
    ad7a:	00ea1733          	sll	a4,s4,a4
    ad7e:	00eeeeb3          	or	t4,t4,a4
    ad82:	01d03433          	snez	s0,t4
    ad86:	8c55                	or	s0,s0,a3
    ad88:	b761                	j	ad10 <__subdf3+0x6cc>
    ad8a:	41d88eb3          	sub	t4,a7,t4
    ad8e:	414787b3          	sub	a5,a5,s4
    ad92:	01d8b8b3          	sltu	a7,a7,t4
    ad96:	41178a33          	sub	s4,a5,a7
    ad9a:	008a1793          	slli	a5,s4,0x8
    ad9e:	8476                	mv	s0,t4
    ada0:	c407c0e3          	bltz	a5,a9e0 <__subdf3+0x39c>
    ada4:	003ede93          	srli	t4,t4,0x3
    ada8:	01da1613          	slli	a2,s4,0x1d
    adac:	84b6                	mv	s1,a3
    adae:	01d66633          	or	a2,a2,t4
    adb2:	003a5793          	srli	a5,s4,0x3
    adb6:	4a85                	li	s5,1
    adb8:	b921                	j	a9d0 <__subdf3+0x38c>
    adba:	d0060ae3          	beqz	a2,aace <__subdf3+0x48a>
    adbe:	8a3e                	mv	s4,a5
    adc0:	8ec6                	mv	t4,a7
    adc2:	84b6                	mv	s1,a3
    adc4:	b9e1                	j	aa9c <__subdf3+0x458>
    adc6:	008006b7          	lui	a3,0x800
    adca:	00da6a33          	or	s4,s4,a3
    adce:	46fd                	li	a3,31
    add0:	06e6cf63          	blt	a3,a4,ae4e <__subdf3+0x80a>
    add4:	02000613          	li	a2,32
    add8:	8e19                	sub	a2,a2,a4
    adda:	00ca16b3          	sll	a3,s4,a2
    adde:	00ce9633          	sll	a2,t4,a2
    ade2:	00eedeb3          	srl	t4,t4,a4
    ade6:	00c03633          	snez	a2,a2
    adea:	01d6e6b3          	or	a3,a3,t4
    adee:	00ea5733          	srl	a4,s4,a4
    adf2:	8ed1                	or	a3,a3,a2
    adf4:	97ba                	add	a5,a5,a4
    adf6:	98b6                	add	a7,a7,a3
    adf8:	00d8b6b3          	sltu	a3,a7,a3
    adfc:	00f68a33          	add	s4,a3,a5
    ae00:	8446                	mv	s0,a7
    ae02:	8ac2                	mv	s5,a6
    ae04:	b2d1                	j	a7c8 <__subdf3+0x184>
    ae06:	8ac2                	mv	s5,a6
    ae08:	84b6                	mv	s1,a3
    ae0a:	fff78a13          	addi	s4,a5,-1 # 7fffff <__rodata_start__+0x7f4f07>
    ae0e:	547d                	li	s0,-1
    ae10:	b4bd                	j	a87e <__subdf3+0x23a>
    ae12:	87ba                	mv	a5,a4
    ae14:	4601                	li	a2,0
    ae16:	4701                	li	a4,0
    ae18:	ba2d                	j	a752 <__subdf3+0x10e>
    ae1a:	d80709e3          	beqz	a4,abac <__subdf3+0x568>
    ae1e:	0117e8b3          	or	a7,a5,a7
    ae22:	a0089ae3          	bnez	a7,a836 <__subdf3+0x1f2>
    ae26:	b72d                	j	ad50 <__subdf3+0x70c>
    ae28:	003e1613          	slli	a2,t3,0x3
    ae2c:	00365413          	srli	s0,a2,0x3
    ae30:	8aba                	mv	s5,a4
    ae32:	8a3e                	mv	s4,a5
    ae34:	b669                	j	a9be <__subdf3+0x37a>
    ae36:	01d79613          	slli	a2,a5,0x1d
    ae3a:	0038d893          	srli	a7,a7,0x3
    ae3e:	01166633          	or	a2,a2,a7
    ae42:	838d                	srli	a5,a5,0x3
    ae44:	4a85                	li	s5,1
    ae46:	b669                	j	a9d0 <__subdf3+0x38c>
    ae48:	84b6                	mv	s1,a3
    ae4a:	8732                	mv	a4,a2
    ae4c:	bd71                	j	ace8 <__subdf3+0x6a4>
    ae4e:	fe070613          	addi	a2,a4,-32
    ae52:	02000693          	li	a3,32
    ae56:	00ca5633          	srl	a2,s4,a2
    ae5a:	00d70a63          	beq	a4,a3,ae6e <__subdf3+0x82a>
    ae5e:	04000693          	li	a3,64
    ae62:	40e68733          	sub	a4,a3,a4
    ae66:	00ea1733          	sll	a4,s4,a4
    ae6a:	00eeeeb3          	or	t4,t4,a4
    ae6e:	01d036b3          	snez	a3,t4
    ae72:	8ed1                	or	a3,a3,a2
    ae74:	b749                	j	adf6 <__subdf3+0x7b2>
    ae76:	02000793          	li	a5,32
    ae7a:	8f99                	sub	a5,a5,a4
    ae7c:	4601                	li	a2,0
    ae7e:	bc2d                	j	a8b8 <__subdf3+0x274>
    ae80:	a40688e3          	beqz	a3,a8d0 <__subdf3+0x28c>
    ae84:	8446                	mv	s0,a7
    ae86:	8a3e                	mv	s4,a5
    ae88:	800d                	srli	s0,s0,0x3
    ae8a:	be15                	j	a9be <__subdf3+0x37a>
    ae8c:	00e5e633          	or	a2,a1,a4
    ae90:	c2060fe3          	beqz	a2,aace <__subdf3+0x48a>
    ae94:	8a3a                	mv	s4,a4
    ae96:	8eae                	mv	t4,a1
    ae98:	b111                	j	aa9c <__subdf3+0x458>
    ae9a:	830d                	srli	a4,a4,0x3
    ae9c:	0676                	slli	a2,a2,0x1d
    ae9e:	8e59                	or	a2,a2,a4
    aea0:	8391                	srli	a5,a5,0x4
    aea2:	4a89                	li	s5,2
    aea4:	b635                	j	a9d0 <__subdf3+0x38c>
    aea6:	4581                	li	a1,0
    aea8:	7ff00793          	li	a5,2047
    aeac:	00080737          	lui	a4,0x80
    aeb0:	b04d                	j	a752 <__subdf3+0x10e>
    aeb2:	8736                	mv	a4,a3
    aeb4:	bf29                	j	adce <__subdf3+0x78a>
    aeb6:	ff8007b7          	lui	a5,0xff800
    aeba:	17fd                	addi	a5,a5,-1 # ff7fffff <linker_stack_start+0xef7d000f>
    aebc:	00fa77b3          	and	a5,s4,a5
    aec0:	01d79613          	slli	a2,a5,0x1d
    aec4:	0038de93          	srli	t4,a7,0x3
    aec8:	07a6                	slli	a5,a5,0x9
    aeca:	00c7d713          	srli	a4,a5,0xc
    aece:	01d66633          	or	a2,a2,t4
    aed2:	4785                	li	a5,1
    aed4:	b8bd                	j	a752 <__subdf3+0x10e>
    aed6:	8aba                	mv	s5,a4
    aed8:	84b6                	mv	s1,a3
    aeda:	ba79                	j	a878 <__subdf3+0x234>
    aedc:	01d79613          	slli	a2,a5,0x1d
    aee0:	003ede93          	srli	t4,t4,0x3
    aee4:	01d66633          	or	a2,a2,t4
    aee8:	838d                	srli	a5,a5,0x3
    aeea:	b4dd                	j	a9d0 <__subdf3+0x38c>
    aeec:	800d                	srli	s0,s0,0x3
    aeee:	01da1613          	slli	a2,s4,0x1d
    aef2:	8e41                	or	a2,a2,s0
    aef4:	8391                	srli	a5,a5,0x4
    aef6:	8aba                	mv	s5,a4
    aef8:	bce1                	j	a9d0 <__subdf3+0x38c>

0000aefa <__fixdfsi>:
    aefa:	0145d793          	srli	a5,a1,0x14
    aefe:	001006b7          	lui	a3,0x100
    af02:	fff68713          	addi	a4,a3,-1 # fffff <__rodata_start__+0xf4f07>
    af06:	7ff7f793          	andi	a5,a5,2047
    af0a:	3fe00613          	li	a2,1022
    af0e:	8f6d                	and	a4,a4,a1
    af10:	81fd                	srli	a1,a1,0x1f
    af12:	00f65b63          	bge	a2,a5,af28 <__fixdfsi+0x2e>
    af16:	41d00613          	li	a2,1053
    af1a:	00f65963          	bge	a2,a5,af2c <__fixdfsi+0x32>
    af1e:	80000537          	lui	a0,0x80000
    af22:	157d                	addi	a0,a0,-1 # 7fffffff <linker_stack_start+0x6ffd000f>
    af24:	952e                	add	a0,a0,a1
    af26:	8082                	ret
    af28:	4501                	li	a0,0
    af2a:	8082                	ret
    af2c:	43300613          	li	a2,1075
    af30:	8e1d                	sub	a2,a2,a5
    af32:	487d                	li	a6,31
    af34:	8f55                	or	a4,a4,a3
    af36:	00c85d63          	bge	a6,a2,af50 <__fixdfsi+0x56>
    af3a:	41300693          	li	a3,1043
    af3e:	40f687b3          	sub	a5,a3,a5
    af42:	00f75733          	srl	a4,a4,a5
    af46:	40e00533          	neg	a0,a4
    af4a:	f1e5                	bnez	a1,af2a <__fixdfsi+0x30>
    af4c:	853a                	mv	a0,a4
    af4e:	8082                	ret
    af50:	bed78793          	addi	a5,a5,-1043
    af54:	00f71733          	sll	a4,a4,a5
    af58:	00c55533          	srl	a0,a0,a2
    af5c:	8f49                	or	a4,a4,a0
    af5e:	b7e5                	j	af46 <__fixdfsi+0x4c>

0000af60 <__fixunsdfsi>:
    af60:	0145d793          	srli	a5,a1,0x14
    af64:	00100637          	lui	a2,0x100
    af68:	fff60713          	addi	a4,a2,-1 # fffff <__rodata_start__+0xf4f07>
    af6c:	7ff7f793          	andi	a5,a5,2047
    af70:	3fe00813          	li	a6,1022
    af74:	86aa                	mv	a3,a0
    af76:	8f6d                	and	a4,a4,a1
    af78:	4501                	li	a0,0
    af7a:	81fd                	srli	a1,a1,0x1f
    af7c:	00f85363          	bge	a6,a5,af82 <__fixunsdfsi+0x22>
    af80:	c191                	beqz	a1,af84 <__fixunsdfsi+0x24>
    af82:	8082                	ret
    af84:	41e00593          	li	a1,1054
    af88:	557d                	li	a0,-1
    af8a:	fef5cce3          	blt	a1,a5,af82 <__fixunsdfsi+0x22>
    af8e:	43300593          	li	a1,1075
    af92:	8d9d                	sub	a1,a1,a5
    af94:	457d                	li	a0,31
    af96:	8f51                	or	a4,a4,a2
    af98:	00b54a63          	blt	a0,a1,afac <__fixunsdfsi+0x4c>
    af9c:	bed78793          	addi	a5,a5,-1043
    afa0:	00f71733          	sll	a4,a4,a5
    afa4:	00b6d533          	srl	a0,a3,a1
    afa8:	8d59                	or	a0,a0,a4
    afaa:	8082                	ret
    afac:	41300513          	li	a0,1043
    afb0:	8d1d                	sub	a0,a0,a5
    afb2:	00a75533          	srl	a0,a4,a0
    afb6:	8082                	ret

0000afb8 <__floatsidf>:
    afb8:	1101                	addi	sp,sp,-32
    afba:	ce06                	sw	ra,28(sp)
    afbc:	cc22                	sw	s0,24(sp)
    afbe:	ca26                	sw	s1,20(sp)
    afc0:	c84a                	sw	s2,16(sp)
    afc2:	c64e                	sw	s3,12(sp)
    afc4:	cd0d                	beqz	a0,affe <__floatsidf+0x46>
    afc6:	41f55713          	srai	a4,a0,0x1f
    afca:	00a744b3          	xor	s1,a4,a0
    afce:	8c99                	sub	s1,s1,a4
    afd0:	87aa                	mv	a5,a0
    afd2:	8526                	mv	a0,s1
    afd4:	01f7d413          	srli	s0,a5,0x1f
    afd8:	284d                	jal	b08a <__clzsi2>
    afda:	41e00793          	li	a5,1054
    afde:	8f89                	sub	a5,a5,a0
    afe0:	4729                	li	a4,10
    afe2:	7ff7f793          	andi	a5,a5,2047
    afe6:	02a74d63          	blt	a4,a0,b020 <__floatsidf+0x68>
    afea:	472d                	li	a4,11
    afec:	8f09                	sub	a4,a4,a0
    afee:	00e4d733          	srl	a4,s1,a4
    aff2:	0732                	slli	a4,a4,0xc
    aff4:	0555                	addi	a0,a0,21
    aff6:	8331                	srli	a4,a4,0xc
    aff8:	00a494b3          	sll	s1,s1,a0
    affc:	a029                	j	b006 <__floatsidf+0x4e>
    affe:	4401                	li	s0,0
    b000:	4781                	li	a5,0
    b002:	4701                	li	a4,0
    b004:	4481                	li	s1,0
    b006:	07d2                	slli	a5,a5,0x14
    b008:	047e                	slli	s0,s0,0x1f
    b00a:	8fd9                	or	a5,a5,a4
    b00c:	40f2                	lw	ra,28(sp)
    b00e:	8fc1                	or	a5,a5,s0
    b010:	4462                	lw	s0,24(sp)
    b012:	4942                	lw	s2,16(sp)
    b014:	49b2                	lw	s3,12(sp)
    b016:	8526                	mv	a0,s1
    b018:	85be                	mv	a1,a5
    b01a:	44d2                	lw	s1,20(sp)
    b01c:	6105                	addi	sp,sp,32
    b01e:	8082                	ret
    b020:	1555                	addi	a0,a0,-11
    b022:	00a49733          	sll	a4,s1,a0
    b026:	0732                	slli	a4,a4,0xc
    b028:	8331                	srli	a4,a4,0xc
    b02a:	4481                	li	s1,0
    b02c:	bfe9                	j	b006 <__floatsidf+0x4e>

0000b02e <__floatunsidf>:
    b02e:	1141                	addi	sp,sp,-16
    b030:	c422                	sw	s0,8(sp)
    b032:	c606                	sw	ra,12(sp)
    b034:	c24a                	sw	s2,4(sp)
    b036:	c04e                	sw	s3,0(sp)
    b038:	842a                	mv	s0,a0
    b03a:	c50d                	beqz	a0,b064 <__floatunsidf+0x36>
    b03c:	20b9                	jal	b08a <__clzsi2>
    b03e:	41e00793          	li	a5,1054
    b042:	8f89                	sub	a5,a5,a0
    b044:	4729                	li	a4,10
    b046:	7ff7f793          	andi	a5,a5,2047
    b04a:	02a74963          	blt	a4,a0,b07c <__floatunsidf+0x4e>
    b04e:	472d                	li	a4,11
    b050:	8f09                	sub	a4,a4,a0
    b052:	00e45733          	srl	a4,s0,a4
    b056:	0732                	slli	a4,a4,0xc
    b058:	01550693          	addi	a3,a0,21
    b05c:	8331                	srli	a4,a4,0xc
    b05e:	00d41433          	sll	s0,s0,a3
    b062:	a019                	j	b068 <__floatunsidf+0x3a>
    b064:	4781                	li	a5,0
    b066:	4701                	li	a4,0
    b068:	40b2                	lw	ra,12(sp)
    b06a:	8522                	mv	a0,s0
    b06c:	4422                	lw	s0,8(sp)
    b06e:	07d2                	slli	a5,a5,0x14
    b070:	8fd9                	or	a5,a5,a4
    b072:	4912                	lw	s2,4(sp)
    b074:	4982                	lw	s3,0(sp)
    b076:	85be                	mv	a1,a5
    b078:	0141                	addi	sp,sp,16
    b07a:	8082                	ret
    b07c:	1555                	addi	a0,a0,-11
    b07e:	00a41733          	sll	a4,s0,a0
    b082:	0732                	slli	a4,a4,0xc
    b084:	8331                	srli	a4,a4,0xc
    b086:	4401                	li	s0,0
    b088:	b7c5                	j	b068 <__floatunsidf+0x3a>

0000b08a <__clzsi2>:
    b08a:	67c1                	lui	a5,0x10
    b08c:	02f57663          	bgeu	a0,a5,b0b8 <__clzsi2+0x2e>
    b090:	10053793          	sltiu	a5,a0,256
    b094:	0017b793          	seqz	a5,a5
    b098:	078e                	slli	a5,a5,0x3
    b09a:	02000713          	li	a4,32
    b09e:	8f1d                	sub	a4,a4,a5
    b0a0:	00f55533          	srl	a0,a0,a5
    b0a4:	10012797          	auipc	a5,0x10012
    b0a8:	f907a783          	lw	a5,-112(a5) # 1001d034 <_GLOBAL_OFFSET_TABLE_+0x4>
    b0ac:	97aa                	add	a5,a5,a0
    b0ae:	0007c503          	lbu	a0,0(a5)
    b0b2:	40a70533          	sub	a0,a4,a0
    b0b6:	8082                	ret
    b0b8:	010007b7          	lui	a5,0x1000
    b0bc:	02f57063          	bgeu	a0,a5,b0dc <__clzsi2+0x52>
    b0c0:	4741                	li	a4,16
    b0c2:	87ba                	mv	a5,a4
    b0c4:	00f55533          	srl	a0,a0,a5
    b0c8:	10012797          	auipc	a5,0x10012
    b0cc:	f6c7a783          	lw	a5,-148(a5) # 1001d034 <_GLOBAL_OFFSET_TABLE_+0x4>
    b0d0:	97aa                	add	a5,a5,a0
    b0d2:	0007c503          	lbu	a0,0(a5)
    b0d6:	40a70533          	sub	a0,a4,a0
    b0da:	8082                	ret
    b0dc:	47e1                	li	a5,24
    b0de:	00f55533          	srl	a0,a0,a5
    b0e2:	10012797          	auipc	a5,0x10012
    b0e6:	f527a783          	lw	a5,-174(a5) # 1001d034 <_GLOBAL_OFFSET_TABLE_+0x4>
    b0ea:	97aa                	add	a5,a5,a0
    b0ec:	0007c503          	lbu	a0,0(a5)
    b0f0:	4721                	li	a4,8
    b0f2:	40a70533          	sub	a0,a4,a0
    b0f6:	8082                	ret
